# SymbolsHelper-Confirmed: 4:15.08.1 amd64 arm64 armhf i386 powerpc ppc64el
libcalendarsupport.so.5 libcalendarsupport5 #MINVER#
 (optional=templinst|arch=!ppc64el)_ZN12KConfigGroup10writeEntryI9QDateTimeEEvPKcRKT_6QFlagsIN11KConfigBase15WriteConfigFlagEE@Base 4:15.08.0
 (optional=templinst)_ZN12KConfigGroup10writeEntryIbEEvPKcRKT_6QFlagsIN11KConfigBase15WriteConfigFlagEE@Base 4:15.08.0
 (optional=templinst|arch=!ppc64el)_ZN12KConfigGroup10writeEntryIiEEvPKcRKT_6QFlagsIN11KConfigBase15WriteConfigFlagEE@Base 4:15.08.0
 _ZN15CalendarSupport10CalPrinter11qt_metacallEN11QMetaObject4CallEiPPv@Base 4:15.08.0
 _ZN15CalendarSupport10CalPrinter11qt_metacastEPKc@Base 4:15.08.0
 _ZN15CalendarSupport10CalPrinter12setDateRangeERK5QDateS3_@Base 4:15.08.0
 _ZN15CalendarSupport10CalPrinter12updateConfigEv@Base 4:15.08.0
 _ZN15CalendarSupport10CalPrinter16staticMetaObjectE@Base 4:15.08.0
 _ZN15CalendarSupport10CalPrinter4initERK14QSharedPointerIN7Akonadi11ETMCalendarEE@Base 4:15.08.0
 _ZN15CalendarSupport10CalPrinter5printEiRK5QDateS3_RK7QVectorI14QSharedPointerIN8KCalCore9IncidenceEEEb@Base 4:15.08.0
 _ZN15CalendarSupport10CalPrinter7doPrintEPNS_11PrintPluginENS0_17ePrintOrientationEb@Base 4:15.08.0
 _ZN15CalendarSupport10CalPrinterC1EP7QWidgetRK14QSharedPointerIN7Akonadi11ETMCalendarEEb@Base 4:15.08.0
 _ZN15CalendarSupport10CalPrinterC2EP7QWidgetRK14QSharedPointerIN7Akonadi11ETMCalendarEEb@Base 4:15.08.0
 _ZN15CalendarSupport10CalPrinterD0Ev@Base 4:15.08.0
 _ZN15CalendarSupport10CalPrinterD1Ev@Base 4:15.08.0
 _ZN15CalendarSupport10CalPrinterD2Ev@Base 4:15.08.0
 _ZN15CalendarSupport10categoriesERK7QVectorI14QSharedPointerIN8KCalCore9IncidenceEEE@Base 4:15.08.0
 _ZN15CalendarSupport10createDragERK7QVectorIN7Akonadi4ItemEERKN9KDateTime4SpecEP7QWidget@Base 4:15.08.0
 _ZN15CalendarSupport10createDragERKN7Akonadi4ItemERKN9KDateTime4SpecEP7QWidget@Base 4:15.08.0
 _ZN15CalendarSupport10hasJournalERK14QSharedPointerIN8KCalCore9IncidenceEE@Base 4:15.08.0
 _ZN15CalendarSupport10hasJournalERKN7Akonadi4ItemE@Base 4:15.08.0
 _ZN15CalendarSupport10incidencesEPK9QMimeDataRKN9KDateTime4SpecE@Base 4:15.08.0
 _ZN15CalendarSupport11displayNameEPN7Akonadi11ETMCalendarERKNS0_10CollectionE@Base 4:15.08.0
 _ZN15CalendarSupport12CalPrintYear10loadConfigEv@Base 4:15.08.0
 _ZN15CalendarSupport12CalPrintYear10saveConfigEv@Base 4:15.08.0
 _ZN15CalendarSupport12CalPrintYear12setDateRangeERK5QDateS3_@Base 4:15.08.0
 _ZN15CalendarSupport12CalPrintYear17setSettingsWidgetEv@Base 4:15.08.0
 _ZN15CalendarSupport12CalPrintYear18createConfigWidgetEP7QWidget@Base 4:15.08.0
 _ZN15CalendarSupport12CalPrintYear18readSettingsWidgetEv@Base 4:15.08.0
 _ZN15CalendarSupport12CalPrintYear5printER8QPainterii@Base 4:15.08.0
 _ZN15CalendarSupport12hasIncidenceERKN7Akonadi4ItemE@Base 4:15.08.0
 _ZN15CalendarSupport12todoItemUrlsEPK9QMimeData@Base 4:15.08.0
 _ZN15CalendarSupport13ArchiveDialog11qt_metacallEN11QMetaObject4CallEiPPv@Base 4:15.08.0
 _ZN15CalendarSupport13ArchiveDialog11qt_metacastEPKc@Base 4:15.08.0
 _ZN15CalendarSupport13ArchiveDialog13eventsDeletedEv@Base 4:15.08.0
 _ZN15CalendarSupport13ArchiveDialog13showWhatsThisEv@Base 4:15.08.0
 _ZN15CalendarSupport13ArchiveDialog15slotEnableUser1Ev@Base 4:15.08.0
 _ZN15CalendarSupport13ArchiveDialog16staticMetaObjectE@Base 4:15.08.0
 _ZN15CalendarSupport13ArchiveDialog17slotActionChangedEv@Base 4:15.08.0
 _ZN15CalendarSupport13ArchiveDialog17slotEventsDeletedEv@Base 4:15.08.0
 _ZN15CalendarSupport13ArchiveDialog29autoArchivingSettingsModifiedEv@Base 4:15.08.0
 _ZN15CalendarSupport13ArchiveDialog9slotUser1Ev@Base 4:15.08.0
 _ZN15CalendarSupport13ArchiveDialogC1ERK14QSharedPointerIN7Akonadi11ETMCalendarEEPNS2_16IncidenceChangerEP7QWidget@Base 4:15.08.0
 _ZN15CalendarSupport13ArchiveDialogC2ERK14QSharedPointerIN7Akonadi11ETMCalendarEEPNS2_16IncidenceChangerEP7QWidget@Base 4:15.08.0
 _ZN15CalendarSupport13ArchiveDialogD0Ev@Base 4:15.08.0
 _ZN15CalendarSupport13ArchiveDialogD1Ev@Base 4:15.08.0
 _ZN15CalendarSupport13ArchiveDialogD2Ev@Base 4:15.08.0
 _ZN15CalendarSupport13CalendarUtils11qt_metacallEN11QMetaObject4CallEiPPv@Base 4:15.08.0
 _ZN15CalendarSupport13CalendarUtils11qt_metacastEPKc@Base 4:15.08.0
 _ZN15CalendarSupport13CalendarUtils12actionFailedERKN7Akonadi4ItemERK7QString@Base 4:15.08.0
 _ZN15CalendarSupport13CalendarUtils14actionFinishedERKN7Akonadi4ItemE@Base 4:15.08.0
 _ZN15CalendarSupport13CalendarUtils15makeIndependentERKN7Akonadi4ItemE@Base 4:15.08.0
 _ZN15CalendarSupport13CalendarUtils16staticMetaObjectE@Base 4:15.08.0
 _ZN15CalendarSupport13CalendarUtils19purgeCompletedTodosEv@Base 4:15.08.0
 _ZN15CalendarSupport13CalendarUtils23makeChildrenIndependentERKN7Akonadi4ItemE@Base 4:15.08.0
 _ZN15CalendarSupport13CalendarUtilsC1ERK14QSharedPointerIN7Akonadi11ETMCalendarEEP7QObject@Base 4:15.08.0
 _ZN15CalendarSupport13CalendarUtilsC2ERK14QSharedPointerIN7Akonadi11ETMCalendarEEP7QObject@Base 4:15.08.0
 _ZN15CalendarSupport13CalendarUtilsD0Ev@Base 4:15.08.0
 _ZN15CalendarSupport13CalendarUtilsD1Ev@Base 4:15.08.0
 _ZN15CalendarSupport13CalendarUtilsD2Ev@Base 4:15.08.0
 _ZN15CalendarSupport13EventArchiver11qt_metacallEN11QMetaObject4CallEiPPv@Base 4:15.08.0
 _ZN15CalendarSupport13EventArchiver11qt_metacastEPKc@Base 4:15.08.0
 _ZN15CalendarSupport13EventArchiver13eventsDeletedEv@Base 4:15.08.0
 _ZN15CalendarSupport13EventArchiver16deleteIncidencesEPN7Akonadi16IncidenceChangerERK5QDateP7QWidgetRK7QVectorINS1_4ItemEEb@Base 4:15.08.0
 _ZN15CalendarSupport13EventArchiver16staticMetaObjectE@Base 4:15.08.0
 _ZN15CalendarSupport13EventArchiver17archiveIncidencesERK14QSharedPointerIN7Akonadi11ETMCalendarEEPNS2_16IncidenceChangerERK5QDateP7QWidgetRK7QVectorIS1_IN8KCalCore9IncidenceEEEb@Base 4:15.08.0
 _ZN15CalendarSupport13EventArchiver3runERK14QSharedPointerIN7Akonadi11ETMCalendarEEPNS2_16IncidenceChangerERK5QDateP7QWidgetbb@Base 4:15.08.0
 _ZN15CalendarSupport13EventArchiver7runAutoERK14QSharedPointerIN7Akonadi11ETMCalendarEEPNS2_16IncidenceChangerEP7QWidgetb@Base 4:15.08.0
 _ZN15CalendarSupport13EventArchiver7runOnceERK14QSharedPointerIN7Akonadi11ETMCalendarEEPNS2_16IncidenceChangerERK5QDateP7QWidget@Base 4:15.08.0
 _ZN15CalendarSupport13EventArchiverC1EP7QObject@Base 4:15.08.0
 _ZN15CalendarSupport13EventArchiverC2EP7QObject@Base 4:15.08.0
 _ZN15CalendarSupport13EventArchiverD0Ev@Base 4:15.08.0
 _ZN15CalendarSupport13EventArchiverD1Ev@Base 4:15.08.0
 _ZN15CalendarSupport13EventArchiverD2Ev@Base 4:15.08.0
 _ZN15CalendarSupport13KCalPrefsBaseC1Ev@Base 4:15.08.0
 _ZN15CalendarSupport13KCalPrefsBaseC2Ev@Base 4:15.08.0
 _ZN15CalendarSupport13KCalPrefsBaseD0Ev@Base 4:15.08.0
 _ZN15CalendarSupport13KCalPrefsBaseD1Ev@Base 4:15.08.0
 _ZN15CalendarSupport13KCalPrefsBaseD2Ev@Base 4:15.08.0
 _ZN15CalendarSupport13MessageWidget11eventFilterEP7QObjectP6QEvent@Base 4:15.08.0
 _ZN15CalendarSupport13MessageWidget11qt_metacallEN11QMetaObject4CallEiPPv@Base 4:15.08.0
 _ZN15CalendarSupport13MessageWidget11qt_metacastEPKc@Base 4:15.08.0
 _ZN15CalendarSupport13MessageWidget16staticMetaObjectE@Base 4:15.08.0
 _ZN15CalendarSupport13MessageWidget9hideEventEP10QHideEvent@Base 4:15.08.0
 _ZN15CalendarSupport13MessageWidget9showEventEP10QShowEvent@Base 4:15.08.0
 _ZN15CalendarSupport13MessageWidgetC1EP7QWidget@Base 4:15.08.0
 _ZN15CalendarSupport13MessageWidgetC2EP7QWidget@Base 4:15.08.0
 _ZN15CalendarSupport13MessageWidgetD0Ev@Base 4:15.08.0
 _ZN15CalendarSupport13MessageWidgetD1Ev@Base 4:15.08.0
 _ZN15CalendarSupport13MessageWidgetD2Ev@Base 4:15.08.0
 _ZN15CalendarSupport13itemFromIndexERK11QModelIndex@Base 4:15.08.0
 _ZN15CalendarSupport13mergeCalendarERK7QStringRK14QSharedPointerIN8KCalCore8CalendarEE@Base 4:15.08.0
 _ZN15CalendarSupport14CategoryConfig11qt_metacallEN11QMetaObject4CallEiPPv@Base 4:15.08.0
 _ZN15CalendarSupport14CategoryConfig11qt_metacastEPKc@Base 4:15.08.0
 _ZN15CalendarSupport14CategoryConfig11writeConfigEv@Base 4:15.08.0
 _ZN15CalendarSupport14CategoryConfig16staticMetaObjectE@Base 4:15.08.0
 _ZN15CalendarSupport14CategoryConfig17categorySeparatorE@Base 4:15.08.0
 _ZN15CalendarSupport14CategoryConfig19setCustomCategoriesERK11QStringList@Base 4:15.08.0
 _ZN15CalendarSupport14CategoryConfig9setColorsERK5QHashI7QString6QColorE@Base 4:15.08.0
 _ZN15CalendarSupport14CategoryConfigC1EP19KCoreConfigSkeletonP7QObject@Base 4:15.08.0
 _ZN15CalendarSupport14CategoryConfigC2EP19KCoreConfigSkeletonP7QObject@Base 4:15.08.0
 _ZN15CalendarSupport14CategoryConfigD0Ev@Base 4:15.08.0
 _ZN15CalendarSupport14CategoryConfigD1Ev@Base 4:15.08.0
 _ZN15CalendarSupport14CategoryConfigD2Ev@Base 4:15.08.0
 _ZN15CalendarSupport14applyCalFilterERK7QVectorIN7Akonadi4ItemEEPKN8KCalCore9CalFilterE@Base 4:15.08.0
 _ZN15CalendarSupport14createMimeDataERK7QVectorIN7Akonadi4ItemEERKN9KDateTime4SpecE@Base 4:15.08.0
 _ZN15CalendarSupport14createMimeDataERKN7Akonadi4ItemERKN9KDateTime4SpecE@Base 4:15.08.0
 _ZN15CalendarSupport14itemsFromModelEPK18QAbstractItemModelRK11QModelIndexii@Base 4:15.08.0
 _ZN15CalendarSupport15CalPrintJournal10loadConfigEv@Base 4:15.08.0
 _ZN15CalendarSupport15CalPrintJournal10saveConfigEv@Base 4:15.08.0
 _ZN15CalendarSupport15CalPrintJournal12setDateRangeERK5QDateS3_@Base 4:15.08.0
 _ZN15CalendarSupport15CalPrintJournal17setSettingsWidgetEv@Base 4:15.08.0
 _ZN15CalendarSupport15CalPrintJournal18createConfigWidgetEP7QWidget@Base 4:15.08.0
 _ZN15CalendarSupport15CalPrintJournal18readSettingsWidgetEv@Base 4:15.08.0
 _ZN15CalendarSupport15CalPrintJournal5printER8QPainterii@Base 4:15.08.0
 _ZN15CalendarSupport15IdentityManager21createDefaultIdentityER7QStringS2_@Base 4:15.08.0
 _ZN15CalendarSupport15IncidenceViewer11itemChangedERKN7Akonadi4ItemE@Base 4:15.08.0
 _ZN15CalendarSupport15IncidenceViewer11itemRemovedEv@Base 4:15.08.0
 _ZN15CalendarSupport15IncidenceViewer11qt_metacallEN11QMetaObject4CallEiPPv@Base 4:15.08.0
 _ZN15CalendarSupport15IncidenceViewer11qt_metacastEPKc@Base 4:15.08.0
 _ZN15CalendarSupport15IncidenceViewer11setCalendarEPN7Akonadi11ETMCalendarE@Base 4:15.08.0
 _ZN15CalendarSupport15IncidenceViewer12setIncidenceERKN7Akonadi4ItemERK5QDate@Base 4:15.08.0
 _ZN15CalendarSupport15IncidenceViewer13setHeaderTextERK7QString@Base 4:15.08.0
 _ZN15CalendarSupport15IncidenceViewer15setDelayedClearEb@Base 4:15.08.0
 _ZN15CalendarSupport15IncidenceViewer16staticMetaObjectE@Base 4:15.08.0
 _ZN15CalendarSupport15IncidenceViewer17setDefaultMessageERK7QString@Base 4:15.08.0
 _ZN15CalendarSupport15IncidenceViewer4initEv@Base 4:15.08.0
 _ZN15CalendarSupport15IncidenceViewerC1EP7QWidget@Base 4:15.08.0
 _ZN15CalendarSupport15IncidenceViewerC1EPN7Akonadi11ETMCalendarEP7QWidget@Base 4:15.08.0
 _ZN15CalendarSupport15IncidenceViewerC2EP7QWidget@Base 4:15.08.0
 _ZN15CalendarSupport15IncidenceViewerC2EPN7Akonadi11ETMCalendarEP7QWidget@Base 4:15.08.0
 _ZN15CalendarSupport15IncidenceViewerD0Ev@Base 4:15.08.0
 _ZN15CalendarSupport15IncidenceViewerD1Ev@Base 4:15.08.0
 _ZN15CalendarSupport15IncidenceViewerD2Ev@Base 4:15.08.0
 _ZN15CalendarSupport15eventsFromItemsERK7QVectorIN7Akonadi4ItemEE@Base 4:15.08.0
 _ZN15CalendarSupport15mimeDataHasTodoEPK9QMimeData@Base 4:15.08.0
 _ZN15CalendarSupport15saveAttachmentsERKN7Akonadi4ItemEP7QWidget@Base 4:15.08.0
 _ZN15CalendarSupport16selectCollectionEP7QWidgetRiRK11QStringListRKN7Akonadi10CollectionE@Base 4:15.08.0
 _ZN15CalendarSupport17CalPrintIncidence10loadConfigEv@Base 4:15.08.0
 _ZN15CalendarSupport17CalPrintIncidence10saveConfigEv@Base 4:15.08.0
 _ZN15CalendarSupport17CalPrintIncidence17setSettingsWidgetEv@Base 4:15.08.0
 _ZN15CalendarSupport17CalPrintIncidence18createConfigWidgetEP7QWidget@Base 4:15.08.0
 _ZN15CalendarSupport17CalPrintIncidence18readSettingsWidgetEv@Base 4:15.08.0
 _ZN15CalendarSupport17CalPrintIncidence19printCaptionAndTextER8QPainterRK5QRectRK7QStringS8_RK5QFontSB_@Base 4:15.08.0
 _ZN15CalendarSupport17CalPrintIncidence5printER8QPainterii@Base 4:15.08.0
 _ZN15CalendarSupport17CalPrintIncidenceC1Ev@Base 4:15.08.0
 _ZN15CalendarSupport17CalPrintIncidenceC2Ev@Base 4:15.08.0
 _ZN15CalendarSupport17CalPrintIncidenceD0Ev@Base 4:15.08.0
 _ZN15CalendarSupport17CalPrintIncidenceD1Ev@Base 4:15.08.0
 _ZN15CalendarSupport17CalPrintIncidenceD2Ev@Base 4:15.08.0
 _ZN15CalendarSupport17calendarSingletonEb@Base 4:15.08.0
 _ZN15CalendarSupport17incidenceItemUrlsEPK9QMimeData@Base 4:15.08.0
 _ZN15CalendarSupport18CalPrintPluginBase10drawDayBoxER8QPainterRK5QDateRK5QTimeS8_RK5QRectbbbbbbbb@Base 4:15.08.0
 _ZN15CalendarSupport18CalPrintPluginBase10drawFooterER8QPainterRK5QRect@Base 4:15.08.0
 _ZN15CalendarSupport18CalPrintPluginBase10drawHeaderER8QPainterRK7QStringRK5QDateS8_RK5QRectb6QColor@Base 4:15.08.0
 _ZN15CalendarSupport18CalPrintPluginBase10setPaddingEi@Base 4:15.08.0
 _ZN15CalendarSupport18CalPrintPluginBase11drawJournalERK14QSharedPointerIN8KCalCore7JournalEER8QPainteriRiii@Base 4:15.08.0
 _ZN15CalendarSupport18CalPrintPluginBase11toPlainTextERK7QString@Base 4:15.08.0
 _ZN15CalendarSupport18CalPrintPluginBase12doLoadConfigEv@Base 4:15.08.0
 _ZN15CalendarSupport18CalPrintPluginBase12doSaveConfigEv@Base 4:15.08.0
 _ZN15CalendarSupport18CalPrintPluginBase12drawTimeLineER8QPainterRK5QTimeS5_RK5QRect@Base 4:15.08.0
 _ZN15CalendarSupport18CalPrintPluginBase12setUseColorsEb@Base 4:15.08.0
 _ZN15CalendarSupport18CalPrintPluginBase12showEventBoxER8QPainteriRK5QRectRK14QSharedPointerIN8KCalCore9IncidenceEERK7QStringi@Base 4:15.08.0
 _ZN15CalendarSupport18CalPrintPluginBase13drawAllDayBoxER8QPainterRK7QVectorI14QSharedPointerIN8KCalCore5EventEEERK5QDatebRK5QRectbb@Base 4:15.08.0
 _ZN15CalendarSupport18CalPrintPluginBase13drawIncidenceER8QPainterRK5QRectRK7QStringS8_S8_Ribbb@Base 4:15.08.0
 _ZN15CalendarSupport18CalPrintPluginBase13drawNoteLinesER8QPainterRK5QRecti@Base 4:15.08.0
 _ZN15CalendarSupport18CalPrintPluginBase13drawShadedBoxER8QPainteriRK6QBrushRK5QRect@Base 4:15.08.0
 _ZN15CalendarSupport18CalPrintPluginBase13drawTextLinesER8QPainterRK7QStringiRiiib@Base 4:15.08.0
 _ZN15CalendarSupport18CalPrintPluginBase13drawTimeTableER8QPainterRK5QDateS5_bRK5QTimeS8_RK5QRectbbbb@Base 4:15.08.0
 _ZN15CalendarSupport18CalPrintPluginBase13drawTodoLinesER8QPainterRK7QStringiRiiibR5QListIPNS0_15TodoParentStartEEb@Base 4:15.08.0
 _ZN15CalendarSupport18CalPrintPluginBase13weekdayColumnEi@Base 4:15.08.0
 _ZN15CalendarSupport18CalPrintPluginBase14calendarSystemEv@Base 4:15.08.0
 _ZN15CalendarSupport18CalPrintPluginBase14drawAgendaItemEP13PrintCellItemR8QPainterRK9KDateTimeS7_fRK5QRectbb@Base 4:15.08.0
 _ZN15CalendarSupport18CalPrintPluginBase14drawDaysOfWeekER8QPainterRK5QDateS5_RK5QRect@Base 4:15.08.0
 _ZN15CalendarSupport18CalPrintPluginBase14drawMonthTableER8QPainterRK5QDateRK5QTimeS8_bbbbbbbbRK5QRect@Base 4:15.08.0
 _ZN15CalendarSupport18CalPrintPluginBase14drawSmallMonthER8QPainterRK5QDateRK5QRect@Base 4:15.08.0
 _ZN15CalendarSupport18CalPrintPluginBase14setBorderWidthEi@Base 4:15.08.0
 _ZN15CalendarSupport18CalPrintPluginBase14setPrintFooterEb@Base 4:15.08.0
 _ZN15CalendarSupport18CalPrintPluginBase15drawVerticalBoxER8QPainteriRK5QRectRK7QStringi@Base 4:15.08.0
 _ZN15CalendarSupport18CalPrintPluginBase15setFooterHeightEi@Base 4:15.08.0
 _ZN15CalendarSupport18CalPrintPluginBase15setHeaderHeightEi@Base 4:15.08.0
 _ZN15CalendarSupport18CalPrintPluginBase16drawAgendaDayBoxER8QPainterRK7QVectorI14QSharedPointerIN8KCalCore5EventEEERK5QDatebRK5QTimeSG_RK5QRectbbbbRK5QListISB_E@Base 4:15.08.0
 _ZN15CalendarSupport18CalPrintPluginBase16drawSubHeaderBoxER8QPainterRK7QStringRK5QRect@Base 4:15.08.0
 _ZN15CalendarSupport18CalPrintPluginBase16printEventStringER8QPainterRK5QRectRK7QStringi@Base 4:15.08.0
 _ZN15CalendarSupport18CalPrintPluginBase17drawDaysOfWeekBoxER8QPainterRK5QDateRK5QRect@Base 4:15.08.0
 _ZN15CalendarSupport18CalPrintPluginBase17setCalendarSystemEPK15KCalendarSystem@Base 4:15.08.0
 _ZN15CalendarSupport18CalPrintPluginBase18createConfigWidgetEP7QWidget@Base 4:15.08.0
 _ZN15CalendarSupport18CalPrintPluginBase18drawBoxWithCaptionER8QPainterRK5QRectRK7QStringS8_bbRK5QFontSB_b@Base 4:15.08.0
 _ZN15CalendarSupport18CalPrintPluginBase18setSubHeaderHeightEi@Base 4:15.08.0
 _ZN15CalendarSupport18CalPrintPluginBase20drawSplitHeaderRightER8QPainterRK5QDateS5_S5_ii@Base 4:15.08.0
 _ZN15CalendarSupport18CalPrintPluginBase7doPrintEP8QPrinter@Base 4:15.08.0
 _ZN15CalendarSupport18CalPrintPluginBase7drawBoxER8QPainteriRK5QRect@Base 4:15.08.0
 _ZN15CalendarSupport18CalPrintPluginBase8drawDaysER8QPainterRK5QDateS5_RK5QTimeS8_RK5QRectbbbbb@Base 4:15.08.0
 _ZN15CalendarSupport18CalPrintPluginBase8drawTodoERiRK14QSharedPointerIN8KCalCore4TodoEER8QPainterNS3_13TodoSortFieldENS3_13SortDirectionEbbbiiiiiiS1_iiRK7QVectorIS5_EPNS0_15TodoParentStartEbb@Base 4:15.08.0
 _ZN15CalendarSupport18CalPrintPluginBase8drawWeekER8QPainterRK5QDateRK5QTimeS8_RK5QRectbbbbb@Base 4:15.08.0
 _ZN15CalendarSupport18CalPrintPluginBase9drawMonthER8QPainterRK5QDateRK5QRectiiibb@Base 4:15.08.0
 _ZN15CalendarSupport18CalPrintPluginBase9setMarginEi@Base 4:15.08.0
 _ZN15CalendarSupport18CalPrintPluginBaseC1Ev@Base 4:15.08.0
 _ZN15CalendarSupport18CalPrintPluginBaseC2Ev@Base 4:15.08.0
 _ZN15CalendarSupport18CalPrintPluginBaseD0Ev@Base 4:15.08.0
 _ZN15CalendarSupport18CalPrintPluginBaseD1Ev@Base 4:15.08.0
 _ZN15CalendarSupport18CalPrintPluginBaseD2Ev@Base 4:15.08.0
 _ZN15CalendarSupport18isValidTodoItemUrlERK4QUrl@Base 4:15.08.0
 _ZN15CalendarSupport19CollectionSelection11qt_metacallEN11QMetaObject4CallEiPPv@Base 4:15.08.0
 _ZN15CalendarSupport19CollectionSelection11qt_metacastEPKc@Base 4:15.08.0
 _ZN15CalendarSupport19CollectionSelection16selectionChangedERK7QVectorIN7Akonadi10CollectionEES6_@Base 4:15.08.0
 _ZN15CalendarSupport19CollectionSelection16staticMetaObjectE@Base 4:15.08.0
 _ZN15CalendarSupport19CollectionSelection18collectionSelectedERKN7Akonadi10CollectionE@Base 4:15.08.0
 _ZN15CalendarSupport19CollectionSelection20collectionDeselectedERKN7Akonadi10CollectionE@Base 4:15.08.0
 _ZN15CalendarSupport19CollectionSelection20slotSelectionChangedERK14QItemSelectionS3_@Base 4:15.08.0
 _ZN15CalendarSupport19CollectionSelectionC1EP19QItemSelectionModelP7QObject@Base 4:15.08.0
 _ZN15CalendarSupport19CollectionSelectionC2EP19QItemSelectionModelP7QObject@Base 4:15.08.0
 _ZN15CalendarSupport19CollectionSelectionD0Ev@Base 4:15.08.0
 _ZN15CalendarSupport19CollectionSelectionD1Ev@Base 4:15.08.0
 _ZN15CalendarSupport19CollectionSelectionD2Ev@Base 4:15.08.0
 _ZN15CalendarSupport19collectionFromIndexERK11QModelIndex@Base 4:15.08.0
 _ZN15CalendarSupport19incidencesFromItemsERK7QVectorIN7Akonadi4ItemEE@Base 4:15.08.0
 _ZN15CalendarSupport20collectionsFromModelEPK18QAbstractItemModelRK11QModelIndexii@Base 4:15.08.0
 _ZN15CalendarSupport20mimeDataHasIncidenceEPK9QMimeData@Base 4:15.08.0
 _ZN15CalendarSupport21collectionIdFromIndexERK11QModelIndex@Base 4:15.08.0
 _ZN15CalendarSupport22collectionsFromIndexesERK5QListI11QModelIndexE@Base 4:15.08.0
 _ZN15CalendarSupport23CategoryHierarchyReader4pathE7QString@Base 4:15.08.0
 _ZN15CalendarSupport23CategoryHierarchyReader4readERK11QStringList@Base 4:15.08.0
 _ZN15CalendarSupport23isValidIncidenceItemUrlERK4QUrl@Base 4:15.08.0
 _ZN15CalendarSupport23isValidIncidenceItemUrlERK4QUrlRK11QStringList@Base 4:15.08.0
 _ZN15CalendarSupport23subMimeTypeForIncidenceERK14QSharedPointerIN8KCalCore9IncidenceEE@Base 4:15.08.0
 _ZN15CalendarSupport24IncidenceAttachmentModel11qt_metacallEN11QMetaObject4CallEiPPv@Base 4:15.08.0
 _ZN15CalendarSupport24IncidenceAttachmentModel11qt_metacastEPKc@Base 4:15.08.0
 _ZN15CalendarSupport24IncidenceAttachmentModel15rowCountChangedEv@Base 4:15.08.0
 _ZN15CalendarSupport24IncidenceAttachmentModel16staticMetaObjectE@Base 4:15.08.0
 _ZN15CalendarSupport24IncidenceAttachmentModel7setItemERKN7Akonadi4ItemE@Base 4:15.08.0
 _ZN15CalendarSupport24IncidenceAttachmentModel8setIndexERK21QPersistentModelIndex@Base 4:15.08.0
 _ZN15CalendarSupport24IncidenceAttachmentModelC1EP7QObject@Base 4:15.08.0
 _ZN15CalendarSupport24IncidenceAttachmentModelC1ERK21QPersistentModelIndexP7QObject@Base 4:15.08.0
 _ZN15CalendarSupport24IncidenceAttachmentModelC1ERKN7Akonadi4ItemEP7QObject@Base 4:15.08.0
 _ZN15CalendarSupport24IncidenceAttachmentModelC2EP7QObject@Base 4:15.08.0
 _ZN15CalendarSupport24IncidenceAttachmentModelC2ERK21QPersistentModelIndexP7QObject@Base 4:15.08.0
 _ZN15CalendarSupport24IncidenceAttachmentModelC2ERKN7Akonadi4ItemEP7QObject@Base 4:15.08.0
 _ZN15CalendarSupport24IncidenceAttachmentModelD0Ev@Base 4:15.08.0
 _ZN15CalendarSupport24IncidenceAttachmentModelD1Ev@Base 4:15.08.0
 _ZN15CalendarSupport24IncidenceAttachmentModelD2Ev@Base 4:15.08.0
 _ZN15CalendarSupport32CategoryHierarchyReaderQComboBox4goUpEv@Base 4:15.08.0
 _ZN15CalendarSupport32CategoryHierarchyReaderQComboBox5clearEv@Base 4:15.08.0
 _ZN15CalendarSupport32CategoryHierarchyReaderQComboBox8addChildERK7QStringRK8QVariant@Base 4:15.08.0
 _ZN15CalendarSupport34CategoryHierarchyReaderQTreeWidget4goUpEv@Base 4:15.08.0
 _ZN15CalendarSupport34CategoryHierarchyReaderQTreeWidget5clearEv@Base 4:15.08.0
 _ZN15CalendarSupport34CategoryHierarchyReaderQTreeWidget8addChildERK7QStringRK8QVariant@Base 4:15.08.0
 _ZN15CalendarSupport4todoERK14QSharedPointerIN8KCalCore9IncidenceEE@Base 4:15.08.0
 _ZN15CalendarSupport4todoERKN7Akonadi4ItemE@Base 4:15.08.0
 _ZN15CalendarSupport5eventERK14QSharedPointerIN8KCalCore9IncidenceEE@Base 4:15.08.0
 _ZN15CalendarSupport5eventERKN7Akonadi4ItemE@Base 4:15.08.0
 _ZN15CalendarSupport5todosEPK9QMimeDataRKN9KDateTime4SpecE@Base 4:15.08.0
 _ZN15CalendarSupport7hasTodoERK14QSharedPointerIN8KCalCore9IncidenceEE@Base 4:15.08.0
 _ZN15CalendarSupport7hasTodoERKN7Akonadi4ItemE@Base 4:15.08.0
 _ZN15CalendarSupport7holidayERK5QDate@Base 4:15.08.0
 _ZN15CalendarSupport7journalERK14QSharedPointerIN8KCalCore9IncidenceEE@Base 4:15.08.0
 _ZN15CalendarSupport7journalERKN7Akonadi4ItemE@Base 4:15.08.0
 _ZN15CalendarSupport8CellItem9placeItemE5QListIPS0_ES2_@Base 4:15.08.0
 _ZN15CalendarSupport8hasEventERK14QSharedPointerIN8KCalCore9IncidenceEE@Base 4:15.08.0
 _ZN15CalendarSupport8hasEventERKN7Akonadi4ItemE@Base 4:15.08.0
 _ZN15CalendarSupport8workDaysERK5QDateS2_@Base 4:15.08.0
 _ZN15CalendarSupport9KCalModelC1EP7QObject@Base 4:15.08.0
 _ZN15CalendarSupport9KCalModelC2EP7QObject@Base 4:15.08.0
 _ZN15CalendarSupport9KCalModelD0Ev@Base 4:15.08.0
 _ZN15CalendarSupport9KCalModelD1Ev@Base 4:15.08.0
 _ZN15CalendarSupport9KCalModelD2Ev@Base 4:15.08.0
 _ZN15CalendarSupport9KCalPrefs10fullEmailsEv@Base 4:15.08.0
 _ZN15CalendarSupport9KCalPrefs11setTimeSpecERKN9KDateTime4SpecE@Base 4:15.08.0
 _ZN15CalendarSupport9KCalPrefs12setDayBeginsERK9QDateTime@Base 4:15.08.0
 _ZN15CalendarSupport9KCalPrefs14usrSetDefaultsEv@Base 4:15.08.0
 _ZN15CalendarSupport9KCalPrefs16fillMailDefaultsEv@Base 4:15.08.0
 _ZN15CalendarSupport9KCalPrefs16setCategoryColorERK7QStringRK6QColor@Base 4:15.08.0
 _ZN15CalendarSupport9KCalPrefs18setTimeZoneDefaultEv@Base 4:15.08.0
 _ZN15CalendarSupport9KCalPrefs20setDefaultCalendarIdEx@Base 4:15.08.0
 _ZN15CalendarSupport9KCalPrefs5emailEv@Base 4:15.08.0
 _ZN15CalendarSupport9KCalPrefs7usrReadEv@Base 4:15.08.0
 _ZN15CalendarSupport9KCalPrefs7usrSaveEv@Base 4:15.08.0
 _ZN15CalendarSupport9KCalPrefs8fullNameEv@Base 4:15.08.0
 _ZN15CalendarSupport9KCalPrefs8instanceEv@Base 4:15.08.0
 _ZN15CalendarSupport9KCalPrefs8thatIsMeERK7QString@Base 4:15.08.0
 _ZN15CalendarSupport9KCalPrefs8timeSpecEv@Base 4:15.08.0
 _ZN15CalendarSupport9KCalPrefs9allEmailsEv@Base 4:15.08.0
 _ZN15CalendarSupport9KCalPrefsC1Ev@Base 4:15.08.0
 _ZN15CalendarSupport9KCalPrefsC2Ev@Base 4:15.08.0
 _ZN15CalendarSupport9KCalPrefsD0Ev@Base 4:15.08.0
 _ZN15CalendarSupport9KCalPrefsD1Ev@Base 4:15.08.0
 _ZN15CalendarSupport9KCalPrefsD2Ev@Base 4:15.08.0
 _ZN15CalendarSupport9canDecodeEPK9QMimeData@Base 4:15.08.0
 _ZN15CalendarSupport9incidenceERKN7Akonadi4ItemE@Base 4:15.08.0
 (optional=templinst)_ZNK12KConfigGroup9readEntryI9QDateTimeEET_PKcRKS2_@Base 4:15.08.0
 (optional=templinst)_ZNK12KConfigGroup9readEntryIbEET_PKcRKS1_@Base 4:15.08.0
 (optional=templinst)_ZNK12KConfigGroup9readEntryIiEET_PKcRKS1_@Base 4:15.08.0
 _ZNK15CalendarSupport10CalPrinter10metaObjectEv@Base 4:15.08.0
 _ZNK15CalendarSupport12CalPrintYear18defaultOrientationEv@Base 4:15.08.0
 _ZNK15CalendarSupport13ArchiveDialog10metaObjectEv@Base 4:15.08.0
 _ZNK15CalendarSupport13CalendarUtils10metaObjectEv@Base 4:15.08.0
 _ZNK15CalendarSupport13CalendarUtils8calendarEv@Base 4:15.08.0
 _ZNK15CalendarSupport13EventArchiver10metaObjectEv@Base 4:15.08.0
 _ZNK15CalendarSupport13EventArchiver17isSubTreeCompleteERK14QSharedPointerIN7Akonadi11ETMCalendarEERKS1_IN8KCalCore4TodoEERK5QDate11QStringList@Base 4:15.08.0
 _ZNK15CalendarSupport13MessageWidget10metaObjectEv@Base 4:15.08.0
 _ZNK15CalendarSupport14CategoryConfig10metaObjectEv@Base 4:15.08.0
 _ZNK15CalendarSupport14CategoryConfig10readColorsEv@Base 4:15.08.0
 _ZNK15CalendarSupport14CategoryConfig16customCategoriesEv@Base 4:15.08.0
 _ZNK15CalendarSupport15IncidenceViewer10activeDateEv@Base 4:15.08.0
 _ZNK15CalendarSupport15IncidenceViewer10metaObjectEv@Base 4:15.08.0
 _ZNK15CalendarSupport15IncidenceViewer15attachmentModelEv@Base 4:15.08.0
 _ZNK15CalendarSupport15IncidenceViewer9incidenceEv@Base 4:15.08.0
 _ZNK15CalendarSupport18CalPrintPluginBase11borderWidthEv@Base 4:15.08.0
 _ZNK15CalendarSupport18CalPrintPluginBase11orientationEv@Base 4:15.08.0
 _ZNK15CalendarSupport18CalPrintPluginBase11printFooterEv@Base 4:15.08.0
 _ZNK15CalendarSupport18CalPrintPluginBase12footerHeightEv@Base 4:15.08.0
 _ZNK15CalendarSupport18CalPrintPluginBase12getTextColorERK6QColor@Base 4:15.08.0
 _ZNK15CalendarSupport18CalPrintPluginBase12headerHeightEv@Base 4:15.08.0
 _ZNK15CalendarSupport18CalPrintPluginBase12holidayEventERK5QDate@Base 4:15.08.0
 _ZNK15CalendarSupport18CalPrintPluginBase13categoryColorERK11QStringList@Base 4:15.08.0
 _ZNK15CalendarSupport18CalPrintPluginBase13holidayStringERK5QDate@Base 4:15.08.0
 _ZNK15CalendarSupport18CalPrintPluginBase15categoryBgColorERK14QSharedPointerIN8KCalCore9IncidenceEE@Base 4:15.08.0
 _ZNK15CalendarSupport18CalPrintPluginBase15subHeaderHeightEv@Base 4:15.08.0
 _ZNK15CalendarSupport18CalPrintPluginBase28setColorsByIncidenceCategoryER8QPainterRK14QSharedPointerIN8KCalCore9IncidenceEE@Base 4:15.08.0
 _ZNK15CalendarSupport18CalPrintPluginBase6marginEv@Base 4:15.08.0
 _ZNK15CalendarSupport18CalPrintPluginBase7paddingEv@Base 4:15.08.0
 _ZNK15CalendarSupport18CalPrintPluginBase8dayStartEv@Base 4:15.08.0
 _ZNK15CalendarSupport18CalPrintPluginBase9useColorsEv@Base 4:15.08.0
 _ZNK15CalendarSupport19CollectionSelection10metaObjectEv@Base 4:15.08.0
 _ZNK15CalendarSupport19CollectionSelection12hasSelectionEv@Base 4:15.08.0
 _ZNK15CalendarSupport19CollectionSelection19selectedCollectionsEv@Base 4:15.08.0
 _ZNK15CalendarSupport19CollectionSelection21selectedCollectionIdsEv@Base 4:15.08.0
 _ZNK15CalendarSupport19CollectionSelection5modelEv@Base 4:15.08.0
 _ZNK15CalendarSupport19CollectionSelection8containsERKN7Akonadi10CollectionE@Base 4:15.08.0
 _ZNK15CalendarSupport19CollectionSelection8containsERKx@Base 4:15.08.0
 _ZNK15CalendarSupport24IncidenceAttachmentModel10headerDataEiN2Qt11OrientationEi@Base 4:15.08.0
 _ZNK15CalendarSupport24IncidenceAttachmentModel10metaObjectEv@Base 4:15.08.0
 _ZNK15CalendarSupport24IncidenceAttachmentModel4dataERK11QModelIndexi@Base 4:15.08.0
 _ZNK15CalendarSupport24IncidenceAttachmentModel8rowCountERK11QModelIndex@Base 4:15.08.0
 _ZNK15CalendarSupport24IncidenceAttachmentModel9incidenceEv@Base 4:15.08.0
 _ZNK15CalendarSupport32CategoryHierarchyReaderQComboBox5depthEv@Base 4:15.08.0
 _ZNK15CalendarSupport34CategoryHierarchyReaderQTreeWidget5depthEv@Base 4:15.08.0
 _ZNK15CalendarSupport8CellItem5labelEv@Base 4:15.08.0
 _ZNK15CalendarSupport9KCalModel10headerDataEiN2Qt11OrientationEi@Base 4:15.08.0
 _ZNK15CalendarSupport9KCalModel11columnCountERK11QModelIndex@Base 4:15.08.0
 _ZNK15CalendarSupport9KCalModel4dataERK11QModelIndexi@Base 4:15.08.0
 _ZNK15CalendarSupport9KCalModel8rowCountERK11QModelIndex@Base 4:15.08.0
 _ZNK15CalendarSupport9KCalModel9mimeTypesEv@Base 4:15.08.0
 _ZNK15CalendarSupport9KCalPrefs13categoryColorERK7QString@Base 4:15.08.0
 _ZNK15CalendarSupport9KCalPrefs16hasCategoryColorERK7QString@Base 4:15.08.0
 _ZNK15CalendarSupport9KCalPrefs17defaultCalendarIdEv@Base 4:15.08.0
 _ZNK15CalendarSupport9KCalPrefs9dayBeginsEv@Base 4:15.08.0
 (optional=templinst)_ZNK7Akonadi4Item10hasPayloadI14QSharedPointerIN8KCalCore9IncidenceEEEEbv@Base 4:15.08.0
 (optional=templinst)_ZNK7Akonadi4Item11payloadImplI14QSharedPointerIN8KCalCore9IncidenceEEEENSt9enable_ifIXntsrNS_8Internal12PayloadTraitIT_EE13isPolymorphicES9_E4typeEv@Base 4:15.08.0
 (optional=templinst)_ZNK7Akonadi4Item14hasPayloadImplI14QSharedPointerIN8KCalCore4TodoEEEENSt9enable_ifIXsrNS_8Internal12PayloadTraitIT_EE13isPolymorphicEbE4typeEPKi@Base 4:15.08.0
 (optional=templinst)_ZNK7Akonadi4Item14hasPayloadImplI14QSharedPointerIN8KCalCore5EventEEEENSt9enable_ifIXsrNS_8Internal12PayloadTraitIT_EE13isPolymorphicEbE4typeEPKi@Base 4:15.08.0
 (optional=templinst)_ZNK7Akonadi4Item14hasPayloadImplI14QSharedPointerIN8KCalCore7JournalEEEENSt9enable_ifIXsrNS_8Internal12PayloadTraitIT_EE13isPolymorphicEbE4typeEPKi@Base 4:15.08.0
 (optional=templinst)_ZNK7Akonadi4Item14hasPayloadImplI14QSharedPointerIN8KCalCore9IncidenceEEEENSt9enable_ifIXntsrNS_8Internal12PayloadTraitIT_EE13isPolymorphicEbE4typeEv@Base 4:15.08.0
 (optional=templinst)_ZNK7Akonadi4Item14tryToCloneImplI14QSharedPointerIN8KCalCore9IncidenceEEN5boost10shared_ptrIS4_EEEENSt9enable_ifIXntsrSt7is_sameIT_T0_E5valueEbE4typeEPSB_PKi@Base 4:15.08.0
 (optional=templinst)_ZNK7Akonadi4Item14tryToCloneImplI14QSharedPointerIN8KCalCore9IncidenceEESt10shared_ptrIS4_EEENSt9enable_ifIXntsrSt7is_sameIT_T0_E5valueEbE4typeEPSA_PKi@Base 4:15.08.0
 (optional=templinst)_ZNK7Akonadi4Item7payloadI14QSharedPointerIN8KCalCore9IncidenceEEEET_v@Base 4:15.08.0
 _ZTIN15CalendarSupport10CalPrinterE@Base 4:15.08.0
 _ZTIN15CalendarSupport12CalPrintYearE@Base 4:15.08.0
 _ZTIN15CalendarSupport13ArchiveDialogE@Base 4:15.08.0
 _ZTIN15CalendarSupport13CalendarUtilsE@Base 4:15.08.0
 _ZTIN15CalendarSupport13EventArchiverE@Base 4:15.08.0
 _ZTIN15CalendarSupport13KCalPrefsBaseE@Base 4:15.08.0
 _ZTIN15CalendarSupport13MessageWidgetE@Base 4:15.08.0
 _ZTIN15CalendarSupport14CategoryConfigE@Base 4:15.08.0
 _ZTIN15CalendarSupport15CalPrintJournalE@Base 4:15.08.0
 _ZTIN15CalendarSupport15IdentityManagerE@Base 4:15.08.0
 _ZTIN15CalendarSupport15IncidenceViewerE@Base 4:15.08.0
 _ZTIN15CalendarSupport17CalPrintIncidenceE@Base 4:15.08.0
 _ZTIN15CalendarSupport18CalPrintPluginBaseE@Base 4:15.08.0
 _ZTIN15CalendarSupport18CalPrintYearConfigE@Base 4:15.08.0
 _ZTIN15CalendarSupport19CollectionSelectionE@Base 4:15.08.0
 _ZTIN15CalendarSupport21CalPrintJournalConfigE@Base 4:15.08.0
 _ZTIN15CalendarSupport23CategoryHierarchyReaderE@Base 4:15.08.0
 _ZTIN15CalendarSupport24IncidenceAttachmentModelE@Base 4:15.08.0
 _ZTIN15CalendarSupport32CategoryHierarchyReaderQComboBoxE@Base 4:15.08.0
 _ZTIN15CalendarSupport34CategoryHierarchyReaderQTreeWidgetE@Base 4:15.08.0
 _ZTIN15CalendarSupport8CellItemE@Base 4:15.08.0
 _ZTIN15CalendarSupport9KCalModelE@Base 4:15.08.0
 _ZTIN15CalendarSupport9KCalPrefsE@Base 4:15.08.0
 _ZTSN15CalendarSupport10CalPrinterE@Base 4:15.08.0
 _ZTSN15CalendarSupport12CalPrintYearE@Base 4:15.08.0
 _ZTSN15CalendarSupport13ArchiveDialogE@Base 4:15.08.0
 _ZTSN15CalendarSupport13CalendarUtilsE@Base 4:15.08.0
 _ZTSN15CalendarSupport13EventArchiverE@Base 4:15.08.0
 _ZTSN15CalendarSupport13KCalPrefsBaseE@Base 4:15.08.0
 _ZTSN15CalendarSupport13MessageWidgetE@Base 4:15.08.0
 _ZTSN15CalendarSupport14CategoryConfigE@Base 4:15.08.0
 _ZTSN15CalendarSupport15CalPrintJournalE@Base 4:15.08.0
 _ZTSN15CalendarSupport15IdentityManagerE@Base 4:15.08.0
 _ZTSN15CalendarSupport15IncidenceViewerE@Base 4:15.08.0
 _ZTSN15CalendarSupport17CalPrintIncidenceE@Base 4:15.08.0
 _ZTSN15CalendarSupport18CalPrintPluginBaseE@Base 4:15.08.0
 _ZTSN15CalendarSupport18CalPrintYearConfigE@Base 4:15.08.0
 _ZTSN15CalendarSupport19CollectionSelectionE@Base 4:15.08.0
 _ZTSN15CalendarSupport21CalPrintJournalConfigE@Base 4:15.08.0
 _ZTSN15CalendarSupport23CategoryHierarchyReaderE@Base 4:15.08.0
 _ZTSN15CalendarSupport24IncidenceAttachmentModelE@Base 4:15.08.0
 _ZTSN15CalendarSupport32CategoryHierarchyReaderQComboBoxE@Base 4:15.08.0
 _ZTSN15CalendarSupport34CategoryHierarchyReaderQTreeWidgetE@Base 4:15.08.0
 _ZTSN15CalendarSupport8CellItemE@Base 4:15.08.0
 _ZTSN15CalendarSupport9KCalModelE@Base 4:15.08.0
 _ZTSN15CalendarSupport9KCalPrefsE@Base 4:15.08.0
 _ZTVN15CalendarSupport10CalPrinterE@Base 4:15.08.0
 _ZTVN15CalendarSupport12CalPrintYearE@Base 4:15.08.0
 _ZTVN15CalendarSupport13ArchiveDialogE@Base 4:15.08.0
 _ZTVN15CalendarSupport13CalendarUtilsE@Base 4:15.08.0
 _ZTVN15CalendarSupport13EventArchiverE@Base 4:15.08.0
 _ZTVN15CalendarSupport13KCalPrefsBaseE@Base 4:15.08.0
 _ZTVN15CalendarSupport13MessageWidgetE@Base 4:15.08.0
 _ZTVN15CalendarSupport14CategoryConfigE@Base 4:15.08.0
 _ZTVN15CalendarSupport15CalPrintJournalE@Base 4:15.08.0
 _ZTVN15CalendarSupport15IdentityManagerE@Base 4:15.08.0
 _ZTVN15CalendarSupport15IncidenceViewerE@Base 4:15.08.0
 _ZTVN15CalendarSupport17CalPrintIncidenceE@Base 4:15.08.0
 _ZTVN15CalendarSupport18CalPrintPluginBaseE@Base 4:15.08.0
 _ZTVN15CalendarSupport18CalPrintYearConfigE@Base 4:15.08.0
 _ZTVN15CalendarSupport19CollectionSelectionE@Base 4:15.08.0
 _ZTVN15CalendarSupport21CalPrintJournalConfigE@Base 4:15.08.0
 _ZTVN15CalendarSupport24IncidenceAttachmentModelE@Base 4:15.08.0
 _ZTVN15CalendarSupport32CategoryHierarchyReaderQComboBoxE@Base 4:15.08.0
 _ZTVN15CalendarSupport34CategoryHierarchyReaderQTreeWidgetE@Base 4:15.08.0
 _ZTVN15CalendarSupport8CellItemE@Base 4:15.08.0
 _ZTVN15CalendarSupport9KCalModelE@Base 4:15.08.0
 _ZTVN15CalendarSupport9KCalPrefsE@Base 4:15.08.0
 _ZZZN15CalendarSupport13KCalPrefsBase11setUserNameERK7QStringENKUlvE_clEvE15qstring_literal@Base 4:15.08.1
 _ZZZN15CalendarSupport13KCalPrefsBase12setUserEmailERK7QStringENKUlvE_clEvE15qstring_literal@Base 4:15.08.1
 _ZZZNK15CalendarSupport12CalPrintYear9groupNameEvENKUlvE_clEvE15qstring_literal@Base 4:15.08.0
 _ZZZNK15CalendarSupport15CalPrintJournal9groupNameEvENKUlvE_clEvE15qstring_literal@Base 4:15.08.0
 _ZZZNK15CalendarSupport17CalPrintIncidence9groupNameEvENKUlvE_clEvE15qstring_literal@Base 4:15.08.0
 (c++)"non-virtual thunk to CalendarSupport::ArchiveDialog::~ArchiveDialog()@Base" 4:15.08.0
 (c++)"non-virtual thunk to CalendarSupport::IncidenceViewer::itemChanged(Akonadi::Item const&)@Base" 4:15.08.0
 (c++)"non-virtual thunk to CalendarSupport::IncidenceViewer::itemRemoved()@Base" 4:15.08.0
 (c++)"non-virtual thunk to CalendarSupport::IncidenceViewer::~IncidenceViewer()@Base" 4:15.08.0
 (c++)"non-virtual thunk to CalendarSupport::MessageWidget::~MessageWidget()@Base" 4:15.08.0
