# SymbolsHelper-Confirmed: 4:15.08.1 amd64 i386
libcomposereditorng.so.5 libcomposereditorng5 #MINVER#
 _ZN16ComposerEditorNG12ComposerView10wheelEventEP11QWheelEvent@Base 4:15.08.0
 _ZN16ComposerEditorNG12ComposerView11initialHtmlEv@Base 4:15.08.0
 _ZN16ComposerEditorNG12ComposerView11qt_metacallEN11QMetaObject4CallEiPPv@Base 4:15.08.0
 _ZN16ComposerEditorNG12ComposerView11qt_metacastEPKc@Base 4:15.08.0
 _ZN16ComposerEditorNG12ComposerView11showFindBarEv@Base 4:15.08.0
 _ZN16ComposerEditorNG12ComposerView13createActionsERK5QListINS0_18ComposerViewActionEE@Base 4:15.08.0
 _ZN16ComposerEditorNG12ComposerView13createToolBarERK5QListINS0_18ComposerViewActionEEP8KToolBar@Base 4:15.08.0
 _ZN16ComposerEditorNG12ComposerView13keyPressEventEP9QKeyEvent@Base 4:15.08.0
 _ZN16ComposerEditorNG12ComposerView14addExtraActionEP5QMenu@Base 4:15.08.0
 _ZN16ComposerEditorNG12ComposerView14setHtmlContentERK7QString@Base 4:15.08.0
 _ZN16ComposerEditorNG12ComposerView15mousePressEventEP11QMouseEvent@Base 4:15.08.0
 _ZN16ComposerEditorNG12ComposerView16contextMenuEventEP17QContextMenuEvent@Base 4:15.08.0
 _ZN16ComposerEditorNG12ComposerView16createAllActionsEv@Base 4:15.08.0
 _ZN16ComposerEditorNG12ComposerView16staticMetaObjectE@Base 4:15.08.0
 _ZN16ComposerEditorNG12ComposerView17setActionsEnabledEb@Base 4:15.08.0
 _ZN16ComposerEditorNG12ComposerView18evaluateJavascriptERK7QString@Base 4:15.08.0
 _ZN16ComposerEditorNG12ComposerView21mouseDoubleClickEventEP11QMouseEvent@Base 4:15.08.0
 _ZN16ComposerEditorNG12ComposerView35addCreatedActionsToActionCollectionEP17KActionCollection@Base 4:15.08.0
 _ZN16ComposerEditorNG12ComposerView8openLinkERK4QUrl@Base 4:15.08.0
 _ZN16ComposerEditorNG12ComposerViewC1EP7QWidget@Base 4:15.08.0
 _ZN16ComposerEditorNG12ComposerViewC2EP7QWidget@Base 4:15.08.0
 _ZN16ComposerEditorNG12ComposerViewD0Ev@Base 4:15.08.0
 _ZN16ComposerEditorNG12ComposerViewD1Ev@Base 4:15.08.0
 _ZN16ComposerEditorNG12ComposerViewD2Ev@Base 4:15.08.0
 _ZN16ComposerEditorNG13DomTreeWidget11qt_metacallEN11QMetaObject4CallEiPPv@Base 4:15.08.0
 _ZN16ComposerEditorNG13DomTreeWidget11qt_metacastEPKc@Base 4:15.08.0
 _ZN16ComposerEditorNG13DomTreeWidget16staticMetaObjectE@Base 4:15.08.0
 _ZN16ComposerEditorNG13DomTreeWidgetC1EP8QWebViewP7QWidget@Base 4:15.08.0
 _ZN16ComposerEditorNG13DomTreeWidgetC2EP8QWebViewP7QWidget@Base 4:15.08.0
 _ZN16ComposerEditorNG13DomTreeWidgetD0Ev@Base 4:15.08.0
 _ZN16ComposerEditorNG13DomTreeWidgetD1Ev@Base 4:15.08.0
 _ZN16ComposerEditorNG13DomTreeWidgetD2Ev@Base 4:15.08.0
 _ZN16ComposerEditorNG14ComposerEditor11qt_metacallEN11QMetaObject4CallEiPPv@Base 4:15.08.0
 _ZN16ComposerEditorNG14ComposerEditor11qt_metacastEPKc@Base 4:15.08.0
 _ZN16ComposerEditorNG14ComposerEditor11textChangedEv@Base 4:15.08.0
 _ZN16ComposerEditorNG14ComposerEditor13createActionsERK5QListINS_12ComposerView18ComposerViewActionEE@Base 4:15.08.0
 _ZN16ComposerEditorNG14ComposerEditor13createToolBarERK5QListINS_12ComposerView18ComposerViewActionEE@Base 4:15.08.0
 _ZN16ComposerEditorNG14ComposerEditor14setHtmlContentERK7QString@Base 4:15.08.0
 _ZN16ComposerEditorNG14ComposerEditor16createAllActionsEv@Base 4:15.08.0
 _ZN16ComposerEditorNG14ComposerEditor16staticMetaObjectE@Base 4:15.08.0
 _ZN16ComposerEditorNG14ComposerEditor17setEnableRichTextEb@Base 4:15.08.0
 _ZN16ComposerEditorNG14ComposerEditor18addActionInToolBarEP7QActionP8KToolBar@Base 4:15.08.0
 _ZN16ComposerEditorNG14ComposerEditor35addCreatedActionsToActionCollectionEP17KActionCollection@Base 4:15.08.0
 _ZN16ComposerEditorNG14ComposerEditor3cutEv@Base 4:15.08.0
 _ZN16ComposerEditorNG14ComposerEditor4copyEv@Base 4:15.08.0
 _ZN16ComposerEditorNG14ComposerEditor4redoEv@Base 4:15.08.0
 _ZN16ComposerEditorNG14ComposerEditor4undoEv@Base 4:15.08.0
 _ZN16ComposerEditorNG14ComposerEditor5pasteEv@Base 4:15.08.0
 _ZN16ComposerEditorNG14ComposerEditor6actionEN8QWebPage9WebActionE@Base 4:15.08.0
 _ZN16ComposerEditorNG14ComposerEditor8openLinkERK4QUrl@Base 4:15.08.0
 _ZN16ComposerEditorNG14ComposerEditorC1EP7QWidget@Base 4:15.08.0
 _ZN16ComposerEditorNG14ComposerEditorC1EPNS_12ComposerViewEP7QWidget@Base 4:15.08.0
 _ZN16ComposerEditorNG14ComposerEditorC2EP7QWidget@Base 4:15.08.0
 _ZN16ComposerEditorNG14ComposerEditorC2EPNS_12ComposerViewEP7QWidget@Base 4:15.08.0
 _ZN16ComposerEditorNG14ComposerEditorD0Ev@Base 4:15.08.0
 _ZN16ComposerEditorNG14ComposerEditorD1Ev@Base 4:15.08.0
 _ZN16ComposerEditorNG14ComposerEditorD2Ev@Base 4:15.08.0
 _ZN16ComposerEditorNG18GlobalSettingsBase4selfEv@Base 4:15.08.0
 _ZN16ComposerEditorNG18GlobalSettingsBaseC1Ev@Base 4:15.08.0
 _ZN16ComposerEditorNG18GlobalSettingsBaseC2Ev@Base 4:15.08.0
 _ZN16ComposerEditorNG18GlobalSettingsBaseD0Ev@Base 4:15.08.0
 _ZN16ComposerEditorNG18GlobalSettingsBaseD1Ev@Base 4:15.08.0
 _ZN16ComposerEditorNG18GlobalSettingsBaseD2Ev@Base 4:15.08.0
 _ZNK16ComposerEditorNG12ComposerView10metaObjectEv@Base 4:15.08.0
 _ZNK16ComposerEditorNG12ComposerView11localImagesEv@Base 4:15.08.0
 _ZNK16ComposerEditorNG12ComposerView6actionENS0_18ComposerViewActionE@Base 4:15.08.0
 _ZNK16ComposerEditorNG13DomTreeWidget10metaObjectEv@Base 4:15.08.0
 _ZNK16ComposerEditorNG14ComposerEditor10isModifiedEv@Base 4:15.08.0
 _ZNK16ComposerEditorNG14ComposerEditor10metaObjectEv@Base 4:15.08.0
 _ZNK16ComposerEditorNG14ComposerEditor11htmlContentEv@Base 4:15.08.0
 _ZNK16ComposerEditorNG14ComposerEditor11localImagesEv@Base 4:15.08.0
 _ZNK16ComposerEditorNG14ComposerEditor14enableRichTextEv@Base 4:15.08.0
 _ZNK16ComposerEditorNG14ComposerEditor16plainTextContentEv@Base 4:15.08.0
 _ZNK16ComposerEditorNG14ComposerEditor4viewEv@Base 4:15.08.0
 _ZNK16ComposerEditorNG14ComposerEditor8toolbarsEv@Base 4:15.08.0
 _ZTIN16ComposerEditorNG12ComposerViewE@Base 4:15.08.0
 _ZTIN16ComposerEditorNG13DomTreeWidgetE@Base 4:15.08.0
 _ZTIN16ComposerEditorNG14ComposerEditorE@Base 4:15.08.0
 _ZTIN16ComposerEditorNG18GlobalSettingsBaseE@Base 4:15.08.0
 _ZTSN16ComposerEditorNG12ComposerViewE@Base 4:15.08.0
 _ZTSN16ComposerEditorNG13DomTreeWidgetE@Base 4:15.08.0
 _ZTSN16ComposerEditorNG14ComposerEditorE@Base 4:15.08.0
 _ZTSN16ComposerEditorNG18GlobalSettingsBaseE@Base 4:15.08.0
 _ZTVN16ComposerEditorNG12ComposerViewE@Base 4:15.08.0
 _ZTVN16ComposerEditorNG13DomTreeWidgetE@Base 4:15.08.0
 _ZTVN16ComposerEditorNG14ComposerEditorE@Base 4:15.08.0
 _ZTVN16ComposerEditorNG18GlobalSettingsBaseE@Base 4:15.08.0
 _ZZZN16ComposerEditorNG18GlobalSettingsBase20setAutoSpellCheckingEbENKUlvE_clEvE15qstring_literal@Base 4:15.08.1
 (c++)"non-virtual thunk to ComposerEditorNG::ComposerEditor::~ComposerEditor()@Base" 4:15.08.0
 (c++)"non-virtual thunk to ComposerEditorNG::ComposerView::~ComposerView()@Base" 4:15.08.0
 (c++)"non-virtual thunk to ComposerEditorNG::DomTreeWidget::~DomTreeWidget()@Base" 4:15.08.0
