# SymbolsHelper-Confirmed: 4:15.08.0 amd64
libeventviews.so.5 libeventviews5 #MINVER#
 _ZN10EventViews10AgendaItem10expandLeftEi@Base 4:15.08.0
 _ZN10EventViews10AgendaItem10paintEventEP11QPaintEvent@Base 4:15.08.0
 _ZN10EventViews10AgendaItem10paintIconsEP8QPainterRiii@Base 4:15.08.0
 _ZN10EventViews10AgendaItem11addAttendeeERK7QString@Base 4:15.08.0
 _ZN10EventViews10AgendaItem11eventFilterEP7QObjectP6QEvent@Base 4:15.08.0
 _ZN10EventViews10AgendaItem11expandRightEi@Base 4:15.08.0
 _ZN10EventViews10AgendaItem11qt_metacallEN11QMetaObject4CallEiPPv@Base 4:15.08.0
 _ZN10EventViews10AgendaItem11qt_metacastEPKc@Base 4:15.08.0
 _ZN10EventViews10AgendaItem11updateIconsEv@Base 4:15.08.0
 _ZN10EventViews10AgendaItem12expandBottomEi@Base 4:15.08.0
 _ZN10EventViews10AgendaItem12moveRelativeEii@Base 4:15.08.0
 _ZN10EventViews10AgendaItem12readonlyPxmpE@Base 4:15.08.0
 _ZN10EventViews10AgendaItem12setIncidenceERK14QSharedPointerIN8KCalCore9IncidenceEE@Base 4:15.08.0
 _ZN10EventViews10AgendaItem12setMultiItemERK8QPointerIS0_ES4_S4_S4_@Base 4:15.08.0
 _ZN10EventViews10AgendaItem13conflictItemsEv@Base 4:15.08.0
 _ZN10EventViews10AgendaItem13groupPxmpTentE@Base 4:15.08.0
 _ZN10EventViews10AgendaItem13organizerPxmpE@Base 4:15.08.0
 _ZN10EventViews10AgendaItem13setCellXRightEi@Base 4:15.08.0
 _ZN10EventViews10AgendaItem14appendMoveItemERK8QPointerIS0_E@Base 4:15.08.0
 _ZN10EventViews10AgendaItem14dragEnterEventEP15QDragEnterEvent@Base 4:15.08.0
 _ZN10EventViews10AgendaItem14endMovePrivateEv@Base 4:15.08.0
 _ZN10EventViews10AgendaItem14removeMoveItemERK8QPointerIS0_E@Base 4:15.08.0
 _ZN10EventViews10AgendaItem14showAgendaItemERK8QPointerIS0_E@Base 4:15.08.0
 _ZN10EventViews10AgendaItem15addConflictItemERK8QPointerIS0_E@Base 4:15.08.0
 _ZN10EventViews10AgendaItem15drawRoundedRectEP8QPainterRK5QRectbRK6QColorbibb@Base 4:15.08.0
 _ZN10EventViews10AgendaItem15prependMoveItemERK8QPointerIS0_E@Base 4:15.08.0
 _ZN10EventViews10AgendaItem16removeAgendaItemERK8QPointerIS0_E@Base 4:15.08.0
 _ZN10EventViews10AgendaItem16resetMovePrivateEv@Base 4:15.08.0
 _ZN10EventViews10AgendaItem16setConflictItemsERK5QListI8QPointerIS0_EE@Base 4:15.08.0
 _ZN10EventViews10AgendaItem16startMovePrivateEv@Base 4:15.08.0
 _ZN10EventViews10AgendaItem16staticMetaObjectE@Base 4:15.08.0
 _ZN10EventViews10AgendaItem21setOccurrenceDateTimeERK9KDateTime@Base 4:15.08.0
 _ZN10EventViews10AgendaItem23dissociateFromMultiItemEv@Base 4:15.08.0
 _ZN10EventViews10AgendaItem5eventEP6QEvent@Base 4:15.08.0
 _ZN10EventViews10AgendaItem6selectEb@Base 4:15.08.0
 _ZN10EventViews10AgendaItem7endMoveEv@Base 4:15.08.0
 _ZN10EventViews10AgendaItem8setCellXEii@Base 4:15.08.0
 _ZN10EventViews10AgendaItem8setCellYEii@Base 4:15.08.0
 _ZN10EventViews10AgendaItem9alarmPxmpE@Base 4:15.08.0
 _ZN10EventViews10AgendaItem9dropEventEP10QDropEvent@Base 4:15.08.0
 _ZN10EventViews10AgendaItem9eventPxmpE@Base 4:15.08.0
 _ZN10EventViews10AgendaItem9expandTopEib@Base 4:15.08.0
 _ZN10EventViews10AgendaItem9groupPxmpE@Base 4:15.08.0
 _ZN10EventViews10AgendaItem9paintIconEP8QPainterRiii@Base 4:15.08.0
 _ZN10EventViews10AgendaItem9recurPxmpE@Base 4:15.08.0
 _ZN10EventViews10AgendaItem9replyPxmpE@Base 4:15.08.0
 _ZN10EventViews10AgendaItem9resetMoveEv@Base 4:15.08.0
 _ZN10EventViews10AgendaItem9setCellXYEiii@Base 4:15.08.0
 _ZN10EventViews10AgendaItem9startMoveEv@Base 4:15.08.0
 _ZN10EventViews10AgendaItemC1EPNS_9EventViewERK14QSharedPointerINS_17MultiViewCalendarEERKS3_IN8KCalCore9IncidenceEEiiRK9KDateTimebP7QWidget@Base 4:15.08.0
 _ZN10EventViews10AgendaItemC2EPNS_9EventViewERK14QSharedPointerINS_17MultiViewCalendarEERKS3_IN8KCalCore9IncidenceEEiiRK9KDateTimebP7QWidget@Base 4:15.08.0
 _ZN10EventViews10AgendaItemD0Ev@Base 4:15.08.0
 _ZN10EventViews10AgendaItemD1Ev@Base 4:15.08.0
 _ZN10EventViews10AgendaItemD2Ev@Base 4:15.08.0
 _ZN10EventViews10AgendaView10fillAgendaEv@Base 4:15.08.0
 _ZN10EventViews10AgendaView10setChangesE6QFlagsINS_9EventView6ChangeEE@Base 4:15.08.0
 _ZN10EventViews10AgendaView10updateViewEv@Base 4:15.08.0
 _ZN10EventViews10AgendaView11addCalendarERK14QSharedPointerINS_12ViewCalendarEE@Base 4:15.08.0
 _ZN10EventViews10AgendaView11qt_metacallEN11QMetaObject4CallEiPPv@Base 4:15.08.0
 _ZN10EventViews10AgendaView11qt_metacastEPKc@Base 4:15.08.0
 _ZN10EventViews10AgendaView11resizeEventEP12QResizeEvent@Base 4:15.08.0
 _ZN10EventViews10AgendaView11setCalendarERK14QSharedPointerIN7Akonadi11ETMCalendarEE@Base 4:15.08.0
 _ZN10EventViews10AgendaView12alignAgendasEv@Base 4:15.08.0
 _ZN10EventViews10AgendaView12readSettingsEPK7KConfig@Base 4:15.08.0
 _ZN10EventViews10AgendaView12readSettingsEv@Base 4:15.08.0
 _ZN10EventViews10AgendaView12updateConfigEv@Base 4:15.08.0
 _ZN10EventViews10AgendaView13connectAgendaEPNS_6AgendaES2_@Base 4:15.08.0
 _ZN10EventViews10AgendaView13writeSettingsEP7KConfig@Base 4:15.08.0
 _ZN10EventViews10AgendaView14clearSelectionEv@Base 4:15.08.0
 _ZN10EventViews10AgendaView14showIncidencesERK7QVectorIN7Akonadi4ItemEERK5QDate@Base 4:15.08.0
 _ZN10EventViews10AgendaView15createDayLabelsEb@Base 4:15.08.0
 _ZN10EventViews10AgendaView15loadDecorationsERK11QStringListR5QListIPNS_18CalendarDecoration10DecorationEE@Base 4:15.08.0
 _ZN10EventViews10AgendaView15removeIncidenceERK14QSharedPointerIN8KCalCore9IncidenceEE@Base 4:15.08.0
 _ZN10EventViews10AgendaView15setHolidayMasksEv@Base 4:15.08.0
 _ZN10EventViews10AgendaView16displayIncidenceERK14QSharedPointerIN8KCalCore9IncidenceEEb@Base 4:15.08.0
 _ZN10EventViews10AgendaView16placeDecorationsER5QListIPNS_18CalendarDecoration10DecorationEERK5QDateP5KHBoxb@Base 4:15.08.0
 _ZN10EventViews10AgendaView16staticMetaObjectE@Base 4:15.08.0
 _ZN10EventViews10AgendaView16updateEventDatesEPNS_10AgendaItemEbx@Base 4:15.08.0
 _ZN10EventViews10AgendaView16zoomInVerticallyEv@Base 4:15.08.0
 _ZN10EventViews10AgendaView17slotEditIncidenceERK14QSharedPointerIN8KCalCore9IncidenceEE@Base 4:15.08.0
 _ZN10EventViews10AgendaView17slotShowIncidenceERK14QSharedPointerIN8KCalCore9IncidenceEE@Base 4:15.08.0
 _ZN10EventViews10AgendaView17zoomOutVerticallyEv@Base 4:15.08.0
 _ZN10EventViews10AgendaView18enableAgendaUpdateEb@Base 4:15.08.0
 _ZN10EventViews10AgendaView18updateTimeBarWidthEv@Base 4:15.08.0
 _ZN10EventViews10AgendaView18zoomInHorizontallyERK5QDate@Base 4:15.08.0
 _ZN10EventViews10AgendaView19newTimeSpanSelectedERK6QPointS3_@Base 4:15.08.0
 _ZN10EventViews10AgendaView19setIncidenceChangerEPN7Akonadi16IncidenceChangerE@Base 4:15.08.0
 _ZN10EventViews10AgendaView19slotDeleteIncidenceERK14QSharedPointerIN8KCalCore9IncidenceEE@Base 4:15.08.0
 _ZN10EventViews10AgendaView19updateDayLabelSizesEv@Base 4:15.08.0
 _ZN10EventViews10AgendaView19zoomOutHorizontallyERK5QDate@Base 4:15.08.0
 _ZN10EventViews10AgendaView20createTimeBarHeadersEv@Base 4:15.08.0
 _ZN10EventViews10AgendaView20zoomViewHorizontallyERK5QDatei@Base 4:15.08.0
 _ZN10EventViews10AgendaView21placeDecorationsFrameEP5KHBoxbb@Base 4:15.08.0
 _ZN10EventViews10AgendaView21slotIncidenceSelectedERK14QSharedPointerIN8KCalCore9IncidenceEERK5QDate@Base 4:15.08.0
 _ZN10EventViews10AgendaView21slotIncidencesDroppedERK5QListI4QUrlERK6QPointb@Base 4:15.08.0
 _ZN10EventViews10AgendaView21slotIncidencesDroppedERK7QVectorI14QSharedPointerIN8KCalCore9IncidenceEEERK6QPointb@Base 4:15.08.0
 _ZN10EventViews10AgendaView21updateEventIndicatorsEv@Base 4:15.08.0
 _ZN10EventViews10AgendaView22clearTimeSpanSelectionEv@Base 4:15.08.0
 _ZN10EventViews10AgendaView22deleteSelectedDateTimeEv@Base 4:15.08.0
 _ZN10EventViews10AgendaView22slotShowIncidencePopupERK14QSharedPointerIN8KCalCore9IncidenceEERK5QDate@Base 4:15.08.0
 _ZN10EventViews10AgendaView23showNewEventPopupSignalEv@Base 4:15.08.0
 _ZN10EventViews10AgendaView23updateEventIndicatorTopEi@Base 4:15.08.0
 _ZN10EventViews10AgendaView24showIncidencePopupSignalERKN7Akonadi4ItemERK5QDate@Base 4:15.08.0
 _ZN10EventViews10AgendaView24timeSpanSelectionChangedEv@Base 4:15.08.0
 _ZN10EventViews10AgendaView25newTimeSpanSelectedAllDayERK6QPointS3_@Base 4:15.08.0
 _ZN10EventViews10AgendaView26updateEventIndicatorBottomEi@Base 4:15.08.0
 _ZN10EventViews10AgendaView27filterByCollectionSelectionERK14QSharedPointerIN8KCalCore9IncidenceEE@Base 4:15.08.0
 _ZN10EventViews10AgendaView29scheduleUpdateEventIndicatorsEv@Base 4:15.08.0
 _ZN10EventViews10AgendaView4initERK5QDateS3_@Base 4:15.08.0
 _ZN10EventViews10AgendaView7Private10setChangesE6QFlagsINS_9EventView6ChangeEERK14QSharedPointerIN8KCalCore9IncidenceEE@Base 4:15.08.0
 _ZN10EventViews10AgendaView7Private13changeColumnsEi@Base 4:15.08.0
 _ZN10EventViews10AgendaView7Private15insertIncidenceERK14QSharedPointerIN8KCalCore9IncidenceEERK9KDateTimeSA_b@Base 4:15.08.0
 _ZN10EventViews10AgendaView7Private16generateDateListERK5QDateS4_@Base 4:15.08.0
 _ZN10EventViews10AgendaView7Private19reevaluateIncidenceERK14QSharedPointerIN8KCalCore9IncidenceEE@Base 4:15.08.0
 _ZN10EventViews10AgendaView7Private22calendarIncidenceAddedERK14QSharedPointerIN8KCalCore9IncidenceEE@Base 4:15.08.0
 _ZN10EventViews10AgendaView7Private22loadCalendarDecorationERK7QString@Base 4:15.08.0
 _ZN10EventViews10AgendaView7Private24calendarIncidenceChangedERK14QSharedPointerIN8KCalCore9IncidenceEE@Base 4:15.08.0
 _ZN10EventViews10AgendaView7Private24calendarIncidenceDeletedERK14QSharedPointerIN8KCalCore9IncidenceEE@Base 4:15.08.0
 _ZN10EventViews10AgendaView7Private9clearViewEv@Base 4:15.08.0
 _ZN10EventViews10AgendaView8zoomViewEiRK6QPointN2Qt11OrientationE@Base 4:15.08.0
 _ZN10EventViews10AgendaView9showDatesERK5QDateS3_S3_@Base 4:15.08.0
 _ZN10EventViews10AgendaView9startDragERK14QSharedPointerIN8KCalCore9IncidenceEE@Base 4:15.08.0
 _ZN10EventViews10AgendaView9startDragERKN7Akonadi4ItemE@Base 4:15.08.0
 _ZN10EventViews10AgendaViewC1ERK5QDateS3_bbP7QWidget@Base 4:15.08.0
 _ZN10EventViews10AgendaViewC1ERKN5boost10shared_ptrINS_5PrefsEEERK5QDateS9_bbP7QWidget@Base 4:15.08.0
 _ZN10EventViews10AgendaViewC2ERK5QDateS3_bbP7QWidget@Base 4:15.08.0
 _ZN10EventViews10AgendaViewC2ERKN5boost10shared_ptrINS_5PrefsEEERK5QDateS9_bbP7QWidget@Base 4:15.08.0
 _ZN10EventViews10AgendaViewD0Ev@Base 4:15.08.0
 _ZN10EventViews10AgendaViewD1Ev@Base 4:15.08.0
 _ZN10EventViews10AgendaViewD2Ev@Base 4:15.08.0
 _ZN10EventViews10MonthScene10itemHeightEv@Base 4:15.08.0
 _ZN10EventViews10MonthScene10selectItemEPNS_9MonthItemE@Base 4:15.08.0
 _ZN10EventViews10MonthScene10timerEventEP11QTimerEvent@Base 4:15.08.0
 _ZN10EventViews10MonthScene10wheelEventEP24QGraphicsSceneWheelEvent@Base 4:15.08.0
 _ZN10EventViews10MonthScene11lastItemFitEPNS_9MonthCellE@Base 4:15.08.0
 _ZN10EventViews10MonthScene11maxRowCountEv@Base 4:15.08.0
 _ZN10EventViews10MonthScene11qt_metacallEN11QMetaObject4CallEiPPv@Base 4:15.08.0
 _ZN10EventViews10MonthScene11qt_metacastEPKc@Base 4:15.08.0
 _ZN10EventViews10MonthScene11totalHeightEv@Base 4:15.08.0
 _ZN10EventViews10MonthScene13scrollCellsUpEv@Base 4:15.08.0
 _ZN10EventViews10MonthScene14getCellFromPosERK7QPointF@Base 4:15.08.0
 _ZN10EventViews10MonthScene14mouseMoveEventEP24QGraphicsSceneMouseEvent@Base 4:15.08.0
 _ZN10EventViews10MonthScene14newEventSignalEv@Base 4:15.08.0
 _ZN10EventViews10MonthScene14updateGeometryEv@Base 4:15.08.0
 _ZN10EventViews10MonthScene15mousePressEventEP24QGraphicsSceneMouseEvent@Base 4:15.08.0
 _ZN10EventViews10MonthScene15removeIncidenceERK7QString@Base 4:15.08.0
 _ZN10EventViews10MonthScene15scrollCellsDownEv@Base 4:15.08.0
 _ZN10EventViews10MonthScene16staticMetaObjectE@Base 4:15.08.0
 _ZN10EventViews10MonthScene17incidenceSelectedERKN7Akonadi4ItemERK5QDate@Base 4:15.08.0
 _ZN10EventViews10MonthScene17mouseReleaseEventEP24QGraphicsSceneMouseEvent@Base 4:15.08.0
 _ZN10EventViews10MonthScene18sceneXToMonthGridXEi@Base 4:15.08.0
 _ZN10EventViews10MonthScene18sceneYToMonthGridYEi@Base 4:15.08.0
 _ZN10EventViews10MonthScene21firstCellForMonthItemEPNS_9MonthItemE@Base 4:15.08.0
 _ZN10EventViews10MonthScene21mouseDoubleClickEventEP24QGraphicsSceneMouseEvent@Base 4:15.08.0
 _ZN10EventViews10MonthScene22clickOnScrollIndicatorEPNS_15ScrollIndicatorE@Base 4:15.08.0
 _ZN10EventViews10MonthScene23showNewEventPopupSignalEv@Base 4:15.08.0
 _ZN10EventViews10MonthScene24showIncidencePopupSignalERKN7Akonadi4ItemERK5QDate@Base 4:15.08.0
 _ZN10EventViews10MonthScene26itemHeightIncludingSpacingEv@Base 4:15.08.0
 _ZN10EventViews10MonthScene8resetAllEv@Base 4:15.08.0
 _ZN10EventViews10MonthScene9helpEventEP23QGraphicsSceneHelpEvent@Base 4:15.08.0
 _ZN10EventViews10MonthSceneC1EPNS_9MonthViewE@Base 4:15.08.0
 _ZN10EventViews10MonthSceneC2EPNS_9MonthViewE@Base 4:15.08.0
 _ZN10EventViews10MonthSceneD0Ev@Base 4:15.08.0
 _ZN10EventViews10MonthSceneD1Ev@Base 4:15.08.0
 _ZN10EventViews10MonthSceneD2Ev@Base 4:15.08.0
 _ZN10EventViews10TimeLabels10paintEventEP11QPaintEvent@Base 4:15.08.0
 _ZN10EventViews10TimeLabels11qt_metacallEN11QMetaObject4CallEiPPv@Base 4:15.08.0
 _ZN10EventViews10TimeLabels11qt_metacastEPKc@Base 4:15.08.0
 _ZN10EventViews10TimeLabels12hideMousePosEv@Base 4:15.08.0
 _ZN10EventViews10TimeLabels12showMousePosEv@Base 4:15.08.0
 _ZN10EventViews10TimeLabels12updateConfigEv@Base 4:15.08.0
 _ZN10EventViews10TimeLabels13colorMousePosEv@Base 4:15.08.0
 _ZN10EventViews10TimeLabels13setCellHeightEd@Base 4:15.08.0
 _ZN10EventViews10TimeLabels15mousePosChangedERK6QPoint@Base 4:15.08.0
 _ZN10EventViews10TimeLabels16contextMenuEventEP17QContextMenuEvent@Base 4:15.08.0
 _ZN10EventViews10TimeLabels16staticMetaObjectE@Base 4:15.08.0
 _ZN10EventViews10TimeLabels8timeSpecEv@Base 4:15.08.0
 _ZN10EventViews10TimeLabels9setAgendaEPNS_6AgendaE@Base 4:15.08.0
 _ZN10EventViews10TimeLabelsC1ERKN9KDateTime4SpecEiPNS_14TimeLabelsZoneE6QFlagsIN2Qt10WindowTypeEE@Base 4:15.08.0
 _ZN10EventViews10TimeLabelsC2ERKN9KDateTime4SpecEiPNS_14TimeLabelsZoneE6QFlagsIN2Qt10WindowTypeEE@Base 4:15.08.0
 _ZN10EventViews11JournalView10newJournalEv@Base 4:15.08.0
 _ZN10EventViews11JournalView10updateViewEv@Base 4:15.08.0
 _ZN10EventViews11JournalView11eventFilterEP7QObjectP6QEvent@Base 4:15.08.0
 _ZN10EventViews11JournalView11qt_metacallEN11QMetaObject4CallEiPPv@Base 4:15.08.0
 _ZN10EventViews11JournalView11qt_metacastEPKc@Base 4:15.08.0
 _ZN10EventViews11JournalView12clearEntriesEv@Base 4:15.08.0
 _ZN10EventViews11JournalView12flushEntriesEv@Base 4:15.08.0
 _ZN10EventViews11JournalView12printJournalERK14QSharedPointerIN8KCalCore7JournalEEb@Base 4:15.08.0
 _ZN10EventViews11JournalView13appendJournalERKN7Akonadi4ItemERK5QDate@Base 4:15.08.0
 _ZN10EventViews11JournalView13journalEditedERKN7Akonadi4ItemE@Base 4:15.08.0
 _ZN10EventViews11JournalView14journalDeletedERKN7Akonadi4ItemE@Base 4:15.08.0
 _ZN10EventViews11JournalView14showIncidencesERK7QVectorIN7Akonadi4ItemEERK5QDate@Base 4:15.08.0
 _ZN10EventViews11JournalView16staticMetaObjectE@Base 4:15.08.0
 _ZN10EventViews11JournalView19setIncidenceChangerEPN7Akonadi16IncidenceChangerE@Base 4:15.08.0
 _ZN10EventViews11JournalView22changeIncidenceDisplayERKN7Akonadi4ItemENS1_16IncidenceChanger10ChangeTypeE@Base 4:15.08.0
 _ZN10EventViews11JournalView25setIncidenceChangerSignalEPN7Akonadi16IncidenceChangerE@Base 4:15.08.0
 _ZN10EventViews11JournalView9flushViewEv@Base 4:15.08.0
 _ZN10EventViews11JournalView9showDatesERK5QDateS3_S3_@Base 4:15.08.0
 _ZN10EventViews11JournalViewC1EP7QWidget@Base 4:15.08.0
 _ZN10EventViews11JournalViewC2EP7QWidget@Base 4:15.08.0
 _ZN10EventViews11JournalViewD0Ev@Base 4:15.08.0
 _ZN10EventViews11JournalViewD1Ev@Base 4:15.08.0
 _ZN10EventViews11JournalViewD2Ev@Base 4:15.08.0
 _ZN10EventViews11MarcusBains11qt_metacallEN11QMetaObject4CallEiPPv@Base 4:15.08.0
 _ZN10EventViews11MarcusBains11qt_metacastEPKc@Base 4:15.08.0
 _ZN10EventViews11MarcusBains14updateLocationEv@Base 4:15.08.0
 _ZN10EventViews11MarcusBains16staticMetaObjectE@Base 4:15.08.0
 _ZN10EventViews11MarcusBains20updateLocationRecalcEb@Base 4:15.08.0
 _ZN10EventViews11MarcusBainsC1EPNS_9EventViewEPNS_6AgendaE@Base 4:15.08.0
 _ZN10EventViews11MarcusBainsC2EPNS_9EventViewEPNS_6AgendaE@Base 4:15.08.0
 _ZN10EventViews11MarcusBainsD0Ev@Base 4:15.08.0
 _ZN10EventViews11MarcusBainsD1Ev@Base 4:15.08.0
 _ZN10EventViews11MarcusBainsD2Ev@Base 4:15.08.0
 _ZN10EventViews12TimelineView10updateViewEv@Base 4:15.08.0
 _ZN10EventViews12TimelineView11eventFilterEP7QObjectP6QEvent@Base 4:15.08.0
 _ZN10EventViews12TimelineView11qt_metacallEN11QMetaObject4CallEiPPv@Base 4:15.08.0
 _ZN10EventViews12TimelineView11qt_metacastEPKc@Base 4:15.08.0
 _ZN10EventViews12TimelineView14showIncidencesERK7QVectorIN7Akonadi4ItemEERK5QDate@Base 4:15.08.0
 _ZN10EventViews12TimelineView16staticMetaObjectE@Base 4:15.08.0
 _ZN10EventViews12TimelineView22changeIncidenceDisplayERKN7Akonadi4ItemEi@Base 4:15.08.0
 _ZN10EventViews12TimelineView23showNewEventPopupSignalEv@Base 4:15.08.0
 _ZN10EventViews12TimelineView24showIncidencePopupSignalERKN7Akonadi4ItemERK5QDate@Base 4:15.08.0
 _ZN10EventViews12TimelineView7Private11itemChangedEP13QStandardItem@Base 4:15.08.0
 _ZN10EventViews12TimelineView7Private11qt_metacallEN11QMetaObject4CallEiPPv@Base 4:15.08.0
 _ZN10EventViews12TimelineView7Private11qt_metacastEPKc@Base 4:15.08.0
 _ZN10EventViews12TimelineView7Private12itemSelectedERK11QModelIndex@Base 4:15.08.0
 _ZN10EventViews12TimelineView7Private13splitterMovedEv@Base 4:15.08.0
 _ZN10EventViews12TimelineView7Private15insertIncidenceERKN7Akonadi4ItemE@Base 4:15.08.0
 _ZN10EventViews12TimelineView7Private15insertIncidenceERKN7Akonadi4ItemERK5QDate@Base 4:15.08.0
 _ZN10EventViews12TimelineView7Private15removeIncidenceERKN7Akonadi4ItemE@Base 4:15.08.0
 _ZN10EventViews12TimelineView7Private16newEventWithHintERK9QDateTime@Base 4:15.08.0
 _ZN10EventViews12TimelineView7Private16staticMetaObjectE@Base 4:15.08.0
 _ZN10EventViews12TimelineView7Private17itemDoubleClickedERK11QModelIndex@Base 4:15.08.0
 _ZN10EventViews12TimelineView7Private20contextMenuRequestedERK6QPoint@Base 4:15.08.0
 _ZN10EventViews12TimelineView7Private24calendarItemForIncidenceERKN7Akonadi4ItemE@Base 4:15.08.0
 _ZN10EventViews12TimelineView7PrivateC1EPS0_@Base 4:15.08.0
 _ZN10EventViews12TimelineView7PrivateC2EPS0_@Base 4:15.08.0
 _ZN10EventViews12TimelineView7PrivateD0Ev@Base 4:15.08.0
 _ZN10EventViews12TimelineView7PrivateD1Ev@Base 4:15.08.0
 _ZN10EventViews12TimelineView7PrivateD2Ev@Base 4:15.08.0
 _ZN10EventViews12TimelineView9showDatesERK5QDateS3_S3_@Base 4:15.08.0
 _ZN10EventViews12TimelineViewC1EP7QWidget@Base 4:15.08.0
 _ZN10EventViews12TimelineViewC2EP7QWidget@Base 4:15.08.0
 _ZN10EventViews12TimelineViewD0Ev@Base 4:15.08.0
 _ZN10EventViews12TimelineViewD1Ev@Base 4:15.08.0
 _ZN10EventViews12TimelineViewD2Ev@Base 4:15.08.0
 _ZN10EventViews12ViewCalendarD0Ev@Base 4:15.08.0
 _ZN10EventViews12ViewCalendarD1Ev@Base 4:15.08.0
 _ZN10EventViews12ViewCalendarD2Ev@Base 4:15.08.0
 _ZN10EventViews12getTextColorERK6QColor@Base 4:15.08.0
 _ZN10EventViews13TimeSpentView10updateViewEv@Base 4:15.08.0
 _ZN10EventViews13TimeSpentView11qt_metacallEN11QMetaObject4CallEiPPv@Base 4:15.08.0
 _ZN10EventViews13TimeSpentView11qt_metacastEPKc@Base 4:15.08.0
 _ZN10EventViews13TimeSpentView14showIncidencesERK7QVectorIN7Akonadi4ItemEERK5QDate@Base 4:15.08.0
 _ZN10EventViews13TimeSpentView16staticMetaObjectE@Base 4:15.08.0
 _ZN10EventViews13TimeSpentView22changeIncidenceDisplayERKN7Akonadi4ItemENS1_16IncidenceChanger10ChangeTypeE@Base 4:15.08.0
 _ZN10EventViews13TimeSpentView9showDatesERK5QDateS3_S3_@Base 4:15.08.0
 _ZN10EventViews13TimeSpentViewC1EP7QWidget@Base 4:15.08.0
 _ZN10EventViews13TimeSpentViewC2EP7QWidget@Base 4:15.08.0
 _ZN10EventViews13TimeSpentViewD0Ev@Base 4:15.08.0
 _ZN10EventViews13TimeSpentViewD1Ev@Base 4:15.08.0
 _ZN10EventViews13TimeSpentViewD2Ev@Base 4:15.08.0
 _ZN10EventViews13WhatsNextView10appendTodoERK14QSharedPointerIN8KCalCore9IncidenceEE@Base 4:15.08.0
 _ZN10EventViews13WhatsNextView10updateViewEv@Base 4:15.08.0
 _ZN10EventViews13WhatsNextView11appendEventERK14QSharedPointerIN8KCalCore9IncidenceEERK9QDateTimeS9_@Base 4:15.08.0
 _ZN10EventViews13WhatsNextView11qt_metacallEN11QMetaObject4CallEiPPv@Base 4:15.08.0
 _ZN10EventViews13WhatsNextView11qt_metacastEPKc@Base 4:15.08.0
 _ZN10EventViews13WhatsNextView13createTaskRowER11KIconLoader@Base 4:15.08.0
 _ZN10EventViews13WhatsNextView13showIncidenceERK7QString@Base 4:15.08.0
 _ZN10EventViews13WhatsNextView14showIncidencesERK7QVectorIN7Akonadi4ItemEERK5QDate@Base 4:15.08.0
 _ZN10EventViews13WhatsNextView16staticMetaObjectE@Base 4:15.08.0
 _ZN10EventViews13WhatsNextView22changeIncidenceDisplayERKN7Akonadi4ItemENS1_16IncidenceChanger10ChangeTypeE@Base 4:15.08.0
 _ZN10EventViews13WhatsNextView9showDatesERK5QDateS3_S3_@Base 4:15.08.0
 _ZN10EventViews13WhatsNextViewC1EP7QWidget@Base 4:15.08.0
 _ZN10EventViews13WhatsNextViewC2EP7QWidget@Base 4:15.08.0
 _ZN10EventViews13WhatsNextViewD0Ev@Base 4:15.08.0
 _ZN10EventViews13WhatsNextViewD1Ev@Base 4:15.08.0
 _ZN10EventViews13WhatsNextViewD2Ev@Base 4:15.08.0
 _ZN10EventViews13resourceColorERKN7Akonadi10CollectionERKN5boost10shared_ptrINS_5PrefsEEE@Base 4:15.08.0
 _ZN10EventViews13resourceColorERKN7Akonadi4ItemERKN5boost10shared_ptrINS_5PrefsEEE@Base 4:15.08.0
 _ZN10EventViews14AlternateLabel11qt_metacallEN11QMetaObject4CallEiPPv@Base 4:15.08.0
 _ZN10EventViews14AlternateLabel11qt_metacastEPKc@Base 4:15.08.0
 _ZN10EventViews14AlternateLabel11resizeEventEP12QResizeEvent@Base 4:15.08.0
 _ZN10EventViews14AlternateLabel11useLongTextEv@Base 4:15.08.0
 _ZN10EventViews14AlternateLabel12setFixedTypeENS0_8TextTypeE@Base 4:15.08.0
 _ZN10EventViews14AlternateLabel12useShortTextEv@Base 4:15.08.0
 _ZN10EventViews14AlternateLabel14useDefaultTextEv@Base 4:15.08.0
 _ZN10EventViews14AlternateLabel16staticMetaObjectE@Base 4:15.08.0
 _ZN10EventViews14AlternateLabel16useExtensiveTextEv@Base 4:15.08.0
 _ZN10EventViews14AlternateLabel18squeezeTextToLabelEv@Base 4:15.08.0
 _ZN10EventViews14AlternateLabelC1ERK7QStringS3_S3_P7QWidget@Base 4:15.08.0
 _ZN10EventViews14AlternateLabelC2ERK7QStringS3_S3_P7QWidget@Base 4:15.08.0
 _ZN10EventViews14AlternateLabelD0Ev@Base 4:15.08.0
 _ZN10EventViews14AlternateLabelD1Ev@Base 4:15.08.0
 _ZN10EventViews14AlternateLabelD2Ev@Base 4:15.08.0
 _ZN10EventViews14EventIndicator10paintEventEP11QPaintEvent@Base 4:15.08.0
 _ZN10EventViews14EventIndicator11eventFilterEP7QObjectP6QEvent@Base 4:15.08.0
 _ZN10EventViews14EventIndicator11qt_metacallEN11QMetaObject4CallEiPPv@Base 4:15.08.0
 _ZN10EventViews14EventIndicator11qt_metacastEPKc@Base 4:15.08.0
 _ZN10EventViews14EventIndicator12enableColumnEib@Base 4:15.08.0
 _ZN10EventViews14EventIndicator13changeColumnsEi@Base 4:15.08.0
 _ZN10EventViews14EventIndicator16staticMetaObjectE@Base 4:15.08.0
 _ZN10EventViews14EventIndicatorC1ENS0_8LocationEP7QWidget@Base 4:15.08.0
 _ZN10EventViews14EventIndicatorC2ENS0_8LocationEP7QWidget@Base 4:15.08.0
 _ZN10EventViews14EventIndicatorD0Ev@Base 4:15.08.0
 _ZN10EventViews14EventIndicatorD1Ev@Base 4:15.08.0
 _ZN10EventViews14EventIndicatorD2Ev@Base 4:15.08.0
 _ZN10EventViews14TimeLabelsZone11qt_metacallEN11QMetaObject4CallEiPPv@Base 4:15.08.0
 _ZN10EventViews14TimeLabelsZone11qt_metacastEPKc@Base 4:15.08.0
 _ZN10EventViews14TimeLabelsZone13addTimeLabelsERKN9KDateTime4SpecE@Base 4:15.08.0
 _ZN10EventViews14TimeLabelsZone13setAgendaViewEPNS_10AgendaViewE@Base 4:15.08.0
 _ZN10EventViews14TimeLabelsZone14setPreferencesERKN5boost10shared_ptrINS_5PrefsEEE@Base 4:15.08.0
 _ZN10EventViews14TimeLabelsZone14setupTimeLabelEP11QScrollArea@Base 4:15.08.0
 _ZN10EventViews14TimeLabelsZone16staticMetaObjectE@Base 4:15.08.0
 _ZN10EventViews14TimeLabelsZone24updateTimeLabelsPositionEv@Base 4:15.08.0
 _ZN10EventViews14TimeLabelsZone4initEv@Base 4:15.08.0
 _ZN10EventViews14TimeLabelsZone5resetEv@Base 4:15.08.0
 _ZN10EventViews14TimeLabelsZone9updateAllEv@Base 4:15.08.0
 _ZN10EventViews14TimeLabelsZoneC1EP7QWidgetRKN5boost10shared_ptrINS_5PrefsEEEPNS_6AgendaE@Base 4:15.08.0
 _ZN10EventViews14TimeLabelsZoneC2EP7QWidgetRKN5boost10shared_ptrINS_5PrefsEEEPNS_6AgendaE@Base 4:15.08.0
 _ZN10EventViews15DecorationLabel11qt_metacallEN11QMetaObject4CallEiPPv@Base 4:15.08.0
 _ZN10EventViews15DecorationLabel11qt_metacastEPKc@Base 4:15.08.0
 _ZN10EventViews15DecorationLabel11resizeEventEP12QResizeEvent@Base 4:15.08.0
 _ZN10EventViews15DecorationLabel11setLongTextERK7QString@Base 4:15.08.0
 _ZN10EventViews15DecorationLabel11useLongTextEb@Base 4:15.08.0
 _ZN10EventViews15DecorationLabel12setShortTextERK7QString@Base 4:15.08.0
 _ZN10EventViews15DecorationLabel12useShortTextEb@Base 4:15.08.0
 _ZN10EventViews15DecorationLabel14useDefaultTextEv@Base 4:15.08.0
 _ZN10EventViews15DecorationLabel16setExtensiveTextERK7QString@Base 4:15.08.0
 _ZN10EventViews15DecorationLabel16staticMetaObjectE@Base 4:15.08.0
 _ZN10EventViews15DecorationLabel16useExtensiveTextEb@Base 4:15.08.0
 _ZN10EventViews15DecorationLabel17mouseReleaseEventEP11QMouseEvent@Base 4:15.08.0
 _ZN10EventViews15DecorationLabel22squeezeContentsToLabelEv@Base 4:15.08.0
 _ZN10EventViews15DecorationLabel6setUrlERK4QUrl@Base 4:15.08.0
 _ZN10EventViews15DecorationLabel7setTextERK7QString@Base 4:15.08.0
 _ZN10EventViews15DecorationLabel9setPixmapERK7QPixmap@Base 4:15.08.0
 _ZN10EventViews15DecorationLabel9usePixmapEb@Base 4:15.08.0
 _ZN10EventViews15DecorationLabelC1EPNS_18CalendarDecoration7ElementEP7QWidget@Base 4:15.08.0
 _ZN10EventViews15DecorationLabelC1ERK7QStringS3_S3_RK7QPixmapRK4QUrlP7QWidget@Base 4:15.08.0
 _ZN10EventViews15DecorationLabelC2EPNS_18CalendarDecoration7ElementEP7QWidget@Base 4:15.08.0
 _ZN10EventViews15DecorationLabelC2ERK7QStringS3_S3_RK7QPixmapRK4QUrlP7QWidget@Base 4:15.08.0
 _ZN10EventViews15DecorationLabelD0Ev@Base 4:15.08.0
 _ZN10EventViews15DecorationLabelD1Ev@Base 4:15.08.0
 _ZN10EventViews15DecorationLabelD2Ev@Base 4:15.08.0
 _ZN10EventViews15MultiAgendaView10setChangesE6QFlagsINS_9EventView6ChangeEE@Base 4:15.08.0
 _ZN10EventViews15MultiAgendaView10updateViewEv@Base 4:15.08.0
 _ZN10EventViews15MultiAgendaView11qt_metacallEN11QMetaObject4CallEiPPv@Base 4:15.08.0
 _ZN10EventViews15MultiAgendaView11qt_metacastEPKc@Base 4:15.08.0
 _ZN10EventViews15MultiAgendaView11resizeEventEP12QResizeEvent@Base 4:15.08.0
 _ZN10EventViews15MultiAgendaView11setCalendarERK14QSharedPointerIN7Akonadi11ETMCalendarEE@Base 4:15.08.0
 _ZN10EventViews15MultiAgendaView12doSaveConfigER12KConfigGroup@Base 4:15.08.0
 _ZN10EventViews15MultiAgendaView12updateConfigEv@Base 4:15.08.0
 _ZN10EventViews15MultiAgendaView13recreateViewsEv@Base 4:15.08.0
 _ZN10EventViews15MultiAgendaView14setPreferencesERKN5boost10shared_ptrINS_5PrefsEEE@Base 4:15.08.0
 _ZN10EventViews15MultiAgendaView14setupScrollBarEv@Base 4:15.08.0
 _ZN10EventViews15MultiAgendaView14showIncidencesERK7QVectorIN7Akonadi4ItemEERK5QDate@Base 4:15.08.0
 _ZN10EventViews15MultiAgendaView15doRestoreConfigERK12KConfigGroup@Base 4:15.08.0
 _ZN10EventViews15MultiAgendaView15resizeSplittersEv@Base 4:15.08.0
 _ZN10EventViews15MultiAgendaView16staticMetaObjectE@Base 4:15.08.0
 _ZN10EventViews15MultiAgendaView18forceRecreateViewsEv@Base 4:15.08.0
 _ZN10EventViews15MultiAgendaView19setIncidenceChangerEPN7Akonadi16IncidenceChangerE@Base 4:15.08.0
 _ZN10EventViews15MultiAgendaView20slotResizeScrollViewEv@Base 4:15.08.0
 _ZN10EventViews15MultiAgendaView20slotSelectionChangedEv@Base 4:15.08.0
 _ZN10EventViews15MultiAgendaView23showNewEventPopupSignalEv@Base 4:15.08.0
 _ZN10EventViews15MultiAgendaView24customCollectionsChangedEPNS_21ConfigDialogInterfaceE@Base 4:15.08.0
 _ZN10EventViews15MultiAgendaView24showIncidencePopupSignalERKN7Akonadi4ItemERK5QDate@Base 4:15.08.0
 _ZN10EventViews15MultiAgendaView26collectionSelectionChangedEv@Base 4:15.08.0
 _ZN10EventViews15MultiAgendaView26slotClearTimeSpanSelectionEv@Base 4:15.08.0
 _ZN10EventViews15MultiAgendaView7Private10createViewERK7QString@Base 4:15.08.0
 _ZN10EventViews15MultiAgendaView7Private10setupViewsEv@Base 4:15.08.0
 _ZN10EventViews15MultiAgendaView7Private11deleteViewsEv@Base 4:15.08.0
 _ZN10EventViews15MultiAgendaView7Private16resizeScrollViewERK5QSize@Base 4:15.08.0
 _ZN10EventViews15MultiAgendaView7Private7addViewEP20KCheckableProxyModelRK7QString@Base 4:15.08.0
 _ZN10EventViews15MultiAgendaView7Private7addViewERKN7Akonadi10CollectionE@Base 4:15.08.0
 _ZN10EventViews15MultiAgendaView8zoomViewEiRK6QPointN2Qt11OrientationE@Base 4:15.08.0
 _ZN10EventViews15MultiAgendaView9showDatesERK5QDateS3_S3_@Base 4:15.08.0
 _ZN10EventViews15MultiAgendaView9showEventEP10QShowEvent@Base 4:15.08.0
 _ZN10EventViews15MultiAgendaViewC1EP7QWidget@Base 4:15.08.0
 _ZN10EventViews15MultiAgendaViewC2EP7QWidget@Base 4:15.08.0
 _ZN10EventViews15MultiAgendaViewD0Ev@Base 4:15.08.0
 _ZN10EventViews15MultiAgendaViewD1Ev@Base 4:15.08.0
 _ZN10EventViews15MultiAgendaViewD2Ev@Base 4:15.08.0
 _ZN10EventViews15ScrollIndicator5paintEP8QPainterPK24QStyleOptionGraphicsItemP7QWidget@Base 4:15.08.0
 _ZN10EventViews15ScrollIndicatorC1ENS0_14ArrowDirectionE@Base 4:15.08.0
 _ZN10EventViews15ScrollIndicatorC2ENS0_14ArrowDirectionE@Base 4:15.08.0
 _ZN10EventViews15cachedSmallIconERK7QString@Base 4:15.08.0
 _ZN10EventViews16AgendaScrollAreaC1EbPNS_10AgendaViewEbP7QWidget@Base 4:15.08.0
 _ZN10EventViews16AgendaScrollAreaC2EbPNS_10AgendaViewEbP7QWidget@Base 4:15.08.0
 _ZN10EventViews16AgendaScrollAreaD0Ev@Base 4:15.08.0
 _ZN10EventViews16AgendaScrollAreaD1Ev@Base 4:15.08.0
 _ZN10EventViews16AgendaScrollAreaD2Ev@Base 4:15.08.0
 _ZN10EventViews16HolidayMonthItem11qt_metacallEN11QMetaObject4CallEiPPv@Base 4:15.08.0
 _ZN10EventViews16HolidayMonthItem11qt_metacastEPKc@Base 4:15.08.0
 _ZN10EventViews16HolidayMonthItem12finalizeMoveERK5QDate@Base 4:15.08.0
 _ZN10EventViews16HolidayMonthItem14finalizeResizeERK5QDateS3_@Base 4:15.08.0
 _ZN10EventViews16HolidayMonthItem16staticMetaObjectE@Base 4:15.08.0
 _ZN10EventViews16HolidayMonthItemC1EPNS_10MonthSceneERK5QDateRK7QString@Base 4:15.08.0
 _ZN10EventViews16HolidayMonthItemC2EPNS_10MonthSceneERK5QDateRK7QString@Base 4:15.08.0
 _ZN10EventViews16HolidayMonthItemD0Ev@Base 4:15.08.0
 _ZN10EventViews16HolidayMonthItemD1Ev@Base 4:15.08.0
 _ZN10EventViews16HolidayMonthItemD2Ev@Base 4:15.08.0
 _ZN10EventViews17MonthGraphicsItem10setDaySpanEi@Base 4:15.08.0
 _ZN10EventViews17MonthGraphicsItem11qt_metacallEN11QMetaObject4CallEiPPv@Base 4:15.08.0
 _ZN10EventViews17MonthGraphicsItem11qt_metacastEPKc@Base 4:15.08.0
 _ZN10EventViews17MonthGraphicsItem12setStartDateERK5QDate@Base 4:15.08.0
 _ZN10EventViews17MonthGraphicsItem14updateGeometryEv@Base 4:15.08.0
 _ZN10EventViews17MonthGraphicsItem16staticMetaObjectE@Base 4:15.08.0
 _ZN10EventViews17MonthGraphicsItem5paintEP8QPainterPK24QStyleOptionGraphicsItemP7QWidget@Base 4:15.08.0
 _ZN10EventViews17MonthGraphicsItemC1EPNS_9MonthItemE@Base 4:15.08.0
 _ZN10EventViews17MonthGraphicsItemC2EPNS_9MonthItemE@Base 4:15.08.0
 _ZN10EventViews17MonthGraphicsItemD0Ev@Base 4:15.08.0
 _ZN10EventViews17MonthGraphicsItemD1Ev@Base 4:15.08.0
 _ZN10EventViews17MonthGraphicsItemD2Ev@Base 4:15.08.0
 _ZN10EventViews17MonthGraphicsView11resizeEventEP12QResizeEvent@Base 4:15.08.0
 _ZN10EventViews17MonthGraphicsView14drawBackgroundEP8QPainterRK6QRectF@Base 4:15.08.0
 _ZN10EventViews17MonthGraphicsView15setActionCursorENS_10MonthScene10ActionTypeE@Base 4:15.08.0
 _ZN10EventViews17MonthGraphicsView8setSceneEPNS_10MonthSceneE@Base 4:15.08.0
 _ZN10EventViews17MonthGraphicsViewC1EPNS_9MonthViewE@Base 4:15.08.0
 _ZN10EventViews17MonthGraphicsViewC2EPNS_9MonthViewE@Base 4:15.08.0
 _ZN10EventViews17MultiViewCalendar11addCalendarERK14QSharedPointerINS_12ViewCalendarEE@Base 4:15.08.0
 _ZN10EventViews17MultiViewCalendar14setETMCalendarERK14QSharedPointerIN7Akonadi11ETMCalendarEE@Base 4:15.08.0
 _ZN10EventViews17MultiViewCalendarD0Ev@Base 4:15.08.0
 _ZN10EventViews17MultiViewCalendarD1Ev@Base 4:15.08.0
 _ZN10EventViews17MultiViewCalendarD2Ev@Base 4:15.08.0
 _ZN10EventViews18CalendarDecoration10Decoration11dayElementsERK5QDate@Base 4:15.08.0
 _ZN10EventViews18CalendarDecoration10Decoration12weekElementsERK5QDate@Base 4:15.08.0
 _ZN10EventViews18CalendarDecoration10Decoration12yearElementsERK5QDate@Base 4:15.08.0
 _ZN10EventViews18CalendarDecoration10Decoration13monthElementsERK5QDate@Base 4:15.08.0
 _ZN10EventViews18CalendarDecoration10Decoration17createDayElementsERK5QDate@Base 4:15.08.0
 _ZN10EventViews18CalendarDecoration10Decoration18createWeekElementsERK5QDate@Base 4:15.08.0
 _ZN10EventViews18CalendarDecoration10Decoration18createYearElementsERK5QDate@Base 4:15.08.0
 _ZN10EventViews18CalendarDecoration10Decoration19createMonthElementsERK5QDate@Base 4:15.08.0
 _ZN10EventViews18CalendarDecoration10Decoration19registerDayElementsERK5QListIPNS0_7ElementEERK5QDate@Base 4:15.08.0
 _ZN10EventViews18CalendarDecoration10Decoration20registerWeekElementsERK5QListIPNS0_7ElementEERK5QDate@Base 4:15.08.0
 _ZN10EventViews18CalendarDecoration10Decoration20registerYearElementsERK5QListIPNS0_7ElementEERK5QDate@Base 4:15.08.0
 _ZN10EventViews18CalendarDecoration10Decoration21registerMonthElementsERK5QListIPNS0_7ElementEERK5QDate@Base 4:15.08.0
 _ZN10EventViews18CalendarDecoration10Decoration8weekDateERK5QDate@Base 4:15.08.0
 _ZN10EventViews18CalendarDecoration10Decoration8yearDateERK5QDate@Base 4:15.08.0
 _ZN10EventViews18CalendarDecoration10Decoration9monthDateERK5QDate@Base 4:15.08.0
 _ZN10EventViews18CalendarDecoration10DecorationC1Ev@Base 4:15.08.0
 _ZN10EventViews18CalendarDecoration10DecorationC2Ev@Base 4:15.08.0
 _ZN10EventViews18CalendarDecoration10DecorationD0Ev@Base 4:15.08.0
 _ZN10EventViews18CalendarDecoration10DecorationD1Ev@Base 4:15.08.0
 _ZN10EventViews18CalendarDecoration10DecorationD2Ev@Base 4:15.08.0
 _ZN10EventViews18CalendarDecoration13StoredElement11setLongTextERK7QString@Base 4:15.08.0
 _ZN10EventViews18CalendarDecoration13StoredElement12setShortTextERK7QString@Base 4:15.08.0
 _ZN10EventViews18CalendarDecoration13StoredElement13extensiveTextEv@Base 4:15.08.0
 _ZN10EventViews18CalendarDecoration13StoredElement16setExtensiveTextERK7QString@Base 4:15.08.0
 _ZN10EventViews18CalendarDecoration13StoredElement3urlEv@Base 4:15.08.0
 _ZN10EventViews18CalendarDecoration13StoredElement6pixmapEv@Base 4:15.08.0
 _ZN10EventViews18CalendarDecoration13StoredElement6setUrlERK4QUrl@Base 4:15.08.0
 _ZN10EventViews18CalendarDecoration13StoredElement8longTextEv@Base 4:15.08.0
 _ZN10EventViews18CalendarDecoration13StoredElement9setPixmapERK7QPixmap@Base 4:15.08.0
 _ZN10EventViews18CalendarDecoration13StoredElement9shortTextEv@Base 4:15.08.0
 _ZN10EventViews18CalendarDecoration13StoredElementC1ERK7QString@Base 4:15.08.0
 _ZN10EventViews18CalendarDecoration13StoredElementC1ERK7QStringRK7QPixmap@Base 4:15.08.0
 _ZN10EventViews18CalendarDecoration13StoredElementC1ERK7QStringS4_@Base 4:15.08.0
 _ZN10EventViews18CalendarDecoration13StoredElementC1ERK7QStringS4_S4_@Base 4:15.08.0
 _ZN10EventViews18CalendarDecoration13StoredElementC1ERK7QStringS4_S4_S4_@Base 4:15.08.0
 _ZN10EventViews18CalendarDecoration13StoredElementC2ERK7QString@Base 4:15.08.0
 _ZN10EventViews18CalendarDecoration13StoredElementC2ERK7QStringRK7QPixmap@Base 4:15.08.0
 _ZN10EventViews18CalendarDecoration13StoredElementC2ERK7QStringS4_@Base 4:15.08.0
 _ZN10EventViews18CalendarDecoration13StoredElementC2ERK7QStringS4_S4_@Base 4:15.08.0
 _ZN10EventViews18CalendarDecoration13StoredElementC2ERK7QStringS4_S4_S4_@Base 4:15.08.0
 _ZN10EventViews18CalendarDecoration7Element11qt_metacallEN11QMetaObject4CallEiPPv@Base 4:15.08.0
 _ZN10EventViews18CalendarDecoration7Element11qt_metacastEPKc@Base 4:15.08.0
 _ZN10EventViews18CalendarDecoration7Element13extensiveTextEv@Base 4:15.08.0
 _ZN10EventViews18CalendarDecoration7Element16staticMetaObjectE@Base 4:15.08.0
 _ZN10EventViews18CalendarDecoration7Element3urlEv@Base 4:15.08.0
 _ZN10EventViews18CalendarDecoration7Element8longTextEv@Base 4:15.08.0
 _ZN10EventViews18CalendarDecoration7Element9newPixmapERK5QSize@Base 4:15.08.0
 _ZN10EventViews18CalendarDecoration7Element9shortTextEv@Base 4:15.08.0
 _ZN10EventViews18CalendarDecoration7ElementC1ERK7QString@Base 4:15.08.0
 _ZN10EventViews18CalendarDecoration7ElementC2ERK7QString@Base 4:15.08.0
 _ZN10EventViews18CalendarDecoration7ElementD0Ev@Base 4:15.08.0
 _ZN10EventViews18CalendarDecoration7ElementD1Ev@Base 4:15.08.0
 _ZN10EventViews18CalendarDecoration7ElementD2Ev@Base 4:15.08.0
 _ZN10EventViews18IncidenceMonthItem11qt_metacallEN11QMetaObject4CallEiPPv@Base 4:15.08.0
 _ZN10EventViews18IncidenceMonthItem11qt_metacastEPKc@Base 4:15.08.0
 _ZN10EventViews18IncidenceMonthItem11setNewDatesERK14QSharedPointerIN8KCalCore9IncidenceEEii@Base 4:15.08.0
 _ZN10EventViews18IncidenceMonthItem11updateDatesEii@Base 4:15.08.0
 _ZN10EventViews18IncidenceMonthItem12finalizeMoveERK5QDate@Base 4:15.08.0
 _ZN10EventViews18IncidenceMonthItem14finalizeResizeERK5QDateS3_@Base 4:15.08.0
 _ZN10EventViews18IncidenceMonthItem15updateSelectionERKN7Akonadi4ItemERK5QDate@Base 4:15.08.0
 _ZN10EventViews18IncidenceMonthItem16staticMetaObjectE@Base 4:15.08.0
 _ZN10EventViews18IncidenceMonthItemC1EPNS_10MonthSceneERK14QSharedPointerIN7Akonadi11ETMCalendarEERKNS4_4ItemERKS3_IN8KCalCore9IncidenceEERK5QDate@Base 4:15.08.0
 _ZN10EventViews18IncidenceMonthItemC2EPNS_10MonthSceneERK14QSharedPointerIN7Akonadi11ETMCalendarEERKNS4_4ItemERKS3_IN8KCalCore9IncidenceEERK5QDate@Base 4:15.08.0
 _ZN10EventViews18IncidenceMonthItemD0Ev@Base 4:15.08.0
 _ZN10EventViews18IncidenceMonthItemD1Ev@Base 4:15.08.0
 _ZN10EventViews18IncidenceMonthItemD2Ev@Base 4:15.08.0
 _ZN10EventViews19AkonadiViewCalendarD0Ev@Base 4:15.08.0
 _ZN10EventViews19AkonadiViewCalendarD1Ev@Base 4:15.08.0
 _ZN10EventViews19AkonadiViewCalendarD2Ev@Base 4:15.08.0
 _ZN10EventViews21TimeScaleConfigDialog11qt_metacallEN11QMetaObject4CallEiPPv@Base 4:15.08.0
 _ZN10EventViews21TimeScaleConfigDialog11qt_metacastEPKc@Base 4:15.08.0
 _ZN10EventViews21TimeScaleConfigDialog16slotUpdateButtonEv@Base 4:15.08.0
 _ZN10EventViews21TimeScaleConfigDialog16staticMetaObjectE@Base 4:15.08.0
 _ZN10EventViews21TimeScaleConfigDialog2upEv@Base 4:15.08.0
 _ZN10EventViews21TimeScaleConfigDialog3addEv@Base 4:15.08.0
 _ZN10EventViews21TimeScaleConfigDialog4downEv@Base 4:15.08.0
 _ZN10EventViews21TimeScaleConfigDialog5zonesEv@Base 4:15.08.0
 _ZN10EventViews21TimeScaleConfigDialog6removeEv@Base 4:15.08.0
 _ZN10EventViews21TimeScaleConfigDialog9okClickedEv@Base 4:15.08.0
 _ZN10EventViews21TimeScaleConfigDialogC1ERKN5boost10shared_ptrINS_5PrefsEEEP7QWidget@Base 4:15.08.0
 _ZN10EventViews21TimeScaleConfigDialogC2ERKN5boost10shared_ptrINS_5PrefsEEEP7QWidget@Base 4:15.08.0
 _ZN10EventViews21TimeScaleConfigDialogD0Ev@Base 4:15.08.0
 _ZN10EventViews21TimeScaleConfigDialogD1Ev@Base 4:15.08.0
 _ZN10EventViews21TimeScaleConfigDialogD2Ev@Base 4:15.08.0
 _ZN10EventViews5Prefs10readConfigEv@Base 4:15.08.0
 _ZN10EventViews5Prefs11setHourSizeEi@Base 4:15.08.0
 _ZN10EventViews5Prefs11setTimeSpecERKN9KDateTime4SpecE@Base 4:15.08.0
 _ZN10EventViews5Prefs11writeConfigEv@Base 4:15.08.0
 _ZN10EventViews5Prefs12setDayBeginsERK9QDateTime@Base 4:15.08.0
 _ZN10EventViews5Prefs13resourceColorERK7QString@Base 4:15.08.0
 _ZN10EventViews5Prefs14createNewColorER6QColori@Base 4:15.08.0
 _ZN10EventViews5Prefs15setFlatListTodoEb@Base 4:15.08.0
 _ZN10EventViews5Prefs15setFullViewTodoEb@Base 4:15.08.0
 _ZN10EventViews5Prefs15setHolidayColorERK6QColor@Base 4:15.08.0
 _ZN10EventViews5Prefs16setFullViewMonthEb@Base 4:15.08.0
 _ZN10EventViews5Prefs16setMonthViewFontERK5QFont@Base 4:15.08.0
 _ZN10EventViews5Prefs16setResourceColorERK7QStringRK6QColor@Base 4:15.08.0
 _ZN10EventViews5Prefs17setAgendaViewFontERK5QFont@Base 4:15.08.0
 _ZN10EventViews5Prefs17setEnableToolTipsEb@Base 4:15.08.0
 _ZN10EventViews5Prefs17setHighlightTodosEb@Base 4:15.08.0
 _ZN10EventViews5Prefs17setMonthViewIconsERK4QSetINS_9EventView8ItemIconEE@Base 4:15.08.0
 _ZN10EventViews5Prefs18setAgendaViewIconsERK4QSetINS_9EventView8ItemIconEE@Base 4:15.08.0
 _ZN10EventViews5Prefs18setEnableQuickTodoEb@Base 4:15.08.0
 _ZN10EventViews5Prefs18setSelectedPluginsERK11QStringList@Base 4:15.08.0
 _ZN10EventViews5Prefs18setViewBgBusyColorERK6QColor@Base 4:15.08.0
 _ZN10EventViews5Prefs18setWorkingHoursEndERK9QDateTime@Base 4:15.08.0
 _ZN10EventViews5Prefs19setAgendaViewColorsEi@Base 4:15.08.0
 _ZN10EventViews5Prefs19setTodoOverdueColorERK6QColor@Base 4:15.08.0
 _ZN10EventViews5Prefs20setTodoDueTodayColorERK6QColor@Base 4:15.08.0
 _ZN10EventViews5Prefs20setWorkingHoursColorERK6QColor@Base 4:15.08.0
 _ZN10EventViews5Prefs20setWorkingHoursStartERK9QDateTime@Base 4:15.08.0
 _ZN10EventViews5Prefs21setColorMonthBusyDaysEb@Base 4:15.08.0
 _ZN10EventViews5Prefs21setMarcusBainsEnabledEb@Base 4:15.08.0
 _ZN10EventViews5Prefs21setShowTodosMonthViewEb@Base 4:15.08.0
 _ZN10EventViews5Prefs21setTimeScaleTimezonesERK11QStringList@Base 4:15.08.0
 _ZN10EventViews5Prefs22setColorAgendaBusyDaysEb@Base 4:15.08.0
 _ZN10EventViews5Prefs22setShowTimeInMonthViewEb@Base 4:15.08.0
 _ZN10EventViews5Prefs22setShowTodosAgendaViewEb@Base 4:15.08.0
 _ZN10EventViews5Prefs23setAgendaTimeLabelsFontERK5QFont@Base 4:15.08.0
 _ZN10EventViews5Prefs23setEnableMonthItemIconsEb@Base 4:15.08.0
 _ZN10EventViews5Prefs24setEnableAgendaItemIconsEb@Base 4:15.08.0
 _ZN10EventViews5Prefs24setEnableTodoQuickSearchEb@Base 4:15.08.0
 _ZN10EventViews5Prefs24setSelectionStartsEditorEb@Base 4:15.08.0
 _ZN10EventViews5Prefs24setShowJournalsMonthViewEb@Base 4:15.08.0
 _ZN10EventViews5Prefs25setMarcusBainsShowSecondsEb@Base 4:15.08.0
 _ZN10EventViews5Prefs25setTodosUseCategoryColorsEb@Base 4:15.08.0
 _ZN10EventViews5Prefs27setAgendaGridHighlightColorERK6QColor@Base 4:15.08.0
 _ZN10EventViews5Prefs27setMonthGridBackgroundColorERK6QColor@Base 4:15.08.0
 _ZN10EventViews5Prefs28setAgendaGridBackgroundColorERK6QColor@Base 4:15.08.0
 _ZN10EventViews5Prefs28setAgendaMarcusBainsLineFontERK5QFont@Base 4:15.08.0
 _ZN10EventViews5Prefs28setAgendaViewBackgroundColorERK6QColor@Base 4:15.08.0
 _ZN10EventViews5Prefs29setDecorationsAtAgendaViewTopERK11QStringList@Base 4:15.08.0
 _ZN10EventViews5Prefs31setSortCompletedTodosSeparatelyEb@Base 4:15.08.0
 _ZN10EventViews5Prefs32setDecorationsAtAgendaViewBottomERK11QStringList@Base 4:15.08.0
 _ZN10EventViews5Prefs33monthGridWorkHoursBackgroundColorERK6QColor@Base 4:15.08.0
 _ZN10EventViews5Prefs33setAgendaMarcusBainsLineLineColorERK6QColor@Base 4:15.08.0
 _ZN10EventViews5Prefs37setAgendaGridWorkHoursBackgroundColorERK6QColor@Base 4:15.08.0
 _ZN10EventViews5Prefs7Private11setDateTimeEPN19KCoreConfigSkeleton12ItemDateTimeERK9QDateTime@Base 4:15.08.0
 _ZN10EventViews5Prefs7Private13setStringListEPN19KCoreConfigSkeleton14ItemStringListERK11QStringList@Base 4:15.08.0
 _ZN10EventViews5Prefs7Private6setIntEPN19KCoreConfigSkeleton7ItemIntEi@Base 4:15.08.0
 _ZN10EventViews5Prefs7Private7setBoolEPN19KCoreConfigSkeleton8ItemBoolEb@Base 4:15.08.0
 _ZN10EventViews5Prefs7Private7setFontEPN15KConfigSkeleton8ItemFontERK5QFont@Base 4:15.08.0
 _ZN10EventViews5Prefs7Private8setColorEPN15KConfigSkeleton9ItemColorERK6QColor@Base 4:15.08.0
 _ZN10EventViews5Prefs7Private9setStringEPN19KCoreConfigSkeleton10ItemStringERK7QString@Base 4:15.08.0
 _ZN10EventViews5PrefsC1EP19KCoreConfigSkeleton@Base 4:15.08.0
 _ZN10EventViews5PrefsC1Ev@Base 4:15.08.0
 _ZN10EventViews5PrefsC2EP19KCoreConfigSkeleton@Base 4:15.08.0
 _ZN10EventViews5PrefsC2Ev@Base 4:15.08.0
 _ZN10EventViews5PrefsD1Ev@Base 4:15.08.0
 _ZN10EventViews5PrefsD2Ev@Base 4:15.08.0
 _ZN10EventViews6Agenda10insertItemERK14QSharedPointerIN8KCalCore9IncidenceEERK9KDateTimeiiiiib@Base 4:15.08.0
 _ZN10EventViews6Agenda10paintEventEP11QPaintEvent@Base 4:15.08.0
 _ZN10EventViews6Agenda10scrollDownEv@Base 4:15.08.0
 _ZN10EventViews6Agenda10selectItemERK8QPointerINS_10AgendaItemEE@Base 4:15.08.0
 _ZN10EventViews6Agenda10selectItemERKN7Akonadi4ItemE@Base 4:15.08.0
 _ZN10EventViews6Agenda11enterAgendaEv@Base 4:15.08.0
 _ZN10EventViews6Agenda11eventFilterEP7QObjectP6QEvent@Base 4:15.08.0
 _ZN10EventViews6Agenda11leaveAgendaEv@Base 4:15.08.0
 _ZN10EventViews6Agenda11qt_metacallEN11QMetaObject4CallEiPPv@Base 4:15.08.0
 _ZN10EventViews6Agenda11qt_metacastEPKc@Base 4:15.08.0
 _ZN10EventViews6Agenda11resizeEventEP12QResizeEvent@Base 4:15.08.0
 _ZN10EventViews6Agenda11setCalendarERK14QSharedPointerINS_17MultiViewCalendarEE@Base 4:15.08.0
 _ZN10EventViews6Agenda11setDateListERKN8KCalCore12SortableListI5QDateEE@Base 4:15.08.0
 _ZN10EventViews6Agenda12deselectItemEv@Base 4:15.08.0
 _ZN10EventViews6Agenda12drawContentsEP8QPainteriiii@Base 4:15.08.0
 _ZN10EventViews6Agenda12marcus_bainsEv@Base 4:15.08.0
 _ZN10EventViews6Agenda12setStartTimeERK5QTime@Base 4:15.08.0
 _ZN10EventViews6Agenda12updateConfigEv@Base 4:15.08.0
 _ZN10EventViews6Agenda13changeColumnsEi@Base 4:15.08.0
 _ZN10EventViews6Agenda13endItemActionEv@Base 4:15.08.0
 _ZN10EventViews6Agenda13keyPressEventEP9QKeyEvent@Base 4:15.08.0
 _ZN10EventViews6Agenda13lowerYChangedEi@Base 4:15.08.0
 _ZN10EventViews6Agenda13placeSubCellsERK8QPointerINS_10AgendaItemEE@Base 4:15.08.0
 _ZN10EventViews6Agenda13upperYChangedEi@Base 4:15.08.0
 _ZN10EventViews6Agenda14clearSelectionEv@Base 4:15.08.0
 _ZN10EventViews6Agenda14isInResizeAreaEbRK6QPointRK8QPointerINS_10AgendaItemEE@Base 4:15.08.0
 _ZN10EventViews6Agenda14mousePosSignalERK6QPoint@Base 4:15.08.0
 _ZN10EventViews6Agenda14newEventSignalEv@Base 4:15.08.0
 _ZN10EventViews6Agenda14setHolidayMaskEP7QVectorIbE@Base 4:15.08.0
 _ZN10EventViews6Agenda14showAgendaItemERK8QPointerINS_10AgendaItemEE@Base 4:15.08.0
 _ZN10EventViews6Agenda15endSelectActionERK6QPoint@Base 4:15.08.0
 _ZN10EventViews6Agenda15eventFilter_keyEP7QObjectP9QKeyEvent@Base 4:15.08.0
 _ZN10EventViews6Agenda15insertMultiItemERK14QSharedPointerIN8KCalCore9IncidenceEERK9KDateTimeiiiib@Base 4:15.08.0
 _ZN10EventViews6Agenda15placeAgendaItemERK8QPointerINS_10AgendaItemEEd@Base 4:15.08.0
 _ZN10EventViews6Agenda15removeIncidenceERK14QSharedPointerIN8KCalCore9IncidenceEE@Base 4:15.08.0
 _ZN10EventViews6Agenda15setActionCursorEib@Base 4:15.08.0
 _ZN10EventViews6Agenda15startDragSignalERK14QSharedPointerIN8KCalCore9IncidenceEE@Base 4:15.08.0
 _ZN10EventViews6Agenda15startItemActionERK6QPoint@Base 4:15.08.0
 _ZN10EventViews6Agenda16calcSubCellWidthERK8QPointerINS_10AgendaItemEE@Base 4:15.08.0
 _ZN10EventViews6Agenda16createAgendaItemERK14QSharedPointerIN8KCalCore9IncidenceEEiiRK9KDateTimeb@Base 4:15.08.0
 _ZN10EventViews6Agenda16eventFilter_dragEP7QObjectP10QDropEvent@Base 4:15.08.0
 _ZN10EventViews6Agenda16insertAllDayItemERK14QSharedPointerIN8KCalCore9IncidenceEERK9KDateTimeiib@Base 4:15.08.0
 _ZN10EventViews6Agenda16removeAgendaItemERK8QPointerINS_10AgendaItemEE@Base 4:15.08.0
 _ZN10EventViews6Agenda16staticMetaObjectE@Base 4:15.08.0
 _ZN10EventViews6Agenda17droppedIncidencesERK5QListI4QUrlERK6QPointb@Base 4:15.08.0
 _ZN10EventViews6Agenda17droppedIncidencesERK7QVectorI14QSharedPointerIN8KCalCore9IncidenceEEERK6QPointb@Base 4:15.08.0
 _ZN10EventViews6Agenda17eventFilter_mouseEP7QObjectP11QMouseEvent@Base 4:15.08.0
 _ZN10EventViews6Agenda17eventFilter_wheelEP7QObjectP11QWheelEvent@Base 4:15.08.0
 _ZN10EventViews6Agenda17incidenceSelectedERK14QSharedPointerIN8KCalCore9IncidenceEERK5QDate@Base 4:15.08.0
 _ZN10EventViews6Agenda17newTimeSpanSignalERK6QPointS3_@Base 4:15.08.0
 _ZN10EventViews6Agenda17performItemActionERK6QPoint@Base 4:15.08.0
 _ZN10EventViews6Agenda17resizeAllContentsEv@Base 4:15.08.0
 _ZN10EventViews6Agenda17setNoActionCursorERK8QPointerINS_10AgendaItemEERK6QPoint@Base 4:15.08.0
 _ZN10EventViews6Agenda17startSelectActionERK6QPoint@Base 4:15.08.0
 _ZN10EventViews6Agenda18adjustItemPositionERK8QPointerINS_10AgendaItemEE@Base 4:15.08.0
 _ZN10EventViews6Agenda18enableAgendaUpdateEb@Base 4:15.08.0
 _ZN10EventViews6Agenda19deleteItemsToDeleteEv@Base 4:15.08.0
 _ZN10EventViews6Agenda19editIncidenceSignalERK14QSharedPointerIN8KCalCore9IncidenceEE@Base 4:15.08.0
 _ZN10EventViews6Agenda19gridSpacingYChangedEd@Base 4:15.08.0
 _ZN10EventViews6Agenda19performSelectActionERK6QPoint@Base 4:15.08.0
 _ZN10EventViews6Agenda19setIncidenceChangerEPN7Akonadi16IncidenceChangerE@Base 4:15.08.0
 _ZN10EventViews6Agenda19showIncidenceSignalERK14QSharedPointerIN8KCalCore9IncidenceEE@Base 4:15.08.0
 _ZN10EventViews6Agenda20newStartSelectSignalEv@Base 4:15.08.0
 _ZN10EventViews6Agenda20selectIncidenceByUidERK7QString@Base 4:15.08.0
 _ZN10EventViews6Agenda21calculateWorkingHoursEv@Base 4:15.08.0
 _ZN10EventViews6Agenda21checkScrollBoundariesEi@Base 4:15.08.0
 _ZN10EventViews6Agenda21checkScrollBoundariesEv@Base 4:15.08.0
 _ZN10EventViews6Agenda21deleteIncidenceSignalERK14QSharedPointerIN8KCalCore9IncidenceEE@Base 4:15.08.0
 _ZN10EventViews6Agenda23contentsMousePressEventEP11QMouseEvent@Base 4:15.08.0
 _ZN10EventViews6Agenda23showNewEventPopupSignalEv@Base 4:15.08.0
 _ZN10EventViews6Agenda24showIncidencePopupSignalERK14QSharedPointerIN8KCalCore9IncidenceEERK5QDate@Base 4:15.08.0
 _ZN10EventViews6Agenda4initEv@Base 4:15.08.0
 _ZN10EventViews6Agenda5clearEv@Base 4:15.08.0
 _ZN10EventViews6Agenda8scrollUpEv@Base 4:15.08.0
 _ZN10EventViews6Agenda8zoomViewEiRK6QPointN2Qt11OrientationE@Base 4:15.08.0
 _ZN10EventViews6AgendaC1EPNS_10AgendaViewEP11QScrollAreaib@Base 4:15.08.0
 _ZN10EventViews6AgendaC1EPNS_10AgendaViewEP11QScrollAreaiiib@Base 4:15.08.0
 _ZN10EventViews6AgendaC2EPNS_10AgendaViewEP11QScrollAreaib@Base 4:15.08.0
 _ZN10EventViews6AgendaC2EPNS_10AgendaViewEP11QScrollAreaiiib@Base 4:15.08.0
 _ZN10EventViews6AgendaD0Ev@Base 4:15.08.0
 _ZN10EventViews6AgendaD1Ev@Base 4:15.08.0
 _ZN10EventViews6AgendaD2Ev@Base 4:15.08.0
 _ZN10EventViews8ListView10updateViewEv@Base 4:15.08.0
 _ZN10EventViews8ListView11qt_metacallEN11QMetaObject4CallEiPPv@Base 4:15.08.0
 _ZN10EventViews8ListView11qt_metacastEPKc@Base 4:15.08.0
 _ZN10EventViews8ListView12readSettingsEP7KConfig@Base 4:15.08.0
 _ZN10EventViews8ListView13writeSettingsEP7KConfig@Base 4:15.08.0
 _ZN10EventViews8ListView14clearSelectionEv@Base 4:15.08.0
 _ZN10EventViews8ListView14showIncidencesERK7QVectorIN7Akonadi4ItemEERK5QDate@Base 4:15.08.0
 _ZN10EventViews8ListView16staticMetaObjectE@Base 4:15.08.0
 _ZN10EventViews8ListView17defaultItemActionERK11QModelIndex@Base 4:15.08.0
 _ZN10EventViews8ListView17defaultItemActionEx@Base 4:15.08.0
 _ZN10EventViews8ListView22changeIncidenceDisplayERKN7Akonadi4ItemEi@Base 4:15.08.0
 _ZN10EventViews8ListView22processSelectionChangeEv@Base 4:15.08.0
 _ZN10EventViews8ListView23showNewEventPopupSignalEv@Base 4:15.08.0
 _ZN10EventViews8ListView24showIncidencePopupSignalERKN7Akonadi4ItemERK5QDate@Base 4:15.08.0
 _ZN10EventViews8ListView5clearEv@Base 4:15.08.0
 _ZN10EventViews8ListView7Private12addIncidenceERK14QSharedPointerIN7Akonadi11ETMCalendarEERKNS3_4ItemERK5QDate@Base 4:15.08.0
 _ZN10EventViews8ListView7Private12addIncidenceERK14QSharedPointerIN7Akonadi11ETMCalendarEERKS2_IN8KCalCore9IncidenceEERK5QDate@Base 4:15.08.0
 _ZN10EventViews8ListView7Private13addIncidencesERK14QSharedPointerIN7Akonadi11ETMCalendarEERK7QVectorIS2_IN8KCalCore9IncidenceEEERK5QDate@Base 4:15.08.0
 _ZN10EventViews8ListView7Private15ListItemVisitor5visitERK14QSharedPointerIN8KCalCore4TodoEE@Base 4:15.08.0
 _ZN10EventViews8ListView7Private15ListItemVisitor5visitERK14QSharedPointerIN8KCalCore5EventEE@Base 4:15.08.0
 _ZN10EventViews8ListView7Private15ListItemVisitor5visitERK14QSharedPointerIN8KCalCore7JournalEE@Base 4:15.08.0
 _ZN10EventViews8ListView7Private19getItemForIncidenceERKN7Akonadi4ItemE@Base 4:15.08.0
 _ZN10EventViews8ListView7showAllEv@Base 4:15.08.0
 _ZN10EventViews8ListView9popupMenuERK6QPoint@Base 4:15.08.0
 _ZN10EventViews8ListView9showDatesERK5QDateS3_S3_@Base 4:15.08.0
 _ZN10EventViews8ListViewC1ERK14QSharedPointerIN7Akonadi11ETMCalendarEEP7QWidgetb@Base 4:15.08.0
 _ZN10EventViews8ListViewC2ERK14QSharedPointerIN7Akonadi11ETMCalendarEEP7QWidgetb@Base 4:15.08.0
 _ZN10EventViews8ListViewD0Ev@Base 4:15.08.0
 _ZN10EventViews8ListViewD1Ev@Base 4:15.08.0
 _ZN10EventViews8ListViewD2Ev@Base 4:15.08.0
 _ZN10EventViews8TodoView10createNoteERKN7Akonadi4ItemE@Base 4:15.08.0
 _ZN10EventViews8TodoView10createNoteEv@Base 4:15.08.0
 _ZN10EventViews8TodoView10deleteTodoEv@Base 4:15.08.0
 _ZN10EventViews8TodoView10newSubTodoEv@Base 4:15.08.0
 _ZN10EventViews8TodoView10setNewDateERK5QDate@Base 4:15.08.0
 _ZN10EventViews8TodoView10updateViewEv@Base 4:15.08.0
 _ZN10EventViews8TodoView11contextMenuERK6QPoint@Base 4:15.08.0
 _ZN10EventViews8TodoView11createEventERKN7Akonadi4ItemE@Base 4:15.08.0
 _ZN10EventViews8TodoView11createEventEv@Base 4:15.08.0
 _ZN10EventViews8TodoView11expandIndexERK11QModelIndex@Base 4:15.08.0
 _ZN10EventViews8TodoView11qt_metacallEN11QMetaObject4CallEiPPv@Base 4:15.08.0
 _ZN10EventViews8TodoView11qt_metacastEPKc@Base 4:15.08.0
 _ZN10EventViews8TodoView11resizeEventEP12QResizeEvent@Base 4:15.08.0
 _ZN10EventViews8TodoView11setCalendarERK14QSharedPointerIN7Akonadi11ETMCalendarEE@Base 4:15.08.0
 _ZN10EventViews8TodoView11setFlatViewEbb@Base 4:15.08.0
 _ZN10EventViews8TodoView11setFullViewEb@Base 4:15.08.0
 _ZN10EventViews8TodoView12addQuickTodoE6QFlagsIN2Qt16KeyboardModifierEE@Base 4:15.08.0
 _ZN10EventViews8TodoView12updateConfigEv@Base 4:15.08.0
 _ZN10EventViews8TodoView13configChangedEv@Base 4:15.08.0
 _ZN10EventViews8TodoView13onTagsFetchedEP4KJob@Base 4:15.08.0
 _ZN10EventViews8TodoView13resizeColumnsEv@Base 4:15.08.0
 _ZN10EventViews8TodoView13restoreLayoutEP7KConfigRK7QStringb@Base 4:15.08.0
 _ZN10EventViews8TodoView13saveViewStateEv@Base 4:15.08.0
 _ZN10EventViews8TodoView14clearSelectionEv@Base 4:15.08.0
 _ZN10EventViews8TodoView14copyTodoToDateERK5QDate@Base 4:15.08.0
 _ZN10EventViews8TodoView14onRowsInsertedERK11QModelIndexii@Base 4:15.08.0
 _ZN10EventViews8TodoView14setNewPriorityEP7QAction@Base 4:15.08.0
 _ZN10EventViews8TodoView14showIncidencesERK7QVectorIN7Akonadi4ItemEERK5QDate@Base 4:15.08.0
 _ZN10EventViews8TodoView14usesFullWindowEv@Base 4:15.08.0
 _ZN10EventViews8TodoView15fullViewChangedEb@Base 4:15.08.0
 _ZN10EventViews8TodoView15unSubTodoSignalEv@Base 4:15.08.0
 _ZN10EventViews8TodoView16getHighlightModeERbS1_S1_@Base 4:15.08.0
 _ZN10EventViews8TodoView16printPreviewTodoEv@Base 4:15.08.0
 _ZN10EventViews8TodoView16restoreViewStateEv@Base 4:15.08.0
 _ZN10EventViews8TodoView16selectionChangedERK14QItemSelectionS3_@Base 4:15.08.0
 _ZN10EventViews8TodoView16setNewPercentageEP7QAction@Base 4:15.08.0
 _ZN10EventViews8TodoView16staticMetaObjectE@Base 4:15.08.0
 _ZN10EventViews8TodoView17changedCategoriesEP7QAction@Base 4:15.08.0
 _ZN10EventViews8TodoView17itemDoubleClickedERK11QModelIndex@Base 4:15.08.0
 _ZN10EventViews8TodoView18unAllSubTodoSignalEv@Base 4:15.08.0
 _ZN10EventViews8TodoView19setIncidenceChangerEPN7Akonadi16IncidenceChangerE@Base 4:15.08.0
 _ZN10EventViews8TodoView20purgeCompletedSignalEv@Base 4:15.08.0
 _ZN10EventViews8TodoView21scheduleResizeColumnsEv@Base 4:15.08.0
 _ZN10EventViews8TodoView22changeIncidenceDisplayERKN7Akonadi4ItemENS1_16IncidenceChanger10ChangeTypeE@Base 4:15.08.0
 _ZN10EventViews8TodoView23createCategoryPopupMenuEv@Base 4:15.08.0
 _ZN10EventViews8TodoView7addTodoERK7QStringRKN7Akonadi4ItemERK11QStringList@Base 4:15.08.0
 _ZN10EventViews8TodoView7newTodoEv@Base 4:15.08.0
 _ZN10EventViews8TodoView8editTodoEv@Base 4:15.08.0
 _ZN10EventViews8TodoView8showTodoEv@Base 4:15.08.0
 _ZN10EventViews8TodoView9printTodoEv@Base 4:15.08.0
 _ZN10EventViews8TodoView9showDatesERK5QDateS3_S3_@Base 4:15.08.0
 _ZN10EventViews8TodoViewC1ERKN5boost10shared_ptrINS_5PrefsEEEbP7QWidget@Base 4:15.08.0
 _ZN10EventViews8TodoViewC2ERKN5boost10shared_ptrINS_5PrefsEEEbP7QWidget@Base 4:15.08.0
 _ZN10EventViews8TodoViewD0Ev@Base 4:15.08.0
 _ZN10EventViews8TodoViewD1Ev@Base 4:15.08.0
 _ZN10EventViews8TodoViewD2Ev@Base 4:15.08.0
 _ZN10EventViews8yearDiffERK5QDateS2_@Base 4:15.08.0
 _ZN10EventViews9EventView10saveConfigER12KConfigGroup@Base 4:15.08.0
 _ZN10EventViews9EventView10setChangesE6QFlagsINS0_6ChangeEE@Base 4:15.08.0
 _ZN10EventViews9EventView11iconForItemERKN7Akonadi4ItemE@Base 4:15.08.0
 _ZN10EventViews9EventView11qt_metacallEN11QMetaObject4CallEiPPv@Base 4:15.08.0
 _ZN10EventViews9EventView11qt_metacastEPKc@Base 4:15.08.0
 _ZN10EventViews9EventView11setCalendarERK14QSharedPointerIN7Akonadi11ETMCalendarEE@Base 4:15.08.0
 _ZN10EventViews9EventView12doSaveConfigER12KConfigGroup@Base 4:15.08.0
 _ZN10EventViews9EventView12focusChangedEP7QWidgetS2_@Base 4:15.08.0
 _ZN10EventViews9EventView12setDateRangeERK9KDateTimeS3_RK5QDate@Base 4:15.08.0
 _ZN10EventViews9EventView12shiftedEventERK5QDateS3_@Base 4:15.08.0
 _ZN10EventViews9EventView12updateConfigEv@Base 4:15.08.0
 _ZN10EventViews9EventView13calendarResetEv@Base 4:15.08.0
 _ZN10EventViews9EventView13datesSelectedERKN8KCalCore12SortableListI5QDateEE@Base 4:15.08.0
 _ZN10EventViews9EventView13defaultActionERKN7Akonadi4ItemE@Base 4:15.08.0
 _ZN10EventViews9EventView13newTodoSignalERK5QDate@Base 4:15.08.0
 _ZN10EventViews9EventView13restoreConfigERK12KConfigGroup@Base 4:15.08.0
 _ZN10EventViews9EventView13setIdentifierERK10QByteArray@Base 4:15.08.0
 _ZN10EventViews9EventView14clearSelectionEv@Base 4:15.08.0
 _ZN10EventViews9EventView14itemFrameColorERK6QColorb@Base 4:15.08.0
 _ZN10EventViews9EventView14newEventSignalERK5QDate@Base 4:15.08.0
 _ZN10EventViews9EventView14newEventSignalERK9QDateTime@Base 4:15.08.0
 _ZN10EventViews9EventView14newEventSignalERK9QDateTimeS3_@Base 4:15.08.0
 _ZN10EventViews9EventView14newEventSignalEv@Base 4:15.08.0
 _ZN10EventViews9EventView14setPreferencesERKN5boost10shared_ptrINS_5PrefsEEE@Base 4:15.08.0
 _ZN10EventViews9EventView15doRestoreConfigERK12KConfigGroup@Base 4:15.08.0
 _ZN10EventViews9EventView15processKeyEventEP9QKeyEvent@Base 4:15.08.0
 _ZN10EventViews9EventView15setCollectionIdEx@Base 4:15.08.0
 _ZN10EventViews9EventView16newJournalSignalERK5QDate@Base 4:15.08.0
 _ZN10EventViews9EventView16newSubTodoSignalERKN7Akonadi4ItemE@Base 4:15.08.0
 _ZN10EventViews9EventView16setHolidayRegionERKN5boost10shared_ptrIN9KHolidays13HolidayRegionEEE@Base 4:15.08.0
 _ZN10EventViews9EventView16staticMetaObjectE@Base 4:15.08.0
 _ZN10EventViews9EventView17incidenceSelectedERKN7Akonadi4ItemE5QDate@Base 4:15.08.0
 _ZN10EventViews9EventView17toggleAlarmSignalERKN7Akonadi4ItemE@Base 4:15.08.0
 _ZN10EventViews9EventView18cutIncidenceSignalERKN7Akonadi4ItemE@Base 4:15.08.0
 _ZN10EventViews9EventView18handleBackendErrorERK7QString@Base 4:15.08.0
 _ZN10EventViews9EventView18setKCalPreferencesERKN5boost10shared_ptrIN15CalendarSupport9KCalPrefsEEE@Base 4:15.08.0
 _ZN10EventViews9EventView19copyIncidenceSignalERKN7Akonadi4ItemE@Base 4:15.08.0
 _ZN10EventViews9EventView19editIncidenceSignalERKN7Akonadi4ItemE@Base 4:15.08.0
 _ZN10EventViews9EventView19onCollectionChangedERKN7Akonadi10CollectionERK4QSetI10QByteArrayE@Base 4:15.08.0
 _ZN10EventViews9EventView19setIncidenceChangerEPN7Akonadi16IncidenceChangerE@Base 4:15.08.0
 _ZN10EventViews9EventView19showIncidenceSignalERKN7Akonadi4ItemE@Base 4:15.08.0
 _ZN10EventViews9EventView19showMoveRecurDialogERK14QSharedPointerIN8KCalCore9IncidenceEERK5QDate@Base 4:15.08.0
 _ZN10EventViews9EventView20pasteIncidenceSignalEv@Base 4:15.08.0
 _ZN10EventViews9EventView20setTypeAheadReceiverEP7QObject@Base 4:15.08.0
 _ZN10EventViews9EventView21deleteIncidenceSignalERKN7Akonadi4ItemE@Base 4:15.08.0
 _ZN10EventViews9EventView23showConfigurationDialogEP7QWidget@Base 4:15.08.0
 _ZN10EventViews9EventView25globalCollectionSelectionEv@Base 4:15.08.0
 _ZN10EventViews9EventView25toggleTodoCompletedSignalERKN7Akonadi4ItemE@Base 4:15.08.0
 _ZN10EventViews9EventView27dissociateOccurrencesSignalERKN7Akonadi4ItemERK5QDate@Base 4:15.08.0
 _ZN10EventViews9EventView28setDateRangeSelectionEnabledEb@Base 4:15.08.0
 _ZN10EventViews9EventView28setGlobalCollectionSelectionEPN15CalendarSupport19CollectionSelectionE@Base 4:15.08.0
 _ZN10EventViews9EventView29copyIncidenceToResourceSignalERKN7Akonadi4ItemERKNS1_10CollectionE@Base 4:15.08.0
 _ZN10EventViews9EventView29moveIncidenceToResourceSignalERKN7Akonadi4ItemERKNS1_10CollectionE@Base 4:15.08.0
 _ZN10EventViews9EventView38setCustomCollectionSelectionProxyModelEP20KCheckableProxyModel@Base 4:15.08.0
 _ZN10EventViews9EventView39takeCustomCollectionSelectionProxyModelEv@Base 4:15.08.0
 _ZN10EventViews9EventView6viewAtERK6QPoint@Base 4:15.08.0
 _ZN10EventViews9EventView9dayPassedERK5QDate@Base 4:15.08.0
 _ZN10EventViews9EventView9flushViewEv@Base 4:15.08.0
 _ZN10EventViews9EventViewC1EP7QWidget@Base 4:15.08.0
 _ZN10EventViews9EventViewC2EP7QWidget@Base 4:15.08.0
 _ZN10EventViews9EventViewD0Ev@Base 4:15.08.0
 _ZN10EventViews9EventViewD1Ev@Base 4:15.08.0
 _ZN10EventViews9EventViewD2Ev@Base 4:15.08.0
 _ZN10EventViews9MonthCell12addMonthItemEPNS_9MonthItemEi@Base 4:15.08.0
 _ZN10EventViews9MonthCell13hasEventBelowEi@Base 4:15.08.0
 _ZN10EventViews9MonthCell14firstFreeSpaceEv@Base 4:15.08.0
 _ZN10EventViews9MonthCell9topMarginEv@Base 4:15.08.0
 _ZN10EventViews9MonthCellC1EiRK5QDateP14QGraphicsScene@Base 4:15.08.0
 _ZN10EventViews9MonthCellC2EiRK5QDateP14QGraphicsScene@Base 4:15.08.0
 _ZN10EventViews9MonthCellD1Ev@Base 4:15.08.0
 _ZN10EventViews9MonthCellD2Ev@Base 4:15.08.0
 _ZN10EventViews9MonthItem11beginResizeEv@Base 4:15.08.0
 _ZN10EventViews9MonthItem11greaterThanEPKS0_S2_@Base 4:15.08.0
 _ZN10EventViews9MonthItem11qt_metacallEN11QMetaObject4CallEiPPv@Base 4:15.08.0
 _ZN10EventViews9MonthItem11qt_metacastEPKc@Base 4:15.08.0
 _ZN10EventViews9MonthItem14updateGeometryEv@Base 4:15.08.0
 _ZN10EventViews9MonthItem14updatePositionEv@Base 4:15.08.0
 _ZN10EventViews9MonthItem16staticMetaObjectE@Base 4:15.08.0
 _ZN10EventViews9MonthItem24updateMonthGraphicsItemsEv@Base 4:15.08.0
 _ZN10EventViews9MonthItem6moveByEi@Base 4:15.08.0
 _ZN10EventViews9MonthItem7endMoveEv@Base 4:15.08.0
 _ZN10EventViews9MonthItem8resizeByEi@Base 4:15.08.0
 _ZN10EventViews9MonthItem9beginMoveEv@Base 4:15.08.0
 _ZN10EventViews9MonthItem9deleteAllEv@Base 4:15.08.0
 _ZN10EventViews9MonthItem9endResizeEv@Base 4:15.08.0
 _ZN10EventViews9MonthItem9setZValueEd@Base 4:15.08.0
 _ZN10EventViews9MonthItemC1EPNS_10MonthSceneE@Base 4:15.08.0
 _ZN10EventViews9MonthItemC2EPNS_10MonthSceneE@Base 4:15.08.0
 _ZN10EventViews9MonthItemD0Ev@Base 4:15.08.0
 _ZN10EventViews9MonthItemD1Ev@Base 4:15.08.0
 _ZN10EventViews9MonthItemD2Ev@Base 4:15.08.0
 _ZN10EventViews9MonthView10updateViewEv@Base 4:15.08.0
 _ZN10EventViews9MonthView10wheelEventEP11QWheelEvent@Base 4:15.08.0
 _ZN10EventViews9MonthView11moveFwdWeekEv@Base 4:15.08.0
 _ZN10EventViews9MonthView11qt_metacallEN11QMetaObject4CallEiPPv@Base 4:15.08.0
 _ZN10EventViews9MonthView11qt_metacastEPKc@Base 4:15.08.0
 _ZN10EventViews9MonthView11setCalendarERK14QSharedPointerIN7Akonadi11ETMCalendarEE@Base 4:15.08.0
 _ZN10EventViews9MonthView12moveBackWeekEv@Base 4:15.08.0
 _ZN10EventViews9MonthView12moveFwdMonthEv@Base 4:15.08.0
 _ZN10EventViews9MonthView12setDateRangeERK9KDateTimeS3_RK5QDate@Base 4:15.08.0
 _ZN10EventViews9MonthView12updateConfigEv@Base 4:15.08.0
 _ZN10EventViews9MonthView13calendarResetEv@Base 4:15.08.0
 _ZN10EventViews9MonthView13keyPressEventEP9QKeyEvent@Base 4:15.08.0
 _ZN10EventViews9MonthView13moveBackMonthEv@Base 4:15.08.0
 _ZN10EventViews9MonthView14changeFullViewEv@Base 4:15.08.0
 _ZN10EventViews9MonthView14showIncidencesERK7QVectorIN7Akonadi4ItemEERK5QDate@Base 4:15.08.0
 _ZN10EventViews9MonthView14usesFullWindowEv@Base 4:15.08.0
 _ZN10EventViews9MonthView15fullViewChangedEb@Base 4:15.08.0
 _ZN10EventViews9MonthView15keyReleaseEventEP9QKeyEvent@Base 4:15.08.0
 _ZN10EventViews9MonthView16reloadIncidencesEv@Base 4:15.08.0
 _ZN10EventViews9MonthView16staticMetaObjectE@Base 4:15.08.0
 _ZN10EventViews9MonthView22changeIncidenceDisplayERKN7Akonadi4ItemEi@Base 4:15.08.0
 _ZN10EventViews9MonthView23showNewEventPopupSignalEv@Base 4:15.08.0
 _ZN10EventViews9MonthView24showIncidencePopupSignalERKN7Akonadi4ItemERK5QDate@Base 4:15.08.0
 _ZN10EventViews9MonthView9showDatesERK5QDateS3_S3_@Base 4:15.08.0
 _ZN10EventViews9MonthViewC1ENS0_20NavButtonsVisibilityEP7QWidget@Base 4:15.08.0
 _ZN10EventViews9MonthViewC2ENS0_20NavButtonsVisibilityEP7QWidget@Base 4:15.08.0
 _ZN10EventViews9MonthViewD0Ev@Base 4:15.08.0
 _ZN10EventViews9MonthViewD1Ev@Base 4:15.08.0
 _ZN10EventViews9MonthViewD2Ev@Base 4:15.08.0
 (optional=templinst)_ZN12KConfigGroup10writeEntryI10QByteArrayEEvPKcRKT_6QFlagsIN11KConfigBase15WriteConfigFlagEE@Base 4:15.08.0
 (optional=templinst)_ZN12KConfigGroup10writeEntryIiEEvPKcRK5QListIT_E6QFlagsIN11KConfigBase15WriteConfigFlagEE@Base 4:15.08.0
 (optional=templinst)_ZN12KConfigGroup10writeEntryIiEEvPKcRKT_6QFlagsIN11KConfigBase15WriteConfigFlagEE@Base 4:15.08.0
 (optional=templinst)_ZN7Akonadi4Item14setPayloadImplI14QSharedPointerIN8KCalCore9IncidenceEEEENSt9enable_ifIXntsrNS_8Internal12PayloadTraitIT_EE13isPolymorphicEvE4typeERKS9_@Base 4:15.08.0
 _ZNK10EventViews10AgendaItem10cellHeightEv@Base 4:15.08.0
 _ZNK10EventViews10AgendaItem10metaObjectEv@Base 4:15.08.0
 _ZNK10EventViews10AgendaItem11isMultiItemEv@Base 4:15.08.0
 _ZNK10EventViews10AgendaItem14occurrenceDateEv@Base 4:15.08.0
 _ZNK10EventViews10AgendaItem5labelEv@Base 4:15.08.0
 _ZNK10EventViews10AgendaItem8overlapsEPN15CalendarSupport8CellItemE@Base 4:15.08.0
 _ZNK10EventViews10AgendaItem9cellWidthEv@Base 4:15.08.0
 _ZNK10EventViews10AgendaView10metaObjectEv@Base 4:15.08.0
 _ZNK10EventViews10AgendaView11busyDayMaskEv@Base 4:15.08.0
 _ZNK10EventViews10AgendaView12allDayAgendaEv@Base 4:15.08.0
 _ZNK10EventViews10AgendaView12selectionEndEv@Base 4:15.08.0
 _ZNK10EventViews10AgendaView14selectionStartEv@Base 4:15.08.0
 _ZNK10EventViews10AgendaView16currentDateCountEv@Base 4:15.08.0
 _ZNK10EventViews10AgendaView16selectedIsAllDayEv@Base 4:15.08.0
 _ZNK10EventViews10AgendaView17eventDurationHintER9QDateTimeS2_Rb@Base 4:15.08.0
 _ZNK10EventViews10AgendaView18selectedIncidencesEv@Base 4:15.08.0
 _ZNK10EventViews10AgendaView20selectedIsSingleCellEv@Base 4:15.08.0
 _ZNK10EventViews10AgendaView22selectedIncidenceDatesEv@Base 4:15.08.0
 _ZNK10EventViews10AgendaView6agendaEv@Base 4:15.08.0
 _ZNK10EventViews10AgendaView7Private10datesEqualERK14QSharedPointerIN8KCalCore9IncidenceEES7_@Base 4:15.08.0
 _ZNK10EventViews10AgendaView7Private11agendaItemsERK7QString@Base 4:15.08.0
 _ZNK10EventViews10AgendaView7Private14mightBeVisibleERK14QSharedPointerIN8KCalCore9IncidenceEE@Base 4:15.08.0
 _ZNK10EventViews10AgendaView7endDateEv@Base 4:15.08.0
 _ZNK10EventViews10AgendaView8splitterEv@Base 4:15.08.0
 _ZNK10EventViews10AgendaView9calendar2ERK14QSharedPointerIN8KCalCore9IncidenceEE@Base 4:15.08.0
 _ZNK10EventViews10AgendaView9calendar2ERK7QString@Base 4:15.08.0
 _ZNK10EventViews10AgendaView9startDateEv@Base 4:15.08.0
 _ZNK10EventViews10MonthScene10metaObjectEv@Base 4:15.08.0
 _ZNK10EventViews10MonthScene11columnWidthEv@Base 4:15.08.0
 _ZNK10EventViews10MonthScene11getLeftSpanERK5QDate@Base 4:15.08.0
 _ZNK10EventViews10MonthScene12getRightSpanERK5QDate@Base 4:15.08.0
 _ZNK10EventViews10MonthScene12headerHeightEv@Base 4:15.08.0
 _ZNK10EventViews10MonthScene12previousCellEv@Base 4:15.08.0
 _ZNK10EventViews10MonthScene12selectedCellEv@Base 4:15.08.0
 _ZNK10EventViews10MonthScene13isInMonthGridEii@Base 4:15.08.0
 _ZNK10EventViews10MonthScene14availableWidthEv@Base 4:15.08.0
 _ZNK10EventViews10MonthScene14firstDateOnRowEi@Base 4:15.08.0
 _ZNK10EventViews10MonthScene15availableHeightEv@Base 4:15.08.0
 _ZNK10EventViews10MonthScene15cellVerticalPosEPKNS_9MonthCellE@Base 4:15.08.0
 _ZNK10EventViews10MonthScene16incidenceChangerEv@Base 4:15.08.0
 _ZNK10EventViews10MonthScene17cellHorizontalPosEPKNS_9MonthCellE@Base 4:15.08.0
 _ZNK10EventViews10MonthScene9rowHeightEv@Base 4:15.08.0
 _ZNK10EventViews10TimeLabels10metaObjectEv@Base 4:15.08.0
 _ZNK10EventViews10TimeLabels13headerToolTipEv@Base 4:15.08.0
 _ZNK10EventViews10TimeLabels15minimumSizeHintEv@Base 4:15.08.0
 _ZNK10EventViews10TimeLabels6headerEv@Base 4:15.08.0
 _ZNK10EventViews10TimeLabels8sizeHintEv@Base 4:15.08.0
 _ZNK10EventViews11JournalView10metaObjectEv@Base 4:15.08.0
 _ZNK10EventViews11JournalView16currentDateCountEv@Base 4:15.08.0
 _ZNK10EventViews11JournalView18selectedIncidencesEv@Base 4:15.08.0
 _ZNK10EventViews11MarcusBains10metaObjectEv@Base 4:15.08.0
 _ZNK10EventViews11MarcusBains7Private11todayColumnEv@Base 4:15.08.0
 _ZNK10EventViews12TimelineView10metaObjectEv@Base 4:15.08.0
 _ZNK10EventViews12TimelineView16currentDateCountEv@Base 4:15.08.0
 _ZNK10EventViews12TimelineView17eventDurationHintER9QDateTimeS2_Rb@Base 4:15.08.0
 _ZNK10EventViews12TimelineView18selectedIncidencesEv@Base 4:15.08.0
 _ZNK10EventViews12TimelineView22selectedIncidenceDatesEv@Base 4:15.08.0
 _ZNK10EventViews12TimelineView7Private10metaObjectEv@Base 4:15.08.0
 _ZNK10EventViews12TimelineView7endDateEv@Base 4:15.08.0
 _ZNK10EventViews12TimelineView9startDateEv@Base 4:15.08.0
 _ZNK10EventViews13TimeSpentView10metaObjectEv@Base 4:15.08.0
 _ZNK10EventViews13TimeSpentView16currentDateCountEv@Base 4:15.08.0
 _ZNK10EventViews13WhatsNextView10metaObjectEv@Base 4:15.08.0
 _ZNK10EventViews13WhatsNextView16currentDateCountEv@Base 4:15.08.0
 _ZNK10EventViews14AlternateLabel10metaObjectEv@Base 4:15.08.0
 _ZNK10EventViews14AlternateLabel15minimumSizeHintEv@Base 4:15.08.0
 _ZNK10EventViews14AlternateLabel22largestFittingTextTypeEv@Base 4:15.08.0
 _ZNK10EventViews14EventIndicator10metaObjectEv@Base 4:15.08.0
 _ZNK10EventViews14TimeLabelsZone10metaObjectEv@Base 4:15.08.0
 _ZNK10EventViews14TimeLabelsZone10timeLabelsEv@Base 4:15.08.0
 _ZNK10EventViews14TimeLabelsZone11preferencesEv@Base 4:15.08.0
 _ZNK10EventViews14TimeLabelsZone23preferedTimeLabelsWidthEv@Base 4:15.08.0
 _ZNK10EventViews15DecorationLabel10metaObjectEv@Base 4:15.08.0
 _ZNK10EventViews15MultiAgendaView10metaObjectEv@Base 4:15.08.0
 _ZNK10EventViews15MultiAgendaView12maxDatesHintEv@Base 4:15.08.0
 _ZNK10EventViews15MultiAgendaView16currentDateCountEv@Base 4:15.08.0
 _ZNK10EventViews15MultiAgendaView17eventDurationHintER9QDateTimeS2_Rb@Base 4:15.08.0
 _ZNK10EventViews15MultiAgendaView18customColumnTitlesEv@Base 4:15.08.0
 _ZNK10EventViews15MultiAgendaView18selectedIncidencesEv@Base 4:15.08.0
 _ZNK10EventViews15MultiAgendaView21customColumnSetupUsedEv@Base 4:15.08.0
 _ZNK10EventViews15MultiAgendaView21customNumberOfColumnsEv@Base 4:15.08.0
 _ZNK10EventViews15MultiAgendaView22hasConfigurationDialogEv@Base 4:15.08.0
 _ZNK10EventViews15MultiAgendaView22selectedIncidenceDatesEv@Base 4:15.08.0
 _ZNK10EventViews15MultiAgendaView25collectionSelectionModelsEv@Base 4:15.08.0
 _ZNK10EventViews15ScrollIndicator12boundingRectEv@Base 4:15.08.0
 _ZNK10EventViews16AgendaScrollArea6agendaEv@Base 4:15.08.0
 _ZNK10EventViews16HolidayMonthItem10frameColorEv@Base 4:15.08.0
 _ZNK10EventViews16HolidayMonthItem10metaObjectEv@Base 4:15.08.0
 _ZNK10EventViews16HolidayMonthItem19greaterThanFallbackEPKNS_9MonthItemE@Base 4:15.08.0
 _ZNK10EventViews16HolidayMonthItem5iconsEv@Base 4:15.08.0
 _ZNK10EventViews16HolidayMonthItem7bgColorEv@Base 4:15.08.0
 _ZNK10EventViews17MonthGraphicsItem10getToolTipEv@Base 4:15.08.0
 _ZNK10EventViews17MonthGraphicsItem10metaObjectEv@Base 4:15.08.0
 _ZNK10EventViews17MonthGraphicsItem10widgetPathEb@Base 4:15.08.0
 _ZNK10EventViews17MonthGraphicsItem11isBeginItemEv@Base 4:15.08.0
 _ZNK10EventViews17MonthGraphicsItem12boundingRectEv@Base 4:15.08.0
 _ZNK10EventViews17MonthGraphicsItem5shapeEv@Base 4:15.08.0
 _ZNK10EventViews17MonthGraphicsItem7daySpanEv@Base 4:15.08.0
 _ZNK10EventViews17MonthGraphicsItem7endDateEv@Base 4:15.08.0
 _ZNK10EventViews17MonthGraphicsItem8isMovingEv@Base 4:15.08.0
 _ZNK10EventViews17MonthGraphicsItem9isEndItemEv@Base 4:15.08.0
 _ZNK10EventViews17MonthGraphicsItem9startDateEv@Base 4:15.08.0
 _ZNK10EventViews17MultiViewCalendar10incidencesEv@Base 4:15.08.0
 _ZNK10EventViews17MultiViewCalendar11displayNameERK14QSharedPointerIN8KCalCore9IncidenceEE@Base 4:15.08.0
 _ZNK10EventViews17MultiViewCalendar11getCalendarEv@Base 4:15.08.0
 _ZNK10EventViews17MultiViewCalendar12findCalendarERK14QSharedPointerIN8KCalCore9IncidenceEE@Base 4:15.08.0
 _ZNK10EventViews17MultiViewCalendar12findCalendarERK7QString@Base 4:15.08.0
 _ZNK10EventViews17MultiViewCalendar13resourceColorERK14QSharedPointerIN8KCalCore9IncidenceEE@Base 4:15.08.0
 _ZNK10EventViews17MultiViewCalendar16iconForIncidenceERK14QSharedPointerIN8KCalCore9IncidenceEE@Base 4:15.08.0
 _ZNK10EventViews17MultiViewCalendar4itemERK14QSharedPointerIN8KCalCore9IncidenceEE@Base 4:15.08.0
 _ZNK10EventViews17MultiViewCalendar7isValidERK14QSharedPointerIN8KCalCore9IncidenceEE@Base 4:15.08.0
 _ZNK10EventViews17MultiViewCalendar7isValidERK7QString@Base 4:15.08.0
 _ZNK10EventViews17MultiViewCalendar9calendarsEv@Base 4:15.08.0
 _ZNK10EventViews18CalendarDecoration7Element10metaObjectEv@Base 4:15.08.0
 _ZNK10EventViews18CalendarDecoration7Element11elementInfoEv@Base 4:15.08.0
 _ZNK10EventViews18CalendarDecoration7Element12gotNewPixmapERK7QPixmap@Base 4:15.08.0
 _ZNK10EventViews18CalendarDecoration7Element14gotNewLongTextERK7QString@Base 4:15.08.0
 _ZNK10EventViews18CalendarDecoration7Element15gotNewShortTextERK7QString@Base 4:15.08.0
 _ZNK10EventViews18CalendarDecoration7Element19gotNewExtensiveTextERK7QString@Base 4:15.08.0
 _ZNK10EventViews18CalendarDecoration7Element2idEv@Base 4:15.08.0
 _ZNK10EventViews18CalendarDecoration7Element9gotNewUrlERK4QUrl@Base 4:15.08.0
 _ZNK10EventViews18IncidenceMonthItem10frameColorEv@Base 4:15.08.0
 _ZNK10EventViews18IncidenceMonthItem10isMoveableEv@Base 4:15.08.0
 _ZNK10EventViews18IncidenceMonthItem10metaObjectEv@Base 4:15.08.0
 _ZNK10EventViews18IncidenceMonthItem11akonadiItemEv@Base 4:15.08.0
 _ZNK10EventViews18IncidenceMonthItem11isResizableEv@Base 4:15.08.0
 _ZNK10EventViews18IncidenceMonthItem11realEndDateEv@Base 4:15.08.0
 _ZNK10EventViews18IncidenceMonthItem11toolTipTextERK5QDate@Base 4:15.08.0
 _ZNK10EventViews18IncidenceMonthItem13akonadiItemIdEv@Base 4:15.08.0
 _ZNK10EventViews18IncidenceMonthItem13realStartDateEv@Base 4:15.08.0
 _ZNK10EventViews18IncidenceMonthItem19greaterThanFallbackEPKNS_9MonthItemE@Base 4:15.08.0
 _ZNK10EventViews18IncidenceMonthItem4textEb@Base 4:15.08.0
 _ZNK10EventViews18IncidenceMonthItem5iconsEv@Base 4:15.08.0
 _ZNK10EventViews18IncidenceMonthItem6allDayEv@Base 4:15.08.0
 _ZNK10EventViews18IncidenceMonthItem7bgColorEv@Base 4:15.08.0
 _ZNK10EventViews18IncidenceMonthItem8catColorEv@Base 4:15.08.0
 _ZNK10EventViews18IncidenceMonthItem9incidenceEv@Base 4:15.08.0
 _ZNK10EventViews19AkonadiViewCalendar11displayNameERK14QSharedPointerIN8KCalCore9IncidenceEE@Base 4:15.08.0
 _ZNK10EventViews19AkonadiViewCalendar11getCalendarEv@Base 4:15.08.0
 _ZNK10EventViews19AkonadiViewCalendar13resourceColorERK14QSharedPointerIN8KCalCore9IncidenceEE@Base 4:15.08.0
 _ZNK10EventViews19AkonadiViewCalendar16iconForIncidenceERK14QSharedPointerIN8KCalCore9IncidenceEE@Base 4:15.08.0
 _ZNK10EventViews19AkonadiViewCalendar4itemERK14QSharedPointerIN8KCalCore9IncidenceEE@Base 4:15.08.0
 _ZNK10EventViews19AkonadiViewCalendar7isValidERK14QSharedPointerIN8KCalCore9IncidenceEE@Base 4:15.08.0
 _ZNK10EventViews19AkonadiViewCalendar7isValidERK7QString@Base 4:15.08.0
 _ZNK10EventViews19AkonadiViewCalendar8timeSpecEv@Base 4:15.08.0
 _ZNK10EventViews21TimeScaleConfigDialog10metaObjectEv@Base 4:15.08.0
 _ZNK10EventViews5Prefs12flatListTodoEv@Base 4:15.08.0
 _ZNK10EventViews5Prefs12fullViewTodoEv@Base 4:15.08.0
 _ZNK10EventViews5Prefs12holidayColorEv@Base 4:15.08.0
 _ZNK10EventViews5Prefs13fullViewMonthEv@Base 4:15.08.0
 _ZNK10EventViews5Prefs13monthViewFontEv@Base 4:15.08.0
 _ZNK10EventViews5Prefs14agendaViewFontEv@Base 4:15.08.0
 _ZNK10EventViews5Prefs14enableToolTipsEv@Base 4:15.08.0
 _ZNK10EventViews5Prefs14highlightTodosEv@Base 4:15.08.0
 _ZNK10EventViews5Prefs14monthViewIconsEv@Base 4:15.08.0
 _ZNK10EventViews5Prefs15agendaViewIconsEv@Base 4:15.08.0
 _ZNK10EventViews5Prefs15enableQuickTodoEv@Base 4:15.08.0
 _ZNK10EventViews5Prefs15monthViewColorsEv@Base 4:15.08.0
 _ZNK10EventViews5Prefs15selectedPluginsEv@Base 4:15.08.0
 _ZNK10EventViews5Prefs15viewBgBusyColorEv@Base 4:15.08.0
 _ZNK10EventViews5Prefs15workingHoursEndEv@Base 4:15.08.0
 _ZNK10EventViews5Prefs16agendaViewColorsEv@Base 4:15.08.0
 _ZNK10EventViews5Prefs16todoOverdueColorEv@Base 4:15.08.0
 _ZNK10EventViews5Prefs17todoDueTodayColorEv@Base 4:15.08.0
 _ZNK10EventViews5Prefs17workingHoursColorEv@Base 4:15.08.0
 _ZNK10EventViews5Prefs17workingHoursStartEv@Base 4:15.08.0
 _ZNK10EventViews5Prefs18colorMonthBusyDaysEv@Base 4:15.08.0
 _ZNK10EventViews5Prefs18marcusBainsEnabledEv@Base 4:15.08.0
 _ZNK10EventViews5Prefs18resourceColorKnownERK7QString@Base 4:15.08.0
 _ZNK10EventViews5Prefs18setMonthViewColorsEi@Base 4:15.08.0
 _ZNK10EventViews5Prefs18showTodosMonthViewEv@Base 4:15.08.0
 _ZNK10EventViews5Prefs18timeScaleTimezonesEv@Base 4:15.08.0
 _ZNK10EventViews5Prefs19colorAgendaBusyDaysEv@Base 4:15.08.0
 _ZNK10EventViews5Prefs19showTimeInMonthViewEv@Base 4:15.08.0
 _ZNK10EventViews5Prefs19showTodosAgendaViewEv@Base 4:15.08.0
 _ZNK10EventViews5Prefs20agendaTimeLabelsFontEv@Base 4:15.08.0
 _ZNK10EventViews5Prefs20enableMonthItemIconsEv@Base 4:15.08.0
 _ZNK10EventViews5Prefs21enableAgendaItemIconsEv@Base 4:15.08.0
 _ZNK10EventViews5Prefs21enableTodoQuickSearchEv@Base 4:15.08.0
 _ZNK10EventViews5Prefs21selectionStartsEditorEv@Base 4:15.08.0
 _ZNK10EventViews5Prefs21showJournalsMonthViewEv@Base 4:15.08.0
 _ZNK10EventViews5Prefs22marcusBainsShowSecondsEv@Base 4:15.08.0
 _ZNK10EventViews5Prefs22todosUseCategoryColorsEv@Base 4:15.08.0
 _ZNK10EventViews5Prefs24agendaGridHighlightColorEv@Base 4:15.08.0
 _ZNK10EventViews5Prefs24monthGridBackgroundColorEv@Base 4:15.08.0
 _ZNK10EventViews5Prefs25agendaGridBackgroundColorEv@Base 4:15.08.0
 _ZNK10EventViews5Prefs25agendaMarcusBainsLineFontEv@Base 4:15.08.0
 _ZNK10EventViews5Prefs25agendaViewBackgroundColorEv@Base 4:15.08.0
 _ZNK10EventViews5Prefs26decorationsAtAgendaViewTopEv@Base 4:15.08.0
 _ZNK10EventViews5Prefs28sortCompletedTodosSeparatelyEv@Base 4:15.08.0
 _ZNK10EventViews5Prefs29agendaHolidaysBackgroundColorEv@Base 4:15.08.0
 _ZNK10EventViews5Prefs29decorationsAtAgendaViewBottomEv@Base 4:15.08.0
 _ZNK10EventViews5Prefs30agendaMarcusBainsLineLineColorEv@Base 4:15.08.0
 _ZNK10EventViews5Prefs32setAgendaHolidaysBackgroundColorERK6QColor@Base 4:15.08.0
 _ZNK10EventViews5Prefs33monthGridWorkHoursBackgroundColorEv@Base 4:15.08.0
 _ZNK10EventViews5Prefs34agendaGridWorkHoursBackgroundColorEv@Base 4:15.08.0
 _ZNK10EventViews5Prefs6configEv@Base 4:15.08.0
 _ZNK10EventViews5Prefs7Private11getDateTimeEPKN19KCoreConfigSkeleton12ItemDateTimeE@Base 4:15.08.0
 _ZNK10EventViews5Prefs7Private13appConfigItemEPK19KConfigSkeletonItem@Base 4:15.08.0
 _ZNK10EventViews5Prefs7Private13getStringListEPKN19KCoreConfigSkeleton14ItemStringListE@Base 4:15.08.0
 _ZNK10EventViews5Prefs7Private6getIntEPKN19KCoreConfigSkeleton7ItemIntE@Base 4:15.08.0
 _ZNK10EventViews5Prefs7Private7getBoolEPKN19KCoreConfigSkeleton8ItemBoolE@Base 4:15.08.0
 _ZNK10EventViews5Prefs7Private7getFontEPKN15KConfigSkeleton8ItemFontE@Base 4:15.08.0
 _ZNK10EventViews5Prefs7Private8getColorEPKN15KConfigSkeleton9ItemColorE@Base 4:15.08.0
 _ZNK10EventViews5Prefs7Private9getStringEPKN19KCoreConfigSkeleton10ItemStringE@Base 4:15.08.0
 _ZNK10EventViews5Prefs8fontItemERK7QString@Base 4:15.08.0
 _ZNK10EventViews5Prefs8hourSizeEv@Base 4:15.08.0
 _ZNK10EventViews5Prefs8timeSpecEv@Base 4:15.08.0
 _ZNK10EventViews5Prefs9dayBeginsEv@Base 4:15.08.0
 _ZNK10EventViews6Agenda10metaObjectEv@Base 4:15.08.0
 _ZNK10EventViews6Agenda10scrollAreaEv@Base 4:15.08.0
 _ZNK10EventViews6Agenda11agendaItemsERK7QString@Base 4:15.08.0
 _ZNK10EventViews6Agenda11columnWidthEi@Base 4:15.08.0
 _ZNK10EventViews6Agenda11minimumSizeEv@Base 4:15.08.0
 _ZNK10EventViews6Agenda12gridSpacingXEv@Base 4:15.08.0
 _ZNK10EventViews6Agenda12gridSpacingYEv@Base 4:15.08.0
 _ZNK10EventViews6Agenda12maxContentsYEv@Base 4:15.08.0
 _ZNK10EventViews6Agenda12minContentsYEv@Base 4:15.08.0
 _ZNK10EventViews6Agenda13minimumHeightEv@Base 4:15.08.0
 _ZNK10EventViews6Agenda13ptInSelectionERK6QPoint@Base 4:15.08.0
 _ZNK10EventViews6Agenda14contentsToGridERK6QPoint@Base 4:15.08.0
 _ZNK10EventViews6Agenda14gridToContentsERK6QPoint@Base 4:15.08.0
 _ZNK10EventViews6Agenda15minimumSizeHintEv@Base 4:15.08.0
 _ZNK10EventViews6Agenda17selectedIncidenceEv@Base 4:15.08.0
 _ZNK10EventViews6Agenda17verticalScrollBarEv@Base 4:15.08.0
 _ZNK10EventViews6Agenda19lastSelectedItemUidEv@Base 4:15.08.0
 _ZNK10EventViews6Agenda19visibleContentsYMaxEv@Base 4:15.08.0
 _ZNK10EventViews6Agenda19visibleContentsYMinEv@Base 4:15.08.0
 _ZNK10EventViews6Agenda21selectedIncidenceDateEv@Base 4:15.08.0
 _ZNK10EventViews6Agenda4rowsEv@Base 4:15.08.0
 _ZNK10EventViews6Agenda7columnsEv@Base 4:15.08.0
 _ZNK10EventViews6Agenda7timeToYERK5QTime@Base 4:15.08.0
 _ZNK10EventViews6Agenda8dateListEv@Base 4:15.08.0
 _ZNK10EventViews6Agenda8gyToTimeEi@Base 4:15.08.0
 _ZNK10EventViews6Agenda8sizeHintEv@Base 4:15.08.0
 _ZNK10EventViews8ListView10metaObjectEv@Base 4:15.08.0
 _ZNK10EventViews8ListView16currentDateCountEv@Base 4:15.08.0
 _ZNK10EventViews8ListView18selectedIncidencesEv@Base 4:15.08.0
 _ZNK10EventViews8ListView22selectedIncidenceDatesEv@Base 4:15.08.0
 _ZNK10EventViews8ListView8sizeHintEv@Base 4:15.08.0
 _ZNK10EventViews8TodoView10metaObjectEv@Base 4:15.08.0
 _ZNK10EventViews8TodoView10saveLayoutEP7KConfigRK7QString@Base 4:15.08.0
 _ZNK10EventViews8TodoView15stateSaverGroupEv@Base 4:15.08.0
 _ZNK10EventViews8TodoView18selectedIncidencesEv@Base 4:15.08.0
 _ZNK10EventViews8TodoView22selectedIncidenceDatesEv@Base 4:15.08.0
 _ZNK10EventViews9EventView10identifierEv@Base 4:15.08.0
 _ZNK10EventViews9EventView10metaObjectEv@Base 4:15.08.0
 _ZNK10EventViews9EventView11endDateTimeEv@Base 4:15.08.0
 _ZNK10EventViews9EventView11preferencesEv@Base 4:15.08.0
 _ZNK10EventViews9EventView12collectionIdEv@Base 4:15.08.0
 _ZNK10EventViews9EventView12selectionEndEv@Base 4:15.08.0
 _ZNK10EventViews9EventView12supportsZoomEv@Base 4:15.08.0
 _ZNK10EventViews9EventView13startDateTimeEv@Base 4:15.08.0
 _ZNK10EventViews9EventView14selectionStartEv@Base 4:15.08.0
 _ZNK10EventViews9EventView15actualDateRangeERK9KDateTimeS3_RK5QDate@Base 4:15.08.0
 _ZNK10EventViews9EventView15kcalPreferencesEv@Base 4:15.08.0
 _ZNK10EventViews9EventView17actualEndDateTimeEv@Base 4:15.08.0
 _ZNK10EventViews9EventView17eventDurationHintER9QDateTimeS2_Rb@Base 4:15.08.0
 _ZNK10EventViews9EventView17makesWholeDayBusyERK14QSharedPointerIN8KCalCore9IncidenceEE@Base 4:15.08.0
 _ZNK10EventViews9EventView19actualStartDateTimeEv@Base 4:15.08.0
 _ZNK10EventViews9EventView19collectionSelectionEv@Base 4:15.08.0
 _ZNK10EventViews9EventView22hasConfigurationDialogEv@Base 4:15.08.0
 _ZNK10EventViews9EventView25customCollectionSelectionEv@Base 4:15.08.0
 _ZNK10EventViews9EventView25dateRangeSelectionEnabledEv@Base 4:15.08.0
 _ZNK10EventViews9EventView35customCollectionSelectionProxyModelEv@Base 4:15.08.0
 _ZNK10EventViews9EventView7changerEv@Base 4:15.08.0
 _ZNK10EventViews9EventView7changesEv@Base 4:15.08.0
 _ZNK10EventViews9EventView8calendarEv@Base 4:15.08.0
 _ZNK10EventViews9MonthItem10metaObjectEv@Base 4:15.08.0
 _ZNK10EventViews9MonthItem12parentWidgetEv@Base 4:15.08.0
 _ZNK10EventViews9MonthItem18monthGraphicsItemsEv@Base 4:15.08.0
 _ZNK10EventViews9MonthItem19greaterThanFallbackEPKS0_@Base 4:15.08.0
 _ZNK10EventViews9MonthItem7daySpanEv@Base 4:15.08.0
 _ZNK10EventViews9MonthItem7endDateEv@Base 4:15.08.0
 _ZNK10EventViews9MonthItem9startDateEv@Base 4:15.08.0
 _ZNK10EventViews9MonthView10metaObjectEv@Base 4:15.08.0
 _ZNK10EventViews9MonthView11averageDateEv@Base 4:15.08.0
 _ZNK10EventViews9MonthView12currentMonthEv@Base 4:15.08.0
 _ZNK10EventViews9MonthView12selectionEndEv@Base 4:15.08.0
 _ZNK10EventViews9MonthView14selectionStartEv@Base 4:15.08.0
 _ZNK10EventViews9MonthView15actualDateRangeERK9KDateTimeS3_RK5QDate@Base 4:15.08.0
 _ZNK10EventViews9MonthView16currentDateCountEv@Base 4:15.08.0
 _ZNK10EventViews9MonthView17eventDurationHintER9QDateTimeS2_Rb@Base 4:15.08.0
 _ZNK10EventViews9MonthView18selectedIncidencesEv@Base 4:15.08.0
 _ZNK10EventViews9MonthView22selectedIncidenceDatesEv@Base 4:15.08.0
 _ZNK10EventViews9MonthView9isBusyDayERK5QDate@Base 4:15.08.0
 (optional=templinst)_ZNK12KConfigGroup9readEntryI10QByteArrayEET_PKcRKS2_@Base 4:15.08.0
 (optional=templinst)_ZNK12KConfigGroup9readEntryIbEET_PKcRKS1_@Base 4:15.08.0
 (optional=templinst)_ZNK12KConfigGroup9readEntryIiEE5QListIT_EPKcRKS3_@Base 4:15.08.0
 (optional=templinst)_ZNK12KConfigGroup9readEntryIiEET_PKcRKS1_@Base 4:15.08.0
 (optional=templinst)_ZNK7Akonadi4Item10hasPayloadI14QSharedPointerIN8KCalCore9IncidenceEEEEbv@Base 4:15.08.0
 (optional=templinst)_ZNK7Akonadi4Item11payloadImplI14QSharedPointerIN8KCalCore9IncidenceEEEENSt9enable_ifIXntsrNS_8Internal12PayloadTraitIT_EE13isPolymorphicES9_E4typeEv@Base 4:15.08.0
 (optional=templinst)_ZNK7Akonadi4Item14tryToCloneImplI14QSharedPointerIN8KCalCore9IncidenceEEN5boost10shared_ptrIS4_EEEENSt9enable_ifIXntsrSt7is_sameIT_T0_E5valueEbE4typeEPSB_PKi@Base 4:15.08.0
 (optional=templinst)_ZNK7Akonadi4Item14tryToCloneImplI14QSharedPointerIN8KCalCore9IncidenceEESt10shared_ptrIS4_EEENSt9enable_ifIXntsrSt7is_sameIT_T0_E5valueEbE4typeEPSA_PKi@Base 4:15.08.0
 (optional=templinst)_ZNK7Akonadi4Item7payloadI14QSharedPointerIN8KCalCore9IncidenceEEEET_v@Base 4:15.08.0
 _ZTIN10EventViews10AgendaItemE@Base 4:15.08.0
 _ZTIN10EventViews10AgendaView7PrivateE@Base 4:15.08.0
 _ZTIN10EventViews10AgendaViewE@Base 4:15.08.0
 _ZTIN10EventViews10MonthSceneE@Base 4:15.08.0
 _ZTIN10EventViews10TimeLabelsE@Base 4:15.08.0
 _ZTIN10EventViews11JournalViewE@Base 4:15.08.0
 _ZTIN10EventViews11MarcusBainsE@Base 4:15.08.0
 _ZTIN10EventViews12TimelineView7PrivateE@Base 4:15.08.0
 _ZTIN10EventViews12TimelineViewE@Base 4:15.08.0
 _ZTIN10EventViews12ViewCalendarE@Base 4:15.08.0
 _ZTIN10EventViews13TimeSpentViewE@Base 4:15.08.0
 _ZTIN10EventViews13WhatsNextViewE@Base 4:15.08.0
 _ZTIN10EventViews14AlternateLabelE@Base 4:15.08.0
 _ZTIN10EventViews14EventIndicatorE@Base 4:15.08.0
 _ZTIN10EventViews14TimeLabelsZoneE@Base 4:15.08.0
 _ZTIN10EventViews15DecorationLabelE@Base 4:15.08.0
 _ZTIN10EventViews15MultiAgendaViewE@Base 4:15.08.0
 _ZTIN10EventViews15ScrollIndicatorE@Base 4:15.08.0
 _ZTIN10EventViews16AgendaScrollAreaE@Base 4:15.08.0
 _ZTIN10EventViews16HolidayMonthItemE@Base 4:15.08.0
 _ZTIN10EventViews17MonthGraphicsItemE@Base 4:15.08.0
 _ZTIN10EventViews17MonthGraphicsViewE@Base 4:15.08.0
 _ZTIN10EventViews17MultiViewCalendarE@Base 4:15.08.0
 _ZTIN10EventViews18CalendarDecoration10DecorationE@Base 4:15.08.0
 _ZTIN10EventViews18CalendarDecoration13StoredElementE@Base 4:15.08.0
 _ZTIN10EventViews18CalendarDecoration7ElementE@Base 4:15.08.0
 _ZTIN10EventViews18IncidenceMonthItemE@Base 4:15.08.0
 _ZTIN10EventViews19AkonadiViewCalendarE@Base 4:15.08.0
 _ZTIN10EventViews21TimeScaleConfigDialogE@Base 4:15.08.0
 _ZTIN10EventViews6AgendaE@Base 4:15.08.0
 _ZTIN10EventViews8ListView7Private15ListItemVisitorE@Base 4:15.08.0
 _ZTIN10EventViews8ListViewE@Base 4:15.08.0
 _ZTIN10EventViews8TodoViewE@Base 4:15.08.0
 _ZTIN10EventViews9EventViewE@Base 4:15.08.0
 _ZTIN10EventViews9MonthItemE@Base 4:15.08.0
 _ZTIN10EventViews9MonthViewE@Base 4:15.08.0
 _ZTSN10EventViews10AgendaItemE@Base 4:15.08.0
 _ZTSN10EventViews10AgendaView7PrivateE@Base 4:15.08.0
 _ZTSN10EventViews10AgendaViewE@Base 4:15.08.0
 _ZTSN10EventViews10MonthSceneE@Base 4:15.08.0
 _ZTSN10EventViews10TimeLabelsE@Base 4:15.08.0
 _ZTSN10EventViews11JournalViewE@Base 4:15.08.0
 _ZTSN10EventViews11MarcusBainsE@Base 4:15.08.0
 _ZTSN10EventViews12TimelineView7PrivateE@Base 4:15.08.0
 _ZTSN10EventViews12TimelineViewE@Base 4:15.08.0
 _ZTSN10EventViews12ViewCalendarE@Base 4:15.08.0
 _ZTSN10EventViews13TimeSpentViewE@Base 4:15.08.0
 _ZTSN10EventViews13WhatsNextViewE@Base 4:15.08.0
 _ZTSN10EventViews14AlternateLabelE@Base 4:15.08.0
 _ZTSN10EventViews14EventIndicatorE@Base 4:15.08.0
 _ZTSN10EventViews14TimeLabelsZoneE@Base 4:15.08.0
 _ZTSN10EventViews15DecorationLabelE@Base 4:15.08.0
 _ZTSN10EventViews15MultiAgendaViewE@Base 4:15.08.0
 _ZTSN10EventViews15ScrollIndicatorE@Base 4:15.08.0
 _ZTSN10EventViews16AgendaScrollAreaE@Base 4:15.08.0
 _ZTSN10EventViews16HolidayMonthItemE@Base 4:15.08.0
 _ZTSN10EventViews17MonthGraphicsItemE@Base 4:15.08.0
 _ZTSN10EventViews17MonthGraphicsViewE@Base 4:15.08.0
 _ZTSN10EventViews17MultiViewCalendarE@Base 4:15.08.0
 _ZTSN10EventViews18CalendarDecoration10DecorationE@Base 4:15.08.0
 _ZTSN10EventViews18CalendarDecoration13StoredElementE@Base 4:15.08.0
 _ZTSN10EventViews18CalendarDecoration7ElementE@Base 4:15.08.0
 _ZTSN10EventViews18IncidenceMonthItemE@Base 4:15.08.0
 _ZTSN10EventViews19AkonadiViewCalendarE@Base 4:15.08.0
 _ZTSN10EventViews21TimeScaleConfigDialogE@Base 4:15.08.0
 _ZTSN10EventViews6AgendaE@Base 4:15.08.0
 _ZTSN10EventViews8ListView7Private15ListItemVisitorE@Base 4:15.08.0
 _ZTSN10EventViews8ListViewE@Base 4:15.08.0
 _ZTSN10EventViews8TodoViewE@Base 4:15.08.0
 _ZTSN10EventViews9EventViewE@Base 4:15.08.0
 _ZTSN10EventViews9MonthItemE@Base 4:15.08.0
 _ZTSN10EventViews9MonthViewE@Base 4:15.08.0
 _ZTVN10EventViews10AgendaItemE@Base 4:15.08.0
 _ZTVN10EventViews10AgendaView7PrivateE@Base 4:15.08.0
 _ZTVN10EventViews10AgendaViewE@Base 4:15.08.0
 _ZTVN10EventViews10MonthSceneE@Base 4:15.08.0
 _ZTVN10EventViews10TimeLabelsE@Base 4:15.08.0
 _ZTVN10EventViews11JournalViewE@Base 4:15.08.0
 _ZTVN10EventViews11MarcusBainsE@Base 4:15.08.0
 _ZTVN10EventViews12TimelineView7PrivateE@Base 4:15.08.0
 _ZTVN10EventViews12TimelineViewE@Base 4:15.08.0
 _ZTVN10EventViews12ViewCalendarE@Base 4:15.08.0
 _ZTVN10EventViews13TimeSpentViewE@Base 4:15.08.0
 _ZTVN10EventViews13WhatsNextViewE@Base 4:15.08.0
 _ZTVN10EventViews14AlternateLabelE@Base 4:15.08.0
 _ZTVN10EventViews14EventIndicatorE@Base 4:15.08.0
 _ZTVN10EventViews14TimeLabelsZoneE@Base 4:15.08.0
 _ZTVN10EventViews15DecorationLabelE@Base 4:15.08.0
 _ZTVN10EventViews15MultiAgendaViewE@Base 4:15.08.0
 _ZTVN10EventViews15ScrollIndicatorE@Base 4:15.08.0
 _ZTVN10EventViews16AgendaScrollAreaE@Base 4:15.08.0
 _ZTVN10EventViews16HolidayMonthItemE@Base 4:15.08.0
 _ZTVN10EventViews17MonthGraphicsItemE@Base 4:15.08.0
 _ZTVN10EventViews17MonthGraphicsViewE@Base 4:15.08.0
 _ZTVN10EventViews17MultiViewCalendarE@Base 4:15.08.0
 _ZTVN10EventViews18CalendarDecoration10DecorationE@Base 4:15.08.0
 _ZTVN10EventViews18CalendarDecoration13StoredElementE@Base 4:15.08.0
 _ZTVN10EventViews18CalendarDecoration7ElementE@Base 4:15.08.0
 _ZTVN10EventViews18IncidenceMonthItemE@Base 4:15.08.0
 _ZTVN10EventViews19AkonadiViewCalendarE@Base 4:15.08.0
 _ZTVN10EventViews21TimeScaleConfigDialogE@Base 4:15.08.0
 _ZTVN10EventViews6AgendaE@Base 4:15.08.0
 _ZTVN10EventViews8ListView7Private15ListItemVisitorE@Base 4:15.08.0
 _ZTVN10EventViews8ListViewE@Base 4:15.08.0
 _ZTVN10EventViews8TodoViewE@Base 4:15.08.0
 _ZTVN10EventViews9EventViewE@Base 4:15.08.0
 _ZTVN10EventViews9MonthItemE@Base 4:15.08.0
 _ZTVN10EventViews9MonthViewE@Base 4:15.08.0
 (c++)"non-virtual thunk to EventViews::Agenda::~Agenda()@Base" 4:15.08.0
 (c++)"non-virtual thunk to EventViews::AgendaItem::label() const@Base" 4:15.08.0
 (c++)"non-virtual thunk to EventViews::AgendaItem::overlaps(CalendarSupport::CellItem*) const@Base" 4:15.08.0
 (c++)"non-virtual thunk to EventViews::AgendaItem::~AgendaItem()@Base" 4:15.08.0
 (c++)"non-virtual thunk to EventViews::AgendaScrollArea::~AgendaScrollArea()@Base" 4:15.08.0
 (c++)"non-virtual thunk to EventViews::AgendaView::~AgendaView()@Base" 4:15.08.0
 (c++)"non-virtual thunk to EventViews::AlternateLabel::~AlternateLabel()@Base" 4:15.08.0
 (c++)"non-virtual thunk to EventViews::DecorationLabel::~DecorationLabel()@Base" 4:15.08.0
 (c++)"non-virtual thunk to EventViews::EventIndicator::~EventIndicator()@Base" 4:15.08.0
 (c++)"non-virtual thunk to EventViews::EventView::~EventView()@Base" 4:15.08.0
 (c++)"non-virtual thunk to EventViews::JournalView::~JournalView()@Base" 4:15.08.0
 (c++)"non-virtual thunk to EventViews::ListView::~ListView()@Base" 4:15.08.0
 (c++)"non-virtual thunk to EventViews::MarcusBains::~MarcusBains()@Base" 4:15.08.0
 (c++)"non-virtual thunk to EventViews::MonthGraphicsItem::boundingRect() const@Base" 4:15.08.0
 (c++)"non-virtual thunk to EventViews::MonthGraphicsItem::paint(QPainter*, QStyleOptionGraphicsItem const*, QWidget*)@Base" 4:15.08.0
 (c++)"non-virtual thunk to EventViews::MonthGraphicsItem::shape() const@Base" 4:15.08.0
 (c++)"non-virtual thunk to EventViews::MonthGraphicsItem::~MonthGraphicsItem()@Base" 4:15.08.0
 (c++)"non-virtual thunk to EventViews::MonthView::~MonthView()@Base" 4:15.08.0
 (c++)"non-virtual thunk to EventViews::MultiAgendaView::~MultiAgendaView()@Base" 4:15.08.0
 (c++)"non-virtual thunk to EventViews::TimeScaleConfigDialog::~TimeScaleConfigDialog()@Base" 4:15.08.0
 (c++)"non-virtual thunk to EventViews::TimeSpentView::~TimeSpentView()@Base" 4:15.08.0
 (c++)"non-virtual thunk to EventViews::TimelineView::~TimelineView()@Base" 4:15.08.0
 (c++)"non-virtual thunk to EventViews::TodoView::~TodoView()@Base" 4:15.08.0
 (c++)"non-virtual thunk to EventViews::WhatsNextView::~WhatsNextView()@Base" 4:15.08.0
