# SymbolsHelper-Confirmed: 4:15.08.1 arm64 ppc64el
libfollowupreminder.so.5 libfollowupreminder5 #MINVER#
 (optional=templinst|arch=arm64)_ZN12KConfigGroup10writeEntryIiEEvPKcRKT_6QFlagsIN11KConfigBase15WriteConfigFlagEE@Base 4:15.08.0
 (optional=templinst|arch=arm64)_ZN12KConfigGroup10writeEntryIxEEvPKcRKT_6QFlagsIN11KConfigBase15WriteConfigFlagEE@Base 4:15.08.0
 _ZN16FollowUpReminder20FollowUpReminderInfo10readConfigERK12KConfigGroup@Base 4:15.08.0
 _ZN16FollowUpReminder20FollowUpReminderInfo10setSubjectERK7QString@Base 4:15.08.0
 _ZN16FollowUpReminder20FollowUpReminderInfo11writeConfigER12KConfigGroupi@Base 4:15.08.0
 _ZN16FollowUpReminder20FollowUpReminderInfo12setMessageIdERK7QString@Base 4:15.08.0
 _ZN16FollowUpReminder20FollowUpReminderInfo19setUniqueIdentifierERKi@Base 4:15.08.0
 _ZN16FollowUpReminder20FollowUpReminderInfo20setAnswerWasReceivedEb@Base 4:15.08.0
 _ZN16FollowUpReminder20FollowUpReminderInfo22setAnswerMessageItemIdERKx@Base 4:15.08.0
 _ZN16FollowUpReminder20FollowUpReminderInfo23setFollowUpReminderDateERK5QDate@Base 4:15.08.0
 _ZN16FollowUpReminder20FollowUpReminderInfo24setOriginalMessageItemIdEx@Base 4:15.08.0
 _ZN16FollowUpReminder20FollowUpReminderInfo5setToERK7QString@Base 4:15.08.0
 _ZN16FollowUpReminder20FollowUpReminderInfo9setTodoIdEx@Base 4:15.08.0
 _ZN16FollowUpReminder20FollowUpReminderInfoC1ERK12KConfigGroup@Base 4:15.08.0
 _ZN16FollowUpReminder20FollowUpReminderInfoC1ERKS0_@Base 4:15.08.0
 _ZN16FollowUpReminder20FollowUpReminderInfoC1Ev@Base 4:15.08.0
 _ZN16FollowUpReminder20FollowUpReminderInfoC2ERK12KConfigGroup@Base 4:15.08.0
 _ZN16FollowUpReminder20FollowUpReminderInfoC2ERKS0_@Base 4:15.08.0
 _ZN16FollowUpReminder20FollowUpReminderInfoC2Ev@Base 4:15.08.0
 _ZN16FollowUpReminder20FollowUpReminderUtil13defaultConfigEv@Base 4:15.08.0
 _ZN16FollowUpReminder20FollowUpReminderUtil25forceReparseConfigurationEv@Base 4:15.08.0
 _ZN16FollowUpReminder20FollowUpReminderUtil25writeFollowupReminderInfoE28QExplicitlySharedDataPointerI13KSharedConfigEPNS_20FollowUpReminderInfoEb@Base 4:15.08.0
 _ZN16FollowUpReminder20FollowUpReminderUtil26removeFollowupReminderInfoE28QExplicitlySharedDataPointerI13KSharedConfigERK5QListIiEb@Base 4:15.08.0
 _ZN16FollowUpReminder20FollowUpReminderUtil28followupReminderAgentEnabledEv@Base 4:15.08.0
 _ZN16FollowUpReminder20FollowUpReminderUtil34followupReminderAgentWasRegisteredEv@Base 4:15.08.0
 _ZN16FollowUpReminder20FollowUpReminderUtil6reloadEv@Base 4:15.08.0
 _ZN29FollowUpReminderAgentSettings4selfEv@Base 4:15.08.0
 _ZN29FollowUpReminderAgentSettingsC1Ev@Base 4:15.08.0
 _ZN29FollowUpReminderAgentSettingsC2Ev@Base 4:15.08.0
 _ZN29FollowUpReminderAgentSettingsD0Ev@Base 4:15.08.0
 _ZN29FollowUpReminderAgentSettingsD1Ev@Base 4:15.08.0
 _ZN29FollowUpReminderAgentSettingsD2Ev@Base 4:15.08.0
#MISSING: 4:15.08.1# (optional=templinst)_ZNK12KConfigGroup9readEntryIbEET_PKcRKS1_@Base 4:15.08.0
 (optional=templinst|arch=arm64)_ZNK12KConfigGroup9readEntryIiEET_PKcRKS1_@Base 4:15.08.0
 _ZNK16FollowUpReminder20FollowUpReminderInfo16uniqueIdentifierEv@Base 4:15.08.0
 _ZNK16FollowUpReminder20FollowUpReminderInfo17answerWasReceivedEv@Base 4:15.08.0
 _ZNK16FollowUpReminder20FollowUpReminderInfo19answerMessageItemIdEv@Base 4:15.08.0
 _ZNK16FollowUpReminder20FollowUpReminderInfo20followUpReminderDateEv@Base 4:15.08.0
 _ZNK16FollowUpReminder20FollowUpReminderInfo21originalMessageItemIdEv@Base 4:15.08.0
 _ZNK16FollowUpReminder20FollowUpReminderInfo2toEv@Base 4:15.08.0
 _ZNK16FollowUpReminder20FollowUpReminderInfo6todoIdEv@Base 4:15.08.0
 _ZNK16FollowUpReminder20FollowUpReminderInfo7isValidEv@Base 4:15.08.0
 _ZNK16FollowUpReminder20FollowUpReminderInfo7subjectEv@Base 4:15.08.0
 _ZNK16FollowUpReminder20FollowUpReminderInfo9messageIdEv@Base 4:15.08.0
 _ZNK16FollowUpReminder20FollowUpReminderInfoeqERKS0_@Base 4:15.08.0
 _ZTI29FollowUpReminderAgentSettings@Base 4:15.08.0
 _ZTS29FollowUpReminderAgentSettings@Base 4:15.08.0
 _ZTV29FollowUpReminderAgentSettings@Base 4:15.08.0
