# SymbolsHelper-Confirmed: 4:15.08.0 amd64
libincidenceeditorsng.so.5 libincidenceeditorsng5 #MINVER#
 _ZN17IncidenceEditorNG11AlarmDialog20setAllowEndRemindersEb@Base 4:15.08.0
 _ZN17IncidenceEditorNG11AlarmDialog22setAllowBeginRemindersEb@Base 4:15.08.0
 _ZN17IncidenceEditorNG11AlarmDialog4loadERK14QSharedPointerIN8KCalCore5AlarmEE@Base 4:15.08.0
 _ZN17IncidenceEditorNG11AlarmDialog7setUnitENS0_4UnitE@Base 4:15.08.0
 _ZN17IncidenceEditorNG11AlarmDialog7setWhenENS0_4WhenE@Base 4:15.08.0
 _ZN17IncidenceEditorNG11AlarmDialog9fillComboEv@Base 4:15.08.0
 _ZN17IncidenceEditorNG11AlarmDialog9setOffsetEi@Base 4:15.08.0
 _ZN17IncidenceEditorNG11AlarmDialogC1EN8KCalCore13IncidenceBase13IncidenceTypeEP7QWidget@Base 4:15.08.0
 _ZN17IncidenceEditorNG11AlarmDialogC2EN8KCalCore13IncidenceBase13IncidenceTypeEP7QWidget@Base 4:15.08.0
 _ZN17IncidenceEditorNG11AlarmDialogD0Ev@Base 4:15.08.0
 _ZN17IncidenceEditorNG11AlarmDialogD1Ev@Base 4:15.08.0
 _ZN17IncidenceEditorNG11AlarmDialogD2Ev@Base 4:15.08.0
 _ZN17IncidenceEditorNG12AttendeeData5clearEv@Base 4:15.08.0
 _ZN17IncidenceEditorNG12AttendeeLine10setActionsENS0_15AttendeeActionsE@Base 4:15.08.0
 _ZN17IncidenceEditorNG12AttendeeLine11fixTabOrderEP7QWidget@Base 4:15.08.0
 _ZN17IncidenceEditorNG12AttendeeLine11qt_metacallEN11QMetaObject4CallEiPPv@Base 4:15.08.0
 _ZN17IncidenceEditorNG12AttendeeLine11qt_metacastEPKc@Base 4:15.08.0
 _ZN17IncidenceEditorNG12AttendeeLine13clearModifiedEv@Base 4:15.08.0
 _ZN17IncidenceEditorNG12AttendeeLine14dataFromFieldsEv@Base 4:15.08.0
 _ZN17IncidenceEditorNG12AttendeeLine14fieldsFromDataEv@Base 4:15.08.0
 _ZN17IncidenceEditorNG12AttendeeLine14setColumnWidthEi@Base 4:15.08.0
 _ZN17IncidenceEditorNG12AttendeeLine15editingFinishedEPN4KPIM15MultiplyingLineE@Base 4:15.08.0
 _ZN17IncidenceEditorNG12AttendeeLine15slotTextChangedERK7QString@Base 4:15.08.0
 _ZN17IncidenceEditorNG12AttendeeLine16aboutToBeDeletedEv@Base 4:15.08.0
 _ZN17IncidenceEditorNG12AttendeeLine16slotComboChangedEv@Base 4:15.08.0
 _ZN17IncidenceEditorNG12AttendeeLine16slotHandleChangeEv@Base 4:15.08.0
 _ZN17IncidenceEditorNG12AttendeeLine16staticMetaObjectE@Base 4:15.08.0
 _ZN17IncidenceEditorNG12AttendeeLine17setCompletionModeEN11KCompletion14CompletionModeE@Base 4:15.08.0
 _ZN17IncidenceEditorNG12AttendeeLine19moveCompletionPopupEv@Base 4:15.08.0
 _ZN17IncidenceEditorNG12AttendeeLine5clearEv@Base 4:15.08.0
 _ZN17IncidenceEditorNG12AttendeeLine7changedERK14QSharedPointerIN8KCalCore8AttendeeEES6_@Base 4:15.08.0
 _ZN17IncidenceEditorNG12AttendeeLine7changedEv@Base 4:15.08.0
 _ZN17IncidenceEditorNG12AttendeeLine7setDataERK14QSharedPointerIN4KPIM19MultiplyingLineDataEE@Base 4:15.08.0
 _ZN17IncidenceEditorNG12AttendeeLine8activateEv@Base 4:15.08.0
 _ZN17IncidenceEditorNG12AttendeeLineC1EP7QWidget@Base 4:15.08.0
 _ZN17IncidenceEditorNG12AttendeeLineC2EP7QWidget@Base 4:15.08.0
 _ZN17IncidenceEditorNG12EditorConfig15setEditorConfigEPS0_@Base 4:15.08.0
 _ZN17IncidenceEditorNG12EditorConfig7Private6configE@Base 4:15.08.0
 _ZN17IncidenceEditorNG12EditorConfig8instanceEv@Base 4:15.08.0
 _ZN17IncidenceEditorNG12EditorConfig9templatesEN8KCalCore13IncidenceBase13IncidenceTypeE@Base 4:15.08.0
 _ZN17IncidenceEditorNG12EditorConfigC1Ev@Base 4:15.08.0
 _ZN17IncidenceEditorNG12EditorConfigC2Ev@Base 4:15.08.0
 _ZN17IncidenceEditorNG12EditorConfigD0Ev@Base 4:15.08.0
 _ZN17IncidenceEditorNG12EditorConfigD1Ev@Base 4:15.08.0
 _ZN17IncidenceEditorNG12EditorConfigD2Ev@Base 4:15.08.0
 _ZN17IncidenceEditorNG12ItemEditorUiD0Ev@Base 4:15.08.0
 _ZN17IncidenceEditorNG12ItemEditorUiD1Ev@Base 4:15.08.0
 _ZN17IncidenceEditorNG12ItemEditorUiD2Ev@Base 4:15.08.0
 _ZN17IncidenceEditorNG14AttendeeEditor10setActionsENS_12AttendeeLine15AttendeeActionsE@Base 4:15.08.0
 _ZN17IncidenceEditorNG14AttendeeEditor11addAttendeeERK14QSharedPointerIN8KCalCore8AttendeeEE@Base 4:15.08.0
 _ZN17IncidenceEditorNG14AttendeeEditor11qt_metacallEN11QMetaObject4CallEiPPv@Base 4:15.08.0
 _ZN17IncidenceEditorNG14AttendeeEditor11qt_metacastEPKc@Base 4:15.08.0
 _ZN17IncidenceEditorNG14AttendeeEditor12countChangedEi@Base 4:15.08.0
 _ZN17IncidenceEditorNG14AttendeeEditor13slotLineAddedEPN4KPIM15MultiplyingLineE@Base 4:15.08.0
 _ZN17IncidenceEditorNG14AttendeeEditor14removeAttendeeERK14QSharedPointerINS_12AttendeeDataEE@Base 4:15.08.0
 _ZN17IncidenceEditorNG14AttendeeEditor15editingFinishedEPN4KPIM15MultiplyingLineE@Base 4:15.08.0
 _ZN17IncidenceEditorNG14AttendeeEditor16staticMetaObjectE@Base 4:15.08.0
 _ZN17IncidenceEditorNG14AttendeeEditor18slotCalculateTotalEv@Base 4:15.08.0
 _ZN17IncidenceEditorNG14AttendeeEditor7changedERK14QSharedPointerIN8KCalCore8AttendeeEES6_@Base 4:15.08.0
 _ZN17IncidenceEditorNG14AttendeeEditorC1EP7QWidget@Base 4:15.08.0
 _ZN17IncidenceEditorNG14AttendeeEditorC2EP7QWidget@Base 4:15.08.0
 _ZN17IncidenceEditorNG14CategoryDialog11qt_metacallEN11QMetaObject4CallEiPPv@Base 4:15.08.0
 _ZN17IncidenceEditorNG14CategoryDialog11qt_metacastEPKc@Base 4:15.08.0
 _ZN17IncidenceEditorNG14CategoryDialog11setSelectedERK11QStringList@Base 4:15.08.0
 _ZN17IncidenceEditorNG14CategoryDialog15setCategoryListERK11QStringList@Base 4:15.08.0
 _ZN17IncidenceEditorNG14CategoryDialog16staticMetaObjectE@Base 4:15.08.0
 _ZN17IncidenceEditorNG14CategoryDialog18categoriesSelectedERK11QStringList@Base 4:15.08.0
 _ZN17IncidenceEditorNG14CategoryDialog18categoriesSelectedERK7QString@Base 4:15.08.0
 _ZN17IncidenceEditorNG14CategoryDialog20updateCategoryConfigEv@Base 4:15.08.0
 _ZN17IncidenceEditorNG14CategoryDialog21setAutoselectChildrenEb@Base 4:15.08.0
 _ZN17IncidenceEditorNG14CategoryDialog6slotOkEv@Base 4:15.08.0
 _ZN17IncidenceEditorNG14CategoryDialog9slotApplyEv@Base 4:15.08.0
 _ZN17IncidenceEditorNG14CategoryDialogC1EPN15CalendarSupport14CategoryConfigEP7QWidget@Base 4:15.08.0
 _ZN17IncidenceEditorNG14CategoryDialogC2EPN15CalendarSupport14CategoryConfigEP7QWidget@Base 4:15.08.0
 _ZN17IncidenceEditorNG14CategoryDialogD0Ev@Base 4:15.08.0
 _ZN17IncidenceEditorNG14CategoryDialogD1Ev@Base 4:15.08.0
 _ZN17IncidenceEditorNG14CategoryDialogD2Ev@Base 4:15.08.0
 _ZN17IncidenceEditorNG14CategoryWidget10hideButtonEv@Base 4:15.08.0
 _ZN17IncidenceEditorNG14CategoryWidget10hideHeaderEv@Base 4:15.08.0
 _ZN17IncidenceEditorNG14CategoryWidget11addCategoryEv@Base 4:15.08.0
 _ZN17IncidenceEditorNG14CategoryWidget11qt_metacallEN11QMetaObject4CallEiPPv@Base 4:15.08.0
 _ZN17IncidenceEditorNG14CategoryWidget11qt_metacastEPKc@Base 4:15.08.0
 _ZN17IncidenceEditorNG14CategoryWidget11setSelectedERK11QStringList@Base 4:15.08.0
 _ZN17IncidenceEditorNG14CategoryWidget13setCategoriesERK11QStringList@Base 4:15.08.0
 _ZN17IncidenceEditorNG14CategoryWidget14removeCategoryEv@Base 4:15.08.0
 _ZN17IncidenceEditorNG14CategoryWidget15setCategoryListERK11QStringList@Base 4:15.08.0
 _ZN17IncidenceEditorNG14CategoryWidget16staticMetaObjectE@Base 4:15.08.0
 _ZN17IncidenceEditorNG14CategoryWidget17handleTextChangedERK7QString@Base 4:15.08.0
 _ZN17IncidenceEditorNG14CategoryWidget18handleColorChangedERK6QColor@Base 4:15.08.0
 _ZN17IncidenceEditorNG14CategoryWidget18selectedCategoriesER7QString@Base 4:15.08.0
 _ZN17IncidenceEditorNG14CategoryWidget21setAutoselectChildrenEb@Base 4:15.08.0
 _ZN17IncidenceEditorNG14CategoryWidget22handleSelectionChangedEv@Base 4:15.08.0
 _ZN17IncidenceEditorNG14CategoryWidget5clearEv@Base 4:15.08.0
 _ZN17IncidenceEditorNG14CategoryWidgetC1EPN15CalendarSupport14CategoryConfigEP7QWidget@Base 4:15.08.0
 _ZN17IncidenceEditorNG14CategoryWidgetC2EPN15CalendarSupport14CategoryConfigEP7QWidget@Base 4:15.08.0
 _ZN17IncidenceEditorNG14CategoryWidgetD0Ev@Base 4:15.08.0
 _ZN17IncidenceEditorNG14CategoryWidgetD1Ev@Base 4:15.08.0
 _ZN17IncidenceEditorNG14CategoryWidgetD2Ev@Base 4:15.08.0
 _ZN17IncidenceEditorNG14GlobalSettings11qt_metacallEN11QMetaObject4CallEiPPv@Base 4:15.08.0
 _ZN17IncidenceEditorNG14GlobalSettings11qt_metacastEPKc@Base 4:15.08.0
 _ZN17IncidenceEditorNG14GlobalSettings16staticMetaObjectE@Base 4:15.08.0
 _ZN17IncidenceEditorNG14GlobalSettings4selfEv@Base 4:15.08.0
 _ZN17IncidenceEditorNG14GlobalSettings5mSelfE@Base 4:15.08.0
 _ZN17IncidenceEditorNG14GlobalSettingsC1Ev@Base 4:15.08.0
 _ZN17IncidenceEditorNG14GlobalSettingsC2Ev@Base 4:15.08.0
 _ZN17IncidenceEditorNG14GlobalSettingsD0Ev@Base 4:15.08.0
 _ZN17IncidenceEditorNG14GlobalSettingsD1Ev@Base 4:15.08.0
 _ZN17IncidenceEditorNG14GlobalSettingsD2Ev@Base 4:15.08.0
 _ZN17IncidenceEditorNG14IncidenceAlarm11qt_metacallEN11QMetaObject4CallEiPPv@Base 4:15.08.0
 _ZN17IncidenceEditorNG14IncidenceAlarm11qt_metacastEPKc@Base 4:15.08.0
 _ZN17IncidenceEditorNG14IncidenceAlarm13updateButtonsEv@Base 4:15.08.0
 _ZN17IncidenceEditorNG14IncidenceAlarm14stringForAlarmERK14QSharedPointerIN8KCalCore5AlarmEE@Base 4:15.08.0
 _ZN17IncidenceEditorNG14IncidenceAlarm15updateAlarmListEv@Base 4:15.08.0
 _ZN17IncidenceEditorNG14IncidenceAlarm16editCurrentAlarmEv@Base 4:15.08.0
 _ZN17IncidenceEditorNG14IncidenceAlarm16staticMetaObjectE@Base 4:15.08.0
 _ZN17IncidenceEditorNG14IncidenceAlarm17alarmCountChangedEi@Base 4:15.08.0
 _ZN17IncidenceEditorNG14IncidenceAlarm18newAlarmFromPresetEv@Base 4:15.08.0
 _ZN17IncidenceEditorNG14IncidenceAlarm18removeCurrentAlarmEv@Base 4:15.08.0
 _ZN17IncidenceEditorNG14IncidenceAlarm18toggleCurrentAlarmEv@Base 4:15.08.0
 _ZN17IncidenceEditorNG14IncidenceAlarm20handleDateTimeToggleEv@Base 4:15.08.0
 _ZN17IncidenceEditorNG14IncidenceAlarm4loadERK14QSharedPointerIN8KCalCore9IncidenceEE@Base 4:15.08.0
 _ZN17IncidenceEditorNG14IncidenceAlarm4saveERK14QSharedPointerIN8KCalCore9IncidenceEE@Base 4:15.08.0
 _ZN17IncidenceEditorNG14IncidenceAlarm8newAlarmEv@Base 4:15.08.0
 _ZN17IncidenceEditorNG14IncidenceAlarmC1EPNS_17IncidenceDateTimeEPN2Ui18EventOrTodoDesktopE@Base 4:15.08.0
 _ZN17IncidenceEditorNG14IncidenceAlarmC2EPNS_17IncidenceDateTimeEPN2Ui18EventOrTodoDesktopE@Base 4:15.08.0
 _ZN17IncidenceEditorNG15IncidenceDialog10closeEventEP11QCloseEvent@Base 4:15.08.0
 _ZN17IncidenceEditorNG15IncidenceDialog10readConfigEv@Base 4:15.08.0
 _ZN17IncidenceEditorNG15IncidenceDialog11qt_metacallEN11QMetaObject4CallEiPPv@Base 4:15.08.0
 _ZN17IncidenceEditorNG15IncidenceDialog11qt_metacastEPKc@Base 4:15.08.0
 _ZN17IncidenceEditorNG15IncidenceDialog11writeConfigEv@Base 4:15.08.0
 _ZN17IncidenceEditorNG15IncidenceDialog16incidenceCreatedERKN7Akonadi4ItemE@Base 4:15.08.0
 _ZN17IncidenceEditorNG15IncidenceDialog16selectCollectionERKN7Akonadi10CollectionE@Base 4:15.08.0
 _ZN17IncidenceEditorNG15IncidenceDialog16staticMetaObjectE@Base 4:15.08.0
 _ZN17IncidenceEditorNG15IncidenceDialog17setInitiallyDirtyEb@Base 4:15.08.0
 _ZN17IncidenceEditorNG15IncidenceDialog17slotButtonClickedEi@Base 4:15.08.0
 _ZN17IncidenceEditorNG15IncidenceDialog20setIsCounterProposalEb@Base 4:15.08.0
 _ZN17IncidenceEditorNG15IncidenceDialog30handleSelectedCollectionChangeERKN7Akonadi10CollectionE@Base 4:15.08.0
 _ZN17IncidenceEditorNG15IncidenceDialog4loadERKN7Akonadi4ItemERK5QDate@Base 4:15.08.0
 _ZN17IncidenceEditorNG15IncidenceDialogC1EPN7Akonadi16IncidenceChangerEP7QWidget6QFlagsIN2Qt10WindowTypeEE@Base 4:15.08.0
 _ZN17IncidenceEditorNG15IncidenceDialogC2EPN7Akonadi16IncidenceChangerEP7QWidget6QFlagsIN2Qt10WindowTypeEE@Base 4:15.08.0
 _ZN17IncidenceEditorNG15IncidenceDialogD0Ev@Base 4:15.08.0
 _ZN17IncidenceEditorNG15IncidenceDialogD1Ev@Base 4:15.08.0
 _ZN17IncidenceEditorNG15IncidenceDialogD2Ev@Base 4:15.08.0
 _ZN17IncidenceEditorNG15IncidenceEditor11qt_metacallEN11QMetaObject4CallEiPPv@Base 4:15.08.0
 _ZN17IncidenceEditorNG15IncidenceEditor11qt_metacastEPKc@Base 4:15.08.0
 _ZN17IncidenceEditorNG15IncidenceEditor16checkDirtyStatusEv@Base 4:15.08.0
 _ZN17IncidenceEditorNG15IncidenceEditor16staticMetaObjectE@Base 4:15.08.0
 _ZN17IncidenceEditorNG15IncidenceEditor17focusInvalidFieldEv@Base 4:15.08.0
 _ZN17IncidenceEditorNG15IncidenceEditor18dirtyStatusChangedEb@Base 4:15.08.0
 _ZN17IncidenceEditorNG15IncidenceEditor4loadERKN7Akonadi4ItemE@Base 4:15.08.0
 _ZN17IncidenceEditorNG15IncidenceEditor4saveERN7Akonadi4ItemE@Base 4:15.08.0
 _ZN17IncidenceEditorNG15IncidenceEditorC1EP7QObject@Base 4:15.08.0
 _ZN17IncidenceEditorNG15IncidenceEditorC2EP7QObject@Base 4:15.08.0
 _ZN17IncidenceEditorNG15IncidenceEditorD0Ev@Base 4:15.08.0
 _ZN17IncidenceEditorNG15IncidenceEditorD1Ev@Base 4:15.08.0
 _ZN17IncidenceEditorNG15IncidenceEditorD2Ev@Base 4:15.08.0
 _ZN17IncidenceEditorNG16AttendeeComboBox11itemChangedEv@Base 4:15.08.0
 _ZN17IncidenceEditorNG16AttendeeComboBox11leftPressedEv@Base 4:15.08.0
 _ZN17IncidenceEditorNG16AttendeeComboBox11qt_metacallEN11QMetaObject4CallEiPPv@Base 4:15.08.0
 _ZN17IncidenceEditorNG16AttendeeComboBox11qt_metacastEPKc@Base 4:15.08.0
 _ZN17IncidenceEditorNG16AttendeeComboBox12rightPressedEv@Base 4:15.08.0
 _ZN17IncidenceEditorNG16AttendeeComboBox13keyPressEventEP9QKeyEvent@Base 4:15.08.0
 _ZN17IncidenceEditorNG16AttendeeComboBox15setCurrentIndexEi@Base 4:15.08.0
 _ZN17IncidenceEditorNG16AttendeeComboBox16staticMetaObjectE@Base 4:15.08.0
 _ZN17IncidenceEditorNG16AttendeeComboBox19slotActionTriggeredEv@Base 4:15.08.0
 _ZN17IncidenceEditorNG16AttendeeComboBox5clearEv@Base 4:15.08.0
 _ZN17IncidenceEditorNG16AttendeeComboBox7addItemERK5QIconRK7QString@Base 4:15.08.0
 _ZN17IncidenceEditorNG16AttendeeComboBox8addItemsERK11QStringList@Base 4:15.08.0
 _ZN17IncidenceEditorNG16AttendeeComboBoxC1EP7QWidget@Base 4:15.08.0
 _ZN17IncidenceEditorNG16AttendeeComboBoxC2EP7QWidget@Base 4:15.08.0
 _ZN17IncidenceEditorNG16AttendeeLineEdit11downPressedEv@Base 4:15.08.0
 _ZN17IncidenceEditorNG16AttendeeLineEdit11leftPressedEv@Base 4:15.08.0
 _ZN17IncidenceEditorNG16AttendeeLineEdit11qt_metacallEN11QMetaObject4CallEiPPv@Base 4:15.08.0
 _ZN17IncidenceEditorNG16AttendeeLineEdit11qt_metacastEPKc@Base 4:15.08.0
 _ZN17IncidenceEditorNG16AttendeeLineEdit12rightPressedEv@Base 4:15.08.0
 _ZN17IncidenceEditorNG16AttendeeLineEdit13keyPressEventEP9QKeyEvent@Base 4:15.08.0
 _ZN17IncidenceEditorNG16AttendeeLineEdit16staticMetaObjectE@Base 4:15.08.0
 _ZN17IncidenceEditorNG16AttendeeLineEdit8deleteMeEv@Base 4:15.08.0
 _ZN17IncidenceEditorNG16AttendeeLineEdit9upPressedEv@Base 4:15.08.0
 _ZN17IncidenceEditorNG16AttendeeLineEditC1EP7QWidget@Base 4:15.08.0
 _ZN17IncidenceEditorNG16AttendeeLineEditC2EP7QWidget@Base 4:15.08.0
 _ZN17IncidenceEditorNG16ConflictResolver11qt_metacallEN11QMetaObject4CallEiPPv@Base 4:15.08.0
 _ZN17IncidenceEditorNG16ConflictResolver11qt_metacastEPKc@Base 4:15.08.0
 _ZN17IncidenceEditorNG16ConflictResolver12findFreeSlotERKN8KCalCore6PeriodE@Base 4:15.08.0
 _ZN17IncidenceEditorNG16ConflictResolver13setLatestDateERK5QDate@Base 4:15.08.0
 _ZN17IncidenceEditorNG16ConflictResolver13setLatestTimeERK5QTime@Base 4:15.08.0
 _ZN17IncidenceEditorNG16ConflictResolver13setResolutionEi@Base 4:15.08.0
 _ZN17IncidenceEditorNG16ConflictResolver14clearAttendeesEv@Base 4:15.08.0
 _ZN17IncidenceEditorNG16ConflictResolver14insertAttendeeERK14QSharedPointerIN4KPIM12FreeBusyItemEE@Base 4:15.08.0
 _ZN17IncidenceEditorNG16ConflictResolver14insertAttendeeERK14QSharedPointerIN8KCalCore8AttendeeEE@Base 4:15.08.0
 _ZN17IncidenceEditorNG16ConflictResolver14removeAttendeeERK14QSharedPointerIN8KCalCore8AttendeeEE@Base 4:15.08.0
 _ZN17IncidenceEditorNG16ConflictResolver15setEarliestDateERK5QDate@Base 4:15.08.0
 _ZN17IncidenceEditorNG16ConflictResolver15setEarliestTimeERK5QTime@Base 4:15.08.0
 _ZN17IncidenceEditorNG16ConflictResolver16containsAttendeeERK14QSharedPointerIN8KCalCore8AttendeeEE@Base 4:15.08.0
 _ZN17IncidenceEditorNG16ConflictResolver16dateTimesChangedERK9KDateTimeS3_@Base 4:15.08.0
 _ZN17IncidenceEditorNG16ConflictResolver16findAllFreeSlotsEv@Base 4:15.08.0
 _ZN17IncidenceEditorNG16ConflictResolver16staticMetaObjectE@Base 4:15.08.0
 _ZN17IncidenceEditorNG16ConflictResolver17conflictsDetectedEi@Base 4:15.08.0
 _ZN17IncidenceEditorNG16ConflictResolver17setLatestDateTimeERK9KDateTime@Base 4:15.08.0
 _ZN17IncidenceEditorNG16ConflictResolver17setMandatoryRolesERK4QSetIN8KCalCore8Attendee4RoleEE@Base 4:15.08.0
 _ZN17IncidenceEditorNG16ConflictResolver18calculateConflictsEv@Base 4:15.08.0
 _ZN17IncidenceEditorNG16ConflictResolver18freeSlotsAvailableERK7QVectorIN8KCalCore6PeriodEE@Base 4:15.08.0
 _ZN17IncidenceEditorNG16ConflictResolver18setAllowedWeekdaysERK9QBitArray@Base 4:15.08.0
 _ZN17IncidenceEditorNG16ConflictResolver19freebusyDataChangedEv@Base 4:15.08.0
 _ZN17IncidenceEditorNG16ConflictResolver19setEarliestDateTimeERK9KDateTime@Base 4:15.08.0
 _ZN17IncidenceEditorNG16ConflictResolver21matchesRoleConstraintERK14QSharedPointerIN8KCalCore8AttendeeEE@Base 4:15.08.0
 _ZN17IncidenceEditorNG16ConflictResolver7tryDateER9KDateTimeS2_@Base 4:15.08.0
 _ZN17IncidenceEditorNG16ConflictResolver7tryDateERK14QSharedPointerIN8KCalCore8FreeBusyEER9KDateTimeS8_@Base 4:15.08.0
 _ZN17IncidenceEditorNG16ConflictResolverC1EP7QWidgetP7QObject@Base 4:15.08.0
 _ZN17IncidenceEditorNG16ConflictResolverC2EP7QWidgetP7QObject@Base 4:15.08.0
 _ZN17IncidenceEditorNG16IncidenceSecrecy11qt_metacallEN11QMetaObject4CallEiPPv@Base 4:15.08.0
 _ZN17IncidenceEditorNG16IncidenceSecrecy11qt_metacastEPKc@Base 4:15.08.0
 _ZN17IncidenceEditorNG16IncidenceSecrecy16staticMetaObjectE@Base 4:15.08.0
 _ZN17IncidenceEditorNG16IncidenceSecrecy4loadERK14QSharedPointerIN8KCalCore9IncidenceEE@Base 4:15.08.0
 _ZN17IncidenceEditorNG16IncidenceSecrecy4saveERK14QSharedPointerIN8KCalCore9IncidenceEE@Base 4:15.08.0
 _ZN17IncidenceEditorNG16IncidenceSecrecyC1EPN2Ui18EventOrTodoDesktopE@Base 4:15.08.0
 _ZN17IncidenceEditorNG16IncidenceSecrecyC2EPN2Ui18EventOrTodoDesktopE@Base 4:15.08.0
 _ZN17IncidenceEditorNG16SchedulingDialog10fillCombosEv@Base 4:15.08.0
 _ZN17IncidenceEditorNG16SchedulingDialog11qt_metacallEN11QMetaObject4CallEiPPv@Base 4:15.08.0
 _ZN17IncidenceEditorNG16SchedulingDialog11qt_metacastEPKc@Base 4:15.08.0
 _ZN17IncidenceEditorNG16SchedulingDialog14endDateChangedERK5QDate@Base 4:15.08.0
 _ZN17IncidenceEditorNG16SchedulingDialog14endTimeChangedERK5QTime@Base 4:15.08.0
 _ZN17IncidenceEditorNG16SchedulingDialog14updateWeekDaysERK5QDate@Base 4:15.08.0
 _ZN17IncidenceEditorNG16SchedulingDialog16startDateChangedERK5QDate@Base 4:15.08.0
 _ZN17IncidenceEditorNG16SchedulingDialog16startTimeChangedERK5QTime@Base 4:15.08.0
 _ZN17IncidenceEditorNG16SchedulingDialog16staticMetaObjectE@Base 4:15.08.0
 _ZN17IncidenceEditorNG16SchedulingDialog19slotSetEndTimeLabelERK5QTime@Base 4:15.08.0
 _ZN17IncidenceEditorNG16SchedulingDialog19slotWeekdaysChangedEv@Base 4:15.08.0
 _ZN17IncidenceEditorNG16SchedulingDialog20slotStartDateChangedERK5QDate@Base 4:15.08.0
 _ZN17IncidenceEditorNG16SchedulingDialog23slotRowSelectionChangedERK11QModelIndexS3_@Base 4:15.08.0
 _ZN17IncidenceEditorNG16SchedulingDialog25slotMandatoryRolesChangedEv@Base 4:15.08.0
 _ZN17IncidenceEditorNG16SchedulingDialog27slotUpdateIncidenceStartEndERK9KDateTimeS3_@Base 4:15.08.0
 _ZN17IncidenceEditorNG16SchedulingDialogC1ERK5QDateRK5QTimeiPNS_16ConflictResolverEP7QWidget@Base 4:15.08.0
 _ZN17IncidenceEditorNG16SchedulingDialogC2ERK5QDateRK5QTimeiPNS_16ConflictResolverEP7QWidget@Base 4:15.08.0
 _ZN17IncidenceEditorNG16SchedulingDialogD0Ev@Base 4:15.08.0
 _ZN17IncidenceEditorNG16SchedulingDialogD1Ev@Base 4:15.08.0
 _ZN17IncidenceEditorNG16SchedulingDialogD2Ev@Base 4:15.08.0
 _ZN17IncidenceEditorNG17EditorItemManager10fetchScopeEv@Base 4:15.08.0
 _ZN17IncidenceEditorNG17EditorItemManager11qt_metacallEN11QMetaObject4CallEiPPv@Base 4:15.08.0
 _ZN17IncidenceEditorNG17EditorItemManager11qt_metacastEPKc@Base 4:15.08.0
 _ZN17IncidenceEditorNG17EditorItemManager12revertFailedERK7QString@Base 4:15.08.0
 _ZN17IncidenceEditorNG17EditorItemManager13setFetchScopeERKN7Akonadi14ItemFetchScopeE@Base 4:15.08.0
 _ZN17IncidenceEditorNG17EditorItemManager14itemSaveFailedENS0_10SaveActionERK7QString@Base 4:15.08.0
 _ZN17IncidenceEditorNG17EditorItemManager14revertFinishedEv@Base 4:15.08.0
 _ZN17IncidenceEditorNG17EditorItemManager16itemSaveFinishedENS0_10SaveActionE@Base 4:15.08.0
 _ZN17IncidenceEditorNG17EditorItemManager16staticMetaObjectE@Base 4:15.08.0
 _ZN17IncidenceEditorNG17EditorItemManager20setIsCounterProposalEb@Base 4:15.08.0
 _ZN17IncidenceEditorNG17EditorItemManager4loadERKN7Akonadi4ItemE@Base 4:15.08.0
 _ZN17IncidenceEditorNG17EditorItemManager4saveEv@Base 4:15.08.0
 _ZN17IncidenceEditorNG17EditorItemManagerC1EPNS_12ItemEditorUiEPN7Akonadi16IncidenceChangerE@Base 4:15.08.0
 _ZN17IncidenceEditorNG17EditorItemManagerC2EPNS_12ItemEditorUiEPN7Akonadi16IncidenceChangerE@Base 4:15.08.0
 _ZN17IncidenceEditorNG17EditorItemManagerD0Ev@Base 4:15.08.0
 _ZN17IncidenceEditorNG17EditorItemManagerD1Ev@Base 4:15.08.0
 _ZN17IncidenceEditorNG17EditorItemManagerD2Ev@Base 4:15.08.0
 _ZN17IncidenceEditorNG17FreeBusyUrlDialog11qt_metacallEN11QMetaObject4CallEiPPv@Base 4:15.08.0
 _ZN17IncidenceEditorNG17FreeBusyUrlDialog11qt_metacastEPKc@Base 4:15.08.0
 _ZN17IncidenceEditorNG17FreeBusyUrlDialog16staticMetaObjectE@Base 4:15.08.0
 _ZN17IncidenceEditorNG17FreeBusyUrlDialog6slotOkEv@Base 4:15.08.0
 _ZN17IncidenceEditorNG17FreeBusyUrlDialogC1ERK14QSharedPointerINS_12AttendeeDataEEP7QWidget@Base 4:15.08.0
 _ZN17IncidenceEditorNG17FreeBusyUrlDialogC2ERK14QSharedPointerINS_12AttendeeDataEEP7QWidget@Base 4:15.08.0
 _ZN17IncidenceEditorNG17FreeBusyUrlWidget10loadConfigEv@Base 4:15.08.0
 _ZN17IncidenceEditorNG17FreeBusyUrlWidget10saveConfigEv@Base 4:15.08.0
 _ZN17IncidenceEditorNG17FreeBusyUrlWidget11qt_metacallEN11QMetaObject4CallEiPPv@Base 4:15.08.0
 _ZN17IncidenceEditorNG17FreeBusyUrlWidget11qt_metacastEPKc@Base 4:15.08.0
 _ZN17IncidenceEditorNG17FreeBusyUrlWidget16staticMetaObjectE@Base 4:15.08.0
 _ZN17IncidenceEditorNG17FreeBusyUrlWidgetC1ERK14QSharedPointerINS_12AttendeeDataEEP7QWidget@Base 4:15.08.0
 _ZN17IncidenceEditorNG17FreeBusyUrlWidgetC2ERK14QSharedPointerINS_12AttendeeDataEEP7QWidget@Base 4:15.08.0
 _ZN17IncidenceEditorNG17FreeBusyUrlWidgetD0Ev@Base 4:15.08.0
 _ZN17IncidenceEditorNG17FreeBusyUrlWidgetD1Ev@Base 4:15.08.0
 _ZN17IncidenceEditorNG17FreeBusyUrlWidgetD2Ev@Base 4:15.08.0
 _ZN17IncidenceEditorNG17IncidenceAttendee10setActionsEN8KCalCore13IncidenceBase13IncidenceTypeE@Base 4:15.08.0
 _ZN17IncidenceEditorNG17IncidenceAttendee11acceptForMeEv@Base 4:15.08.0
 _ZN17IncidenceEditorNG17IncidenceAttendee11qt_metacallEN11QMetaObject4CallEiPPv@Base 4:15.08.0
 _ZN17IncidenceEditorNG17IncidenceAttendee11qt_metacastEPKc@Base 4:15.08.0
 _ZN17IncidenceEditorNG17IncidenceAttendee11updateCountEv@Base 4:15.08.0
 _ZN17IncidenceEditorNG17IncidenceAttendee12declineForMeEv@Base 4:15.08.0
 _ZN17IncidenceEditorNG17IncidenceAttendee12expandResultEP4KJob@Base 4:15.08.0
 _ZN17IncidenceEditorNG17IncidenceAttendee14updateFBStatusERK14QSharedPointerIN8KCalCore8AttendeeEERKS1_INS2_8FreeBusyEE@Base 4:15.08.0
 _ZN17IncidenceEditorNG17IncidenceAttendee14updateFBStatusEv@Base 4:15.08.0
 _ZN17IncidenceEditorNG17IncidenceAttendee16staticMetaObjectE@Base 4:15.08.0
 _ZN17IncidenceEditorNG17IncidenceAttendee17changeStatusForMeEN8KCalCore8Attendee8PartStatE@Base 4:15.08.0
 _ZN17IncidenceEditorNG17IncidenceAttendee17groupSearchResultEP4KJob@Base 4:15.08.0
 _ZN17IncidenceEditorNG17IncidenceAttendee17slotFreeBusyAddedERK11QModelIndexii@Base 4:15.08.0
 _ZN17IncidenceEditorNG17IncidenceAttendee17updateGroupExpandEv@Base 4:15.08.0
 _ZN17IncidenceEditorNG17IncidenceAttendee18fillOrganizerComboEv@Base 4:15.08.0
 _ZN17IncidenceEditorNG17IncidenceAttendee19filterLayoutChangedEv@Base 4:15.08.0
 _ZN17IncidenceEditorNG17IncidenceAttendee19slotFreeBusyChangedERK11QModelIndexS3_@Base 4:15.08.0
 _ZN17IncidenceEditorNG17IncidenceAttendee19slotSelectAddressesEv@Base 4:15.08.0
 _ZN17IncidenceEditorNG17IncidenceAttendee20attendeeCountChangedEi@Base 4:15.08.0
 _ZN17IncidenceEditorNG17IncidenceAttendee20slotOrganizerChangedERK7QString@Base 4:15.08.0
 _ZN17IncidenceEditorNG17IncidenceAttendee23slotUpdateConflictLabelEi@Base 4:15.08.0
 _ZN17IncidenceEditorNG17IncidenceAttendee24checkIfExpansionIsNeededERK14QSharedPointerIN8KCalCore8AttendeeEE@Base 4:15.08.0
 _ZN17IncidenceEditorNG17IncidenceAttendee24slotEventDurationChangedEv@Base 4:15.08.0
 _ZN17IncidenceEditorNG17IncidenceAttendee24slotSolveConflictPressedEv@Base 4:15.08.0
 _ZN17IncidenceEditorNG17IncidenceAttendee27insertAttendeeFromAddresseeERKN9KContacts9AddresseeEi@Base 4:15.08.0
 _ZN17IncidenceEditorNG17IncidenceAttendee28slotGroupSubstitutionPressedEv@Base 4:15.08.0
 _ZN17IncidenceEditorNG17IncidenceAttendee33slotConflictResolverAttendeeAddedERK11QModelIndexii@Base 4:15.08.0
 _ZN17IncidenceEditorNG17IncidenceAttendee33slotConflictResolverLayoutChangedEv@Base 4:15.08.0
 _ZN17IncidenceEditorNG17IncidenceAttendee34slotGroupSubstitutionAttendeeAddedERK11QModelIndexii@Base 4:15.08.0
 _ZN17IncidenceEditorNG17IncidenceAttendee34slotGroupSubstitutionLayoutChangedEv@Base 4:15.08.0
 _ZN17IncidenceEditorNG17IncidenceAttendee35slotConflictResolverAttendeeChangedERK11QModelIndexS3_@Base 4:15.08.0
 _ZN17IncidenceEditorNG17IncidenceAttendee35slotConflictResolverAttendeeRemovedERK11QModelIndexii@Base 4:15.08.0
 _ZN17IncidenceEditorNG17IncidenceAttendee36slotGroupSubstitutionAttendeeChangedERK11QModelIndexS3_@Base 4:15.08.0
 _ZN17IncidenceEditorNG17IncidenceAttendee36slotGroupSubstitutionAttendeeRemovedERK11QModelIndexii@Base 4:15.08.0
 _ZN17IncidenceEditorNG17IncidenceAttendee4loadERK14QSharedPointerIN8KCalCore9IncidenceEE@Base 4:15.08.0
 _ZN17IncidenceEditorNG17IncidenceAttendee4saveERK14QSharedPointerIN8KCalCore9IncidenceEE@Base 4:15.08.0
 _ZN17IncidenceEditorNG17IncidenceAttendeeC1EP7QWidgetPNS_17IncidenceDateTimeEPN2Ui18EventOrTodoDesktopE@Base 4:15.08.0
 _ZN17IncidenceEditorNG17IncidenceAttendeeC2EP7QWidgetPNS_17IncidenceDateTimeEPN2Ui18EventOrTodoDesktopE@Base 4:15.08.0
 _ZN17IncidenceEditorNG17IncidenceAttendeeD0Ev@Base 4:15.08.0
 _ZN17IncidenceEditorNG17IncidenceAttendeeD1Ev@Base 4:15.08.0
 _ZN17IncidenceEditorNG17IncidenceAttendeeD2Ev@Base 4:15.08.0
 _ZN17IncidenceEditorNG17IncidenceDateTime11eventFilterEP7QObjectP6QEvent@Base 4:15.08.0
 _ZN17IncidenceEditorNG17IncidenceDateTime11qt_metacallEN11QMetaObject4CallEiPPv@Base 4:15.08.0
 _ZN17IncidenceEditorNG17IncidenceDateTime11qt_metacastEPKc@Base 4:15.08.0
 _ZN17IncidenceEditorNG17IncidenceDateTime12endDateFocusEP7QObject@Base 4:15.08.0
 _ZN17IncidenceEditorNG17IncidenceDateTime12endTimeFocusEP7QObject@Base 4:15.08.0
 _ZN17IncidenceEditorNG17IncidenceDateTime12setDateTimesERK9KDateTimeS3_@Base 4:15.08.0
 _ZN17IncidenceEditorNG17IncidenceDateTime12setStartDateERK5QDate@Base 4:15.08.0
 _ZN17IncidenceEditorNG17IncidenceDateTime12setStartTimeERK5QTime@Base 4:15.08.0
 _ZN17IncidenceEditorNG17IncidenceDateTime13enableEndEditEb@Base 4:15.08.0
 _ZN17IncidenceEditorNG17IncidenceDateTime13setActiveDateERK5QDate@Base 4:15.08.0
 _ZN17IncidenceEditorNG17IncidenceDateTime14endDateChangedERK5QDate@Base 4:15.08.0
 _ZN17IncidenceEditorNG17IncidenceDateTime14endTimeChangedERK5QTime@Base 4:15.08.0
 _ZN17IncidenceEditorNG17IncidenceDateTime14startDateFocusEP7QObject@Base 4:15.08.0
 _ZN17IncidenceEditorNG17IncidenceDateTime14startTimeFocusEP7QObject@Base 4:15.08.0
 _ZN17IncidenceEditorNG17IncidenceDateTime15enableStartEditEb@Base 4:15.08.0
 _ZN17IncidenceEditorNG17IncidenceDateTime15enableTimeEditsEv@Base 4:15.08.0
 _ZN17IncidenceEditorNG17IncidenceDateTime15updateStartDateERK5QDate@Base 4:15.08.0
 _ZN17IncidenceEditorNG17IncidenceDateTime15updateStartSpecEv@Base 4:15.08.0
 _ZN17IncidenceEditorNG17IncidenceDateTime15updateStartTimeERK5QTime@Base 4:15.08.0
 _ZN17IncidenceEditorNG17IncidenceDateTime16startDateChangedERK5QDate@Base 4:15.08.0
 _ZN17IncidenceEditorNG17IncidenceDateTime16startTimeChangedERK5QTime@Base 4:15.08.0
 _ZN17IncidenceEditorNG17IncidenceDateTime16staticMetaObjectE@Base 4:15.08.0
 _ZN17IncidenceEditorNG17IncidenceDateTime17timeZonesAreLocalERK9KDateTimeS3_@Base 4:15.08.0
 _ZN17IncidenceEditorNG17IncidenceDateTime17updateEndToolTipsEv@Base 4:15.08.0
 _ZN17IncidenceEditorNG17IncidenceDateTime18endDateTimeToggledEb@Base 4:15.08.0
 _ZN17IncidenceEditorNG17IncidenceDateTime19updateStartToolTipsEv@Base 4:15.08.0
 _ZN17IncidenceEditorNG17IncidenceDateTime20startDateTimeToggledEb@Base 4:15.08.0
 _ZN17IncidenceEditorNG17IncidenceDateTime22setTimeZonesVisibilityEb@Base 4:15.08.0
 _ZN17IncidenceEditorNG17IncidenceDateTime23setTimeZoneLabelEnabledEb@Base 4:15.08.0
 _ZN17IncidenceEditorNG17IncidenceDateTime24toggleTimeZoneVisibilityEv@Base 4:15.08.0
 _ZN17IncidenceEditorNG17IncidenceDateTime4loadERK14QSharedPointerIN8KCalCore4TodoEEbb@Base 4:15.08.0
 _ZN17IncidenceEditorNG17IncidenceDateTime4loadERK14QSharedPointerIN8KCalCore5EventEEbb@Base 4:15.08.0
 _ZN17IncidenceEditorNG17IncidenceDateTime4loadERK14QSharedPointerIN8KCalCore7JournalEEbb@Base 4:15.08.0
 _ZN17IncidenceEditorNG17IncidenceDateTime4loadERK14QSharedPointerIN8KCalCore9IncidenceEE@Base 4:15.08.0
 _ZN17IncidenceEditorNG17IncidenceDateTime4saveERK14QSharedPointerIN8KCalCore4TodoEE@Base 4:15.08.0
 _ZN17IncidenceEditorNG17IncidenceDateTime4saveERK14QSharedPointerIN8KCalCore5EventEE@Base 4:15.08.0
 _ZN17IncidenceEditorNG17IncidenceDateTime4saveERK14QSharedPointerIN8KCalCore7JournalEE@Base 4:15.08.0
 _ZN17IncidenceEditorNG17IncidenceDateTime4saveERK14QSharedPointerIN8KCalCore9IncidenceEE@Base 4:15.08.0
 _ZN17IncidenceEditorNG17IncidenceDateTime8setTimesERK9KDateTimeS3_@Base 4:15.08.0
 _ZN17IncidenceEditorNG17IncidenceDateTimeC1EPN2Ui18EventOrTodoDesktopE@Base 4:15.08.0
 _ZN17IncidenceEditorNG17IncidenceDateTimeC2EPN2Ui18EventOrTodoDesktopE@Base 4:15.08.0
 _ZN17IncidenceEditorNG17IncidenceDateTimeD0Ev@Base 4:15.08.0
 _ZN17IncidenceEditorNG17IncidenceDateTimeD1Ev@Base 4:15.08.0
 _ZN17IncidenceEditorNG17IncidenceDateTimeD2Ev@Base 4:15.08.0
 _ZN17IncidenceEditorNG17IncidenceDefaults12setAttendeesERK11QStringList@Base 4:15.08.0
 _ZN17IncidenceEditorNG17IncidenceDefaults13setFullEmailsERK11QStringList@Base 4:15.08.0
 _ZN17IncidenceEditorNG17IncidenceDefaults14setAttachmentsERK11QStringListS3_S3_b@Base 4:15.08.0
 _ZN17IncidenceEditorNG17IncidenceDefaults14setEndDateTimeERK9KDateTime@Base 4:15.08.0
 _ZN17IncidenceEditorNG17IncidenceDefaults16setStartDateTimeERK9KDateTime@Base 4:15.08.0
 _ZN17IncidenceEditorNG17IncidenceDefaults18setGroupWareDomainERK7QString@Base 4:15.08.0
 _ZN17IncidenceEditorNG17IncidenceDefaults19invalidEmailAddressEv@Base 4:15.08.0
 _ZN17IncidenceEditorNG17IncidenceDefaults19setRelatedIncidenceERK14QSharedPointerIN8KCalCore9IncidenceEE@Base 4:15.08.0
 _ZN17IncidenceEditorNG17IncidenceDefaults24minimalIncidenceDefaultsEb@Base 4:15.08.0
 _ZN17IncidenceEditorNG17IncidenceDefaultsC1ERKS0_@Base 4:15.08.0
 _ZN17IncidenceEditorNG17IncidenceDefaultsC1Eb@Base 4:15.08.0
 _ZN17IncidenceEditorNG17IncidenceDefaultsC2ERKS0_@Base 4:15.08.0
 _ZN17IncidenceEditorNG17IncidenceDefaultsC2Eb@Base 4:15.08.0
 _ZN17IncidenceEditorNG17IncidenceDefaultsD1Ev@Base 4:15.08.0
 _ZN17IncidenceEditorNG17IncidenceDefaultsD2Ev@Base 4:15.08.0
 _ZN17IncidenceEditorNG17IncidenceDefaultsaSERKS0_@Base 4:15.08.0
 _ZN17IncidenceEditorNG17IncidenceResource11qt_metacallEN11QMetaObject4CallEiPPv@Base 4:15.08.0
 _ZN17IncidenceEditorNG17IncidenceResource11qt_metacastEPKc@Base 4:15.08.0
 _ZN17IncidenceEditorNG17IncidenceResource11updateCountEv@Base 4:15.08.0
 _ZN17IncidenceEditorNG17IncidenceResource12bookResourceEv@Base 4:15.08.0
 _ZN17IncidenceEditorNG17IncidenceResource13findResourcesEv@Base 4:15.08.0
 _ZN17IncidenceEditorNG17IncidenceResource13layoutChangedEv@Base 4:15.08.0
 _ZN17IncidenceEditorNG17IncidenceResource15dialogOkPressedEv@Base 4:15.08.0
 _ZN17IncidenceEditorNG17IncidenceResource15slotDateChangedEv@Base 4:15.08.0
 _ZN17IncidenceEditorNG17IncidenceResource16staticMetaObjectE@Base 4:15.08.0
 _ZN17IncidenceEditorNG17IncidenceResource20resourceCountChangedEi@Base 4:15.08.0
 _ZN17IncidenceEditorNG17IncidenceResource4loadERK14QSharedPointerIN8KCalCore9IncidenceEE@Base 4:15.08.0
 _ZN17IncidenceEditorNG17IncidenceResource4saveERK14QSharedPointerIN8KCalCore9IncidenceEE@Base 4:15.08.0
 _ZN17IncidenceEditorNG17IncidenceResourceC1EPNS_17IncidenceAttendeeEPNS_17IncidenceDateTimeEPN2Ui18EventOrTodoDesktopE@Base 4:15.08.0
 _ZN17IncidenceEditorNG17IncidenceResourceC2EPNS_17IncidenceAttendeeEPNS_17IncidenceDateTimeEPN2Ui18EventOrTodoDesktopE@Base 4:15.08.0
 _ZN17IncidenceEditorNG17KTimeZoneComboBox11qt_metacallEN11QMetaObject4CallEiPPv@Base 4:15.08.0
 _ZN17IncidenceEditorNG17KTimeZoneComboBox11qt_metacastEPKc@Base 4:15.08.0
 _ZN17IncidenceEditorNG17KTimeZoneComboBox11setFloatingEbRKN9KDateTime4SpecE@Base 4:15.08.0
 _ZN17IncidenceEditorNG17KTimeZoneComboBox14selectTimeSpecERKN9KDateTime4SpecE@Base 4:15.08.0
 _ZN17IncidenceEditorNG17KTimeZoneComboBox16staticMetaObjectE@Base 4:15.08.0
 _ZN17IncidenceEditorNG17KTimeZoneComboBox19selectLocalTimeSpecEv@Base 4:15.08.0
 _ZN17IncidenceEditorNG17KTimeZoneComboBox22setAdditionalTimeZonesEPKN8KCalCore13ICalTimeZonesE@Base 4:15.08.0
 _ZN17IncidenceEditorNG17KTimeZoneComboBox7Private12fillComboBoxEv@Base 4:15.08.0
 _ZN17IncidenceEditorNG17KTimeZoneComboBoxC1EP7QWidget@Base 4:15.08.0
 _ZN17IncidenceEditorNG17KTimeZoneComboBoxC1EPKN8KCalCore13ICalTimeZonesEP7QWidget@Base 4:15.08.0
 _ZN17IncidenceEditorNG17KTimeZoneComboBoxC2EP7QWidget@Base 4:15.08.0
 _ZN17IncidenceEditorNG17KTimeZoneComboBoxC2EPKN8KCalCore13ICalTimeZonesEP7QWidget@Base 4:15.08.0
 _ZN17IncidenceEditorNG17KTimeZoneComboBoxD0Ev@Base 4:15.08.0
 _ZN17IncidenceEditorNG17KTimeZoneComboBoxD1Ev@Base 4:15.08.0
 _ZN17IncidenceEditorNG17KTimeZoneComboBoxD2Ev@Base 4:15.08.0
 _ZN17IncidenceEditorNG18AttachmentIconItem11setMimeTypeERK7QString@Base 4:15.08.0
 _ZN17IncidenceEditorNG18AttachmentIconItem14readAttachmentEv@Base 4:15.08.0
 _ZN17IncidenceEditorNG18AttachmentIconItem4iconERK9QMimeTypeRK7QStringb@Base 4:15.08.0
 _ZN17IncidenceEditorNG18AttachmentIconItem6setUriERK7QString@Base 4:15.08.0
 _ZN17IncidenceEditorNG18AttachmentIconItem7setDataERK10QByteArray@Base 4:15.08.0
 _ZN17IncidenceEditorNG18AttachmentIconItem8setLabelERK7QString@Base 4:15.08.0
 _ZN17IncidenceEditorNG18AttachmentIconItemC1ERK14QSharedPointerIN8KCalCore10AttachmentEEP11QListWidget@Base 4:15.08.0
 _ZN17IncidenceEditorNG18AttachmentIconItemC2ERK14QSharedPointerIN8KCalCore10AttachmentEEP11QListWidget@Base 4:15.08.0
 _ZN17IncidenceEditorNG18AttachmentIconItemD0Ev@Base 4:15.08.0
 _ZN17IncidenceEditorNG18AttachmentIconItemD1Ev@Base 4:15.08.0
 _ZN17IncidenceEditorNG18AttachmentIconItemD2Ev@Base 4:15.08.0
 _ZN17IncidenceEditorNG18AttachmentIconView13keyPressEventEP9QKeyEvent@Base 4:15.08.0
 _ZN17IncidenceEditorNG18AttachmentIconView9startDragE6QFlagsIN2Qt10DropActionEE@Base 4:15.08.0
 _ZN17IncidenceEditorNG18AttachmentIconViewC1EP7QWidget@Base 4:15.08.0
 _ZN17IncidenceEditorNG18AttachmentIconViewC2EP7QWidget@Base 4:15.08.0
 _ZN17IncidenceEditorNG18CategoryEditDialog10deleteItemEP15QTreeWidgetItemR5QListIS2_E@Base 4:15.08.0
 _ZN17IncidenceEditorNG18CategoryEditDialog10slotCancelEv@Base 4:15.08.0
 _ZN17IncidenceEditorNG18CategoryEditDialog11qt_metacallEN11QMetaObject4CallEiPPv@Base 4:15.08.0
 _ZN17IncidenceEditorNG18CategoryEditDialog11qt_metacastEPKc@Base 4:15.08.0
 _ZN17IncidenceEditorNG18CategoryEditDialog14addSubcategoryEv@Base 4:15.08.0
 _ZN17IncidenceEditorNG18CategoryEditDialog15slotTextChangedERK7QString@Base 4:15.08.0
 _ZN17IncidenceEditorNG18CategoryEditDialog16expandIfToplevelEP15QTreeWidgetItem@Base 4:15.08.0
 _ZN17IncidenceEditorNG18CategoryEditDialog16staticMetaObjectE@Base 4:15.08.0
 _ZN17IncidenceEditorNG18CategoryEditDialog20slotSelectionChangedEv@Base 4:15.08.0
 _ZN17IncidenceEditorNG18CategoryEditDialog21categoryConfigChangedEv@Base 4:15.08.0
 _ZN17IncidenceEditorNG18CategoryEditDialog3addEv@Base 4:15.08.0
 _ZN17IncidenceEditorNG18CategoryEditDialog4showEv@Base 4:15.08.0
 _ZN17IncidenceEditorNG18CategoryEditDialog6reloadEv@Base 4:15.08.0
 _ZN17IncidenceEditorNG18CategoryEditDialog6removeEv@Base 4:15.08.0
 _ZN17IncidenceEditorNG18CategoryEditDialog6slotOkEv@Base 4:15.08.0
 _ZN17IncidenceEditorNG18CategoryEditDialog8editItemEv@Base 4:15.08.0
 _ZN17IncidenceEditorNG18CategoryEditDialog8fillListEv@Base 4:15.08.0
 _ZN17IncidenceEditorNG18CategoryEditDialog9slotApplyEv@Base 4:15.08.0
 _ZN17IncidenceEditorNG18CategoryEditDialogC1EPN15CalendarSupport14CategoryConfigEP7QWidget@Base 4:15.08.0
 _ZN17IncidenceEditorNG18CategoryEditDialogC2EPN15CalendarSupport14CategoryConfigEP7QWidget@Base 4:15.08.0
 _ZN17IncidenceEditorNG18CategoryEditDialogD0Ev@Base 4:15.08.0
 _ZN17IncidenceEditorNG18CategoryEditDialogD1Ev@Base 4:15.08.0
 _ZN17IncidenceEditorNG18CategoryEditDialogD2Ev@Base 4:15.08.0
 _ZN17IncidenceEditorNG18IncidenceWhatWhere11qt_metacallEN11QMetaObject4CallEiPPv@Base 4:15.08.0
 _ZN17IncidenceEditorNG18IncidenceWhatWhere11qt_metacastEPKc@Base 4:15.08.0
 _ZN17IncidenceEditorNG18IncidenceWhatWhere16staticMetaObjectE@Base 4:15.08.0
 _ZN17IncidenceEditorNG18IncidenceWhatWhere4loadERK14QSharedPointerIN8KCalCore9IncidenceEE@Base 4:15.08.0
 _ZN17IncidenceEditorNG18IncidenceWhatWhere4saveERK14QSharedPointerIN8KCalCore9IncidenceEE@Base 4:15.08.0
 _ZN17IncidenceEditorNG18IncidenceWhatWhere8validateEv@Base 4:15.08.0
 _ZN17IncidenceEditorNG18IncidenceWhatWhereC1EPN2Ui18EventOrTodoDesktopE@Base 4:15.08.0
 _ZN17IncidenceEditorNG18IncidenceWhatWhereC2EPN2Ui18EventOrTodoDesktopE@Base 4:15.08.0
 _ZN17IncidenceEditorNG18ResourceManagement11qt_metacallEN11QMetaObject4CallEiPPv@Base 4:15.08.0
 _ZN17IncidenceEditorNG18ResourceManagement11qt_metacastEPKc@Base 4:15.08.0
 _ZN17IncidenceEditorNG18ResourceManagement11showDetailsERKN5KLDAP10LdapObjectERKNS1_10LdapClientE@Base 4:15.08.0
 _ZN17IncidenceEditorNG18ResourceManagement15slotDateChangedERK5QDateS3_@Base 4:15.08.0
 _ZN17IncidenceEditorNG18ResourceManagement15slotShowDetailsERK11QModelIndex@Base 4:15.08.0
 _ZN17IncidenceEditorNG18ResourceManagement15slotStartSearchERK7QString@Base 4:15.08.0
 _ZN17IncidenceEditorNG18ResourceManagement16staticMetaObjectE@Base 4:15.08.0
 _ZN17IncidenceEditorNG18ResourceManagement17slotLayoutChangedEv@Base 4:15.08.0
 _ZN17IncidenceEditorNG18ResourceManagement23slotOwnerSearchFinishedEv@Base 4:15.08.0
 _ZN17IncidenceEditorNG18ResourceManagementC1EP7QWidget@Base 4:15.08.0
 _ZN17IncidenceEditorNG18ResourceManagementC2EP7QWidget@Base 4:15.08.0
 _ZN17IncidenceEditorNG18ResourceManagementD0Ev@Base 4:15.08.0
 _ZN17IncidenceEditorNG18ResourceManagementD1Ev@Base 4:15.08.0
 _ZN17IncidenceEditorNG18ResourceManagementD2Ev@Base 4:15.08.0
 _ZN17IncidenceEditorNG19AttendeeLineFactory11qt_metacallEN11QMetaObject4CallEiPPv@Base 4:15.08.0
 _ZN17IncidenceEditorNG19AttendeeLineFactory11qt_metacastEPKc@Base 4:15.08.0
 _ZN17IncidenceEditorNG19AttendeeLineFactory16staticMetaObjectE@Base 4:15.08.0
 _ZN17IncidenceEditorNG19AutoCheckTreeWidget11qt_metacallEN11QMetaObject4CallEiPPv@Base 4:15.08.0
 _ZN17IncidenceEditorNG19AutoCheckTreeWidget11qt_metacastEPKc@Base 4:15.08.0
 _ZN17IncidenceEditorNG19AutoCheckTreeWidget12setAutoCheckEb@Base 4:15.08.0
 _ZN17IncidenceEditorNG19AutoCheckTreeWidget15slotDataChangedERK11QModelIndexS3_@Base 4:15.08.0
 _ZN17IncidenceEditorNG19AutoCheckTreeWidget16slotRowsInsertedERK11QModelIndexii@Base 4:15.08.0
 _ZN17IncidenceEditorNG19AutoCheckTreeWidget16staticMetaObjectE@Base 4:15.08.0
 _ZN17IncidenceEditorNG19AutoCheckTreeWidget20setAutoCheckChildrenEb@Base 4:15.08.0
 _ZN17IncidenceEditorNG19AutoCheckTreeWidgetC1EP7QWidget@Base 4:15.08.0
 _ZN17IncidenceEditorNG19AutoCheckTreeWidgetC2EP7QWidget@Base 4:15.08.0
 _ZN17IncidenceEditorNG19AutoCheckTreeWidgetD0Ev@Base 4:15.08.0
 _ZN17IncidenceEditorNG19AutoCheckTreeWidgetD1Ev@Base 4:15.08.0
 _ZN17IncidenceEditorNG19AutoCheckTreeWidgetD2Ev@Base 4:15.08.0
 _ZN17IncidenceEditorNG19GroupwareUiDelegate11setCalendarERK14QSharedPointerIN7Akonadi11ETMCalendarEE@Base 4:15.08.0
 _ZN17IncidenceEditorNG19GroupwareUiDelegate14createCalendarEv@Base 4:15.08.0
 _ZN17IncidenceEditorNG19GroupwareUiDelegate22requestIncidenceEditorERKN7Akonadi4ItemE@Base 4:15.08.0
 _ZN17IncidenceEditorNG19IncidenceAttachment11qt_metacallEN11QMetaObject4CallEiPPv@Base 4:15.08.0
 _ZN17IncidenceEditorNG19IncidenceAttachment11qt_metacastEPKc@Base 4:15.08.0
 _ZN17IncidenceEditorNG19IncidenceAttachment12setupActionsEv@Base 4:15.08.0
 _ZN17IncidenceEditorNG19IncidenceAttachment13addAttachmentEv@Base 4:15.08.0
 _ZN17IncidenceEditorNG19IncidenceAttachment14cutToClipboardEv@Base 4:15.08.0
 _ZN17IncidenceEditorNG19IncidenceAttachment14saveAttachmentEP15QListWidgetItem@Base 4:15.08.0
 _ZN17IncidenceEditorNG19IncidenceAttachment14showAttachmentEP15QListWidgetItem@Base 4:15.08.0
 _ZN17IncidenceEditorNG19IncidenceAttachment15copyToClipboardEv@Base 4:15.08.0
 _ZN17IncidenceEditorNG19IncidenceAttachment15showContextMenuERK6QPoint@Base 4:15.08.0
 _ZN17IncidenceEditorNG19IncidenceAttachment15slotItemRenamedEP15QListWidgetItem@Base 4:15.08.0
 _ZN17IncidenceEditorNG19IncidenceAttachment16addUriAttachmentERK7QStringS3_S3_b@Base 4:15.08.0
 _ZN17IncidenceEditorNG19IncidenceAttachment16downloadCompleteEP4KJob@Base 4:15.08.0
 _ZN17IncidenceEditorNG19IncidenceAttachment16staticMetaObjectE@Base 4:15.08.0
 _ZN17IncidenceEditorNG19IncidenceAttachment17addDataAttachmentERK10QByteArrayRK7QStringS6_@Base 4:15.08.0
 _ZN17IncidenceEditorNG19IncidenceAttachment17handlePasteOrDropEPK9QMimeData@Base 4:15.08.0
 _ZN17IncidenceEditorNG19IncidenceAttachment18pasteFromClipboardEv@Base 4:15.08.0
 _ZN17IncidenceEditorNG19IncidenceAttachment20slotSelectionChangedEv@Base 4:15.08.0
 _ZN17IncidenceEditorNG19IncidenceAttachment22attachmentCountChangedEi@Base 4:15.08.0
 _ZN17IncidenceEditorNG19IncidenceAttachment23editSelectedAttachmentsEv@Base 4:15.08.0
 _ZN17IncidenceEditorNG19IncidenceAttachment23saveSelectedAttachmentsEv@Base 4:15.08.0
 _ZN17IncidenceEditorNG19IncidenceAttachment23setupAttachmentIconViewEv@Base 4:15.08.0
 _ZN17IncidenceEditorNG19IncidenceAttachment23showSelectedAttachmentsEv@Base 4:15.08.0
 _ZN17IncidenceEditorNG19IncidenceAttachment25removeSelectedAttachmentsEv@Base 4:15.08.0
 _ZN17IncidenceEditorNG19IncidenceAttachment4loadERK14QSharedPointerIN8KCalCore9IncidenceEE@Base 4:15.08.0
 _ZN17IncidenceEditorNG19IncidenceAttachment4saveERK14QSharedPointerIN8KCalCore9IncidenceEE@Base 4:15.08.0
 _ZN17IncidenceEditorNG19IncidenceAttachment7openURLERK4QUrl@Base 4:15.08.0
 _ZN17IncidenceEditorNG19IncidenceAttachmentC1EPN2Ui18EventOrTodoDesktopE@Base 4:15.08.0
 _ZN17IncidenceEditorNG19IncidenceAttachmentC2EPN2Ui18EventOrTodoDesktopE@Base 4:15.08.0
 _ZN17IncidenceEditorNG19IncidenceAttachmentD0Ev@Base 4:15.08.0
 _ZN17IncidenceEditorNG19IncidenceAttachmentD1Ev@Base 4:15.08.0
 _ZN17IncidenceEditorNG19IncidenceAttachmentD2Ev@Base 4:15.08.0
 _ZN17IncidenceEditorNG19IncidenceCategories11qt_metacallEN11QMetaObject4CallEiPPv@Base 4:15.08.0
 _ZN17IncidenceEditorNG19IncidenceCategories11qt_metacastEPKc@Base 4:15.08.0
 _ZN17IncidenceEditorNG19IncidenceCategories16staticMetaObjectE@Base 4:15.08.0
 _ZN17IncidenceEditorNG19IncidenceCategories18onSelectionChangedERK5QListIN7Akonadi3TagEE@Base 4:15.08.0
 _ZN17IncidenceEditorNG19IncidenceCategories25checkForUnknownCategoriesERK11QStringList@Base 4:15.08.0
 _ZN17IncidenceEditorNG19IncidenceCategories4loadERK14QSharedPointerIN8KCalCore9IncidenceEE@Base 4:15.08.0
 _ZN17IncidenceEditorNG19IncidenceCategories4loadERKN7Akonadi4ItemE@Base 4:15.08.0
 _ZN17IncidenceEditorNG19IncidenceCategories4saveERK14QSharedPointerIN8KCalCore9IncidenceEE@Base 4:15.08.0
 _ZN17IncidenceEditorNG19IncidenceCategories4saveERN7Akonadi4ItemE@Base 4:15.08.0
 _ZN17IncidenceEditorNG19IncidenceCategoriesC1EPN2Ui18EventOrTodoDesktopE@Base 4:15.08.0
 _ZN17IncidenceEditorNG19IncidenceCategoriesC2EPN2Ui18EventOrTodoDesktopE@Base 4:15.08.0
 _ZN17IncidenceEditorNG19IncidenceRecurrence10fillCombosEv@Base 4:15.08.0
 _ZN17IncidenceEditorNG19IncidenceRecurrence11qt_metacallEN11QMetaObject4CallEiPPv@Base 4:15.08.0
 _ZN17IncidenceEditorNG19IncidenceRecurrence11qt_metacastEPKc@Base 4:15.08.0
 _ZN17IncidenceEditorNG19IncidenceRecurrence11setDefaultsEv@Base 4:15.08.0
 _ZN17IncidenceEditorNG19IncidenceRecurrence11setDurationEi@Base 4:15.08.0
 _ZN17IncidenceEditorNG19IncidenceRecurrence12addExceptionEv@Base 4:15.08.0
 _ZN17IncidenceEditorNG19IncidenceRecurrence12setFrequencyEi@Base 4:15.08.0
 _ZN17IncidenceEditorNG19IncidenceRecurrence14updateWeekDaysERK5QDate@Base 4:15.08.0
 _ZN17IncidenceEditorNG19IncidenceRecurrence16removeExceptionsEv@Base 4:15.08.0
 _ZN17IncidenceEditorNG19IncidenceRecurrence16selectYearlyItemEPN8KCalCore10RecurrenceEt@Base 4:15.08.0
 _ZN17IncidenceEditorNG19IncidenceRecurrence16staticMetaObjectE@Base 4:15.08.0
 _ZN17IncidenceEditorNG19IncidenceRecurrence17recurrenceChangedENS_14RecurrenceTypeE@Base 4:15.08.0
 _ZN17IncidenceEditorNG19IncidenceRecurrence17selectMonthlyItemEPN8KCalCore10RecurrenceEt@Base 4:15.08.0
 _ZN17IncidenceEditorNG19IncidenceRecurrence17setExceptionDatesERKN8KCalCore12SortableListI5QDateEE@Base 4:15.08.0
 _ZN17IncidenceEditorNG19IncidenceRecurrence20handleDateTimeToggleEv@Base 4:15.08.0
 _ZN17IncidenceEditorNG19IncidenceRecurrence21handleFrequencyChangeEv@Base 4:15.08.0
 _ZN17IncidenceEditorNG19IncidenceRecurrence21handleStartDateChangeERK5QDate@Base 4:15.08.0
 _ZN17IncidenceEditorNG19IncidenceRecurrence23toggleRecurrenceWidgetsEi@Base 4:15.08.0
 _ZN17IncidenceEditorNG19IncidenceRecurrence25handleExceptionDateChangeERK5QDate@Base 4:15.08.0
 _ZN17IncidenceEditorNG19IncidenceRecurrence26handleRecurrenceTypeChangeEi@Base 4:15.08.0
 _ZN17IncidenceEditorNG19IncidenceRecurrence27updateRemoveExceptionButtonEv@Base 4:15.08.0
 _ZN17IncidenceEditorNG19IncidenceRecurrence31handleEndAfterOccurrencesChangeEi@Base 4:15.08.0
 _ZN17IncidenceEditorNG19IncidenceRecurrence4loadERK14QSharedPointerIN8KCalCore9IncidenceEE@Base 4:15.08.0
 _ZN17IncidenceEditorNG19IncidenceRecurrence4saveERK14QSharedPointerIN8KCalCore9IncidenceEE@Base 4:15.08.0
 _ZN17IncidenceEditorNG19IncidenceRecurrenceC1EPNS_17IncidenceDateTimeEPN2Ui18EventOrTodoDesktopE@Base 4:15.08.0
 _ZN17IncidenceEditorNG19IncidenceRecurrenceC2EPNS_17IncidenceDateTimeEPN2Ui18EventOrTodoDesktopE@Base 4:15.08.0
 _ZN17IncidenceEditorNG20AttachmentEditDialog10urlChangedERK4QUrl@Base 4:15.08.0
 _ZN17IncidenceEditorNG20AttachmentEditDialog10urlChangedERK7QString@Base 4:15.08.0
 _ZN17IncidenceEditorNG20AttachmentEditDialog11qt_metacallEN11QMetaObject4CallEiPPv@Base 4:15.08.0
 _ZN17IncidenceEditorNG20AttachmentEditDialog11qt_metacastEPKc@Base 4:15.08.0
 _ZN17IncidenceEditorNG20AttachmentEditDialog13inlineChangedEi@Base 4:15.08.0
 _ZN17IncidenceEditorNG20AttachmentEditDialog16staticMetaObjectE@Base 4:15.08.0
 _ZN17IncidenceEditorNG20AttachmentEditDialog6acceptEv@Base 4:15.08.0
 _ZN17IncidenceEditorNG20AttachmentEditDialog9slotApplyEv@Base 4:15.08.0
 _ZN17IncidenceEditorNG20AttachmentEditDialogC1EPNS_18AttachmentIconItemEP7QWidgetb@Base 4:15.08.0
 _ZN17IncidenceEditorNG20AttachmentEditDialogC2EPNS_18AttachmentIconItemEP7QWidgetb@Base 4:15.08.0
 _ZN17IncidenceEditorNG20AttachmentEditDialogD0Ev@Base 4:15.08.0
 _ZN17IncidenceEditorNG20AttachmentEditDialogD1Ev@Base 4:15.08.0
 _ZN17IncidenceEditorNG20AttachmentEditDialogD2Ev@Base 4:15.08.0
 _ZN17IncidenceEditorNG20CategorySelectDialog11qt_metacallEN11QMetaObject4CallEiPPv@Base 4:15.08.0
 _ZN17IncidenceEditorNG20CategorySelectDialog11qt_metacastEPKc@Base 4:15.08.0
 _ZN17IncidenceEditorNG20CategorySelectDialog11setSelectedERK11QStringList@Base 4:15.08.0
 _ZN17IncidenceEditorNG20CategorySelectDialog14editCategoriesEv@Base 4:15.08.0
 _ZN17IncidenceEditorNG20CategorySelectDialog15setCategoryListERK11QStringList@Base 4:15.08.0
 _ZN17IncidenceEditorNG20CategorySelectDialog16staticMetaObjectE@Base 4:15.08.0
 _ZN17IncidenceEditorNG20CategorySelectDialog18categoriesSelectedERK11QStringList@Base 4:15.08.0
 _ZN17IncidenceEditorNG20CategorySelectDialog18categoriesSelectedERK7QString@Base 4:15.08.0
 _ZN17IncidenceEditorNG20CategorySelectDialog20updateCategoryConfigEv@Base 4:15.08.0
 _ZN17IncidenceEditorNG20CategorySelectDialog21setAutoselectChildrenEb@Base 4:15.08.0
 _ZN17IncidenceEditorNG20CategorySelectDialog6slotOkEv@Base 4:15.08.0
 _ZN17IncidenceEditorNG20CategorySelectDialog9slotApplyEv@Base 4:15.08.0
 _ZN17IncidenceEditorNG20CategorySelectDialogC1EPN15CalendarSupport14CategoryConfigEP7QWidget@Base 4:15.08.0
 _ZN17IncidenceEditorNG20CategorySelectDialogC2EPN15CalendarSupport14CategoryConfigEP7QWidget@Base 4:15.08.0
 _ZN17IncidenceEditorNG20CategorySelectDialogD0Ev@Base 4:15.08.0
 _ZN17IncidenceEditorNG20CategorySelectDialogD1Ev@Base 4:15.08.0
 _ZN17IncidenceEditorNG20CategorySelectDialogD2Ev@Base 4:15.08.0
 _ZN17IncidenceEditorNG20CategorySelectWidget10hideButtonEv@Base 4:15.08.0
 _ZN17IncidenceEditorNG20CategorySelectWidget10hideHeaderEv@Base 4:15.08.0
 _ZN17IncidenceEditorNG20CategorySelectWidget11qt_metacallEN11QMetaObject4CallEiPPv@Base 4:15.08.0
 _ZN17IncidenceEditorNG20CategorySelectWidget11qt_metacastEPKc@Base 4:15.08.0
 _ZN17IncidenceEditorNG20CategorySelectWidget11setSelectedERK11QStringList@Base 4:15.08.0
 _ZN17IncidenceEditorNG20CategorySelectWidget13setCategoriesERK11QStringList@Base 4:15.08.0
 _ZN17IncidenceEditorNG20CategorySelectWidget14editCategoriesEv@Base 4:15.08.0
 _ZN17IncidenceEditorNG20CategorySelectWidget15setCategoryListERK11QStringList@Base 4:15.08.0
 _ZN17IncidenceEditorNG20CategorySelectWidget16staticMetaObjectE@Base 4:15.08.0
 _ZN17IncidenceEditorNG20CategorySelectWidget18selectedCategoriesER7QString@Base 4:15.08.0
 _ZN17IncidenceEditorNG20CategorySelectWidget21setAutoselectChildrenEb@Base 4:15.08.0
 _ZN17IncidenceEditorNG20CategorySelectWidget5clearEv@Base 4:15.08.0
 _ZN17IncidenceEditorNG20CategorySelectWidgetC1EPN15CalendarSupport14CategoryConfigEP7QWidget@Base 4:15.08.0
 _ZN17IncidenceEditorNG20CategorySelectWidgetC2EPN15CalendarSupport14CategoryConfigEP7QWidget@Base 4:15.08.0
 _ZN17IncidenceEditorNG20CategorySelectWidgetD0Ev@Base 4:15.08.0
 _ZN17IncidenceEditorNG20CategorySelectWidgetD1Ev@Base 4:15.08.0
 _ZN17IncidenceEditorNG20CategorySelectWidgetD2Ev@Base 4:15.08.0
 _ZN17IncidenceEditorNG20IncidenceDescription11qt_metacallEN11QMetaObject4CallEiPPv@Base 4:15.08.0
 _ZN17IncidenceEditorNG20IncidenceDescription11qt_metacastEPKc@Base 4:15.08.0
 _ZN17IncidenceEditorNG20IncidenceDescription12setupToolBarEv@Base 4:15.08.0
 _ZN17IncidenceEditorNG20IncidenceDescription16staticMetaObjectE@Base 4:15.08.0
 _ZN17IncidenceEditorNG20IncidenceDescription25enableRichTextDescriptionEb@Base 4:15.08.0
 _ZN17IncidenceEditorNG20IncidenceDescription25toggleRichTextDescriptionEv@Base 4:15.08.0
 _ZN17IncidenceEditorNG20IncidenceDescription4loadERK14QSharedPointerIN8KCalCore9IncidenceEE@Base 4:15.08.0
 _ZN17IncidenceEditorNG20IncidenceDescription4saveERK14QSharedPointerIN8KCalCore9IncidenceEE@Base 4:15.08.0
 _ZN17IncidenceEditorNG20IncidenceDescriptionC1EPN2Ui18EventOrTodoDesktopE@Base 4:15.08.0
 _ZN17IncidenceEditorNG20IncidenceDescriptionC2EPN2Ui18EventOrTodoDesktopE@Base 4:15.08.0
 _ZN17IncidenceEditorNG20IncidenceDescriptionD0Ev@Base 4:15.08.0
 _ZN17IncidenceEditorNG20IncidenceDescriptionD1Ev@Base 4:15.08.0
 _ZN17IncidenceEditorNG20IncidenceDescriptionD2Ev@Base 4:15.08.0
 _ZN17IncidenceEditorNG20VisualFreeBusyWidget11qt_metacallEN11QMetaObject4CallEiPPv@Base 4:15.08.0
 _ZN17IncidenceEditorNG20VisualFreeBusyWidget11qt_metacastEPKc@Base 4:15.08.0
 _ZN17IncidenceEditorNG20VisualFreeBusyWidget12manualReloadEv@Base 4:15.08.0
 _ZN17IncidenceEditorNG20VisualFreeBusyWidget12slotPickDateEv@Base 4:15.08.0
 _ZN17IncidenceEditorNG20VisualFreeBusyWidget13splitterMovedEv@Base 4:15.08.0
 _ZN17IncidenceEditorNG20VisualFreeBusyWidget14slotZoomToTimeEv@Base 4:15.08.0
 _ZN17IncidenceEditorNG20VisualFreeBusyWidget16dateTimesChangedERK9KDateTimeS3_@Base 4:15.08.0
 _ZN17IncidenceEditorNG20VisualFreeBusyWidget16slotScaleChangedEi@Base 4:15.08.0
 _ZN17IncidenceEditorNG20VisualFreeBusyWidget16staticMetaObjectE@Base 4:15.08.0
 _ZN17IncidenceEditorNG20VisualFreeBusyWidget17slotCenterOnStartEv@Base 4:15.08.0
 _ZN17IncidenceEditorNG20VisualFreeBusyWidget22showAttendeeStatusMenuEv@Base 4:15.08.0
 _ZN17IncidenceEditorNG20VisualFreeBusyWidget27slotUpdateIncidenceStartEndERK9KDateTimeS3_@Base 4:15.08.0
 _ZN17IncidenceEditorNG20VisualFreeBusyWidget31slotIntervalColorRectangleMovedERK9KDateTimeS3_@Base 4:15.08.0
 _ZN17IncidenceEditorNG20VisualFreeBusyWidgetC1EPN4KPIM17FreeBusyItemModelEiP7QWidget@Base 4:15.08.0
 _ZN17IncidenceEditorNG20VisualFreeBusyWidgetC2EPN4KPIM17FreeBusyItemModelEiP7QWidget@Base 4:15.08.0
 _ZN17IncidenceEditorNG20VisualFreeBusyWidgetD0Ev@Base 4:15.08.0
 _ZN17IncidenceEditorNG20VisualFreeBusyWidgetD1Ev@Base 4:15.08.0
 _ZN17IncidenceEditorNG20VisualFreeBusyWidgetD2Ev@Base 4:15.08.0
 _ZN17IncidenceEditorNG22IncidenceDialogFactory16createTodoEditorERK7QStringS3_RK11QStringListS6_S6_S6_bRKN7Akonadi10CollectionEbP7QWidget6QFlagsIN2Qt10WindowTypeEE@Base 4:15.08.0
 _ZN17IncidenceEditorNG22IncidenceDialogFactory17createEventEditorERK7QStringS3_RK11QStringListS6_S6_S6_bRKN7Akonadi10CollectionEbP7QWidget6QFlagsIN2Qt10WindowTypeEE@Base 4:15.08.0
 _ZN17IncidenceEditorNG22IncidenceDialogFactory6createEbN8KCalCore13IncidenceBase13IncidenceTypeEPN7Akonadi16IncidenceChangerEP7QWidget6QFlagsIN2Qt10WindowTypeEE@Base 4:15.08.0
 _ZN17IncidenceEditorNG22KOrganizerEditorConfig9templatesEN8KCalCore13IncidenceBase13IncidenceTypeE@Base 4:15.08.0
 _ZN17IncidenceEditorNG22KOrganizerEditorConfigC1Ev@Base 4:15.08.0
 _ZN17IncidenceEditorNG22KOrganizerEditorConfigC2Ev@Base 4:15.08.0
 _ZN17IncidenceEditorNG22KOrganizerEditorConfigD0Ev@Base 4:15.08.0
 _ZN17IncidenceEditorNG22KOrganizerEditorConfigD1Ev@Base 4:15.08.0
 _ZN17IncidenceEditorNG22KOrganizerEditorConfigD2Ev@Base 4:15.08.0
 _ZN17IncidenceEditorNG23CombinedIncidenceEditor11qt_metacallEN11QMetaObject4CallEiPPv@Base 4:15.08.0
 _ZN17IncidenceEditorNG23CombinedIncidenceEditor11qt_metacastEPKc@Base 4:15.08.0
 _ZN17IncidenceEditorNG23CombinedIncidenceEditor16staticMetaObjectE@Base 4:15.08.0
 _ZN17IncidenceEditorNG23CombinedIncidenceEditor23handleDirtyStatusChangeEb@Base 4:15.08.0
 _ZN17IncidenceEditorNG23CombinedIncidenceEditor4loadERK14QSharedPointerIN8KCalCore9IncidenceEE@Base 4:15.08.0
 _ZN17IncidenceEditorNG23CombinedIncidenceEditor4loadERKN7Akonadi4ItemE@Base 4:15.08.0
 _ZN17IncidenceEditorNG23CombinedIncidenceEditor4saveERK14QSharedPointerIN8KCalCore9IncidenceEE@Base 4:15.08.0
 _ZN17IncidenceEditorNG23CombinedIncidenceEditor4saveERN7Akonadi4ItemE@Base 4:15.08.0
 _ZN17IncidenceEditorNG23CombinedIncidenceEditor7combineEPNS_15IncidenceEditorE@Base 4:15.08.0
 _ZN17IncidenceEditorNG23CombinedIncidenceEditorC1EP7QWidget@Base 4:15.08.0
 _ZN17IncidenceEditorNG23CombinedIncidenceEditorC2EP7QWidget@Base 4:15.08.0
 _ZN17IncidenceEditorNG23CombinedIncidenceEditorD0Ev@Base 4:15.08.0
 _ZN17IncidenceEditorNG23CombinedIncidenceEditorD1Ev@Base 4:15.08.0
 _ZN17IncidenceEditorNG23CombinedIncidenceEditorD2Ev@Base 4:15.08.0
 _ZN17IncidenceEditorNG23FreeBusyGanttProxyModelC1EP7QObject@Base 4:15.08.0
 _ZN17IncidenceEditorNG23FreeBusyGanttProxyModelC2EP7QObject@Base 4:15.08.0
 _ZN17IncidenceEditorNG24TemplateManagementDialog11qt_metacallEN11QMetaObject4CallEiPPv@Base 4:15.08.0
 _ZN17IncidenceEditorNG24TemplateManagementDialog11qt_metacastEPKc@Base 4:15.08.0
 _ZN17IncidenceEditorNG24TemplateManagementDialog12loadTemplateERK7QString@Base 4:15.08.0
 _ZN17IncidenceEditorNG24TemplateManagementDialog12saveTemplateERK7QString@Base 4:15.08.0
 _ZN17IncidenceEditorNG24TemplateManagementDialog13updateButtonsEv@Base 4:15.08.0
 _ZN17IncidenceEditorNG24TemplateManagementDialog15slotAddTemplateEv@Base 4:15.08.0
 _ZN17IncidenceEditorNG24TemplateManagementDialog16slotItemSelectedEv@Base 4:15.08.0
 _ZN17IncidenceEditorNG24TemplateManagementDialog16staticMetaObjectE@Base 4:15.08.0
 _ZN17IncidenceEditorNG24TemplateManagementDialog16templatesChangedERK11QStringList@Base 4:15.08.0
 _ZN17IncidenceEditorNG24TemplateManagementDialog17slotApplyTemplateEv@Base 4:15.08.0
 _ZN17IncidenceEditorNG24TemplateManagementDialog18slotRemoveTemplateEv@Base 4:15.08.0
 _ZN17IncidenceEditorNG24TemplateManagementDialog6slotOkEv@Base 4:15.08.0
 _ZN17IncidenceEditorNG24TemplateManagementDialog8slotHelpEv@Base 4:15.08.0
 _ZN17IncidenceEditorNG24TemplateManagementDialogC1EP7QWidgetRK11QStringListRK7QString@Base 4:15.08.0
 _ZN17IncidenceEditorNG24TemplateManagementDialogC2EP7QWidgetRK11QStringListRK7QString@Base 4:15.08.0
 _ZN17IncidenceEditorNG27IncidenceCompletionPriority11qt_metacallEN11QMetaObject4CallEiPPv@Base 4:15.08.0
 _ZN17IncidenceEditorNG27IncidenceCompletionPriority11qt_metacastEPKc@Base 4:15.08.0
 _ZN17IncidenceEditorNG27IncidenceCompletionPriority16staticMetaObjectE@Base 4:15.08.0
 _ZN17IncidenceEditorNG27IncidenceCompletionPriority4loadERK14QSharedPointerIN8KCalCore9IncidenceEE@Base 4:15.08.0
 _ZN17IncidenceEditorNG27IncidenceCompletionPriority4saveERK14QSharedPointerIN8KCalCore9IncidenceEE@Base 4:15.08.0
 _ZN17IncidenceEditorNG27IncidenceCompletionPriority7Private18sliderValueChangedEi@Base 4:15.08.0
 _ZN17IncidenceEditorNG27IncidenceCompletionPriorityC1EPN2Ui18EventOrTodoDesktopE@Base 4:15.08.0
 _ZN17IncidenceEditorNG27IncidenceCompletionPriorityC2EPN2Ui18EventOrTodoDesktopE@Base 4:15.08.0
 _ZN17IncidenceEditorNG27IncidenceCompletionPriorityD0Ev@Base 4:15.08.0
 _ZN17IncidenceEditorNG27IncidenceCompletionPriorityD1Ev@Base 4:15.08.0
 _ZN17IncidenceEditorNG27IncidenceCompletionPriorityD2Ev@Base 4:15.08.0
 _ZN17IncidenceEditorNG30IndividualMailComponentFactory11onSetUpdateERK14QSharedPointerIN8KCalCore9IncidenceEERK7QVectorIS1_INS2_8AttendeeEEE@Base 4:15.08.0
 _ZN17IncidenceEditorNG30IndividualMailComponentFactory11qt_metacallEN11QMetaObject4CallEiPPv@Base 4:15.08.0
 _ZN17IncidenceEditorNG30IndividualMailComponentFactory11qt_metacastEPKc@Base 4:15.08.0
 _ZN17IncidenceEditorNG30IndividualMailComponentFactory16staticMetaObjectE@Base 4:15.08.0
 _ZN17IncidenceEditorNG30IndividualMailComponentFactory21createMessageQueueJobERK14QSharedPointerIN8KCalCore13IncidenceBaseEERKN19KIdentityManagement8IdentityEP7QObject@Base 4:15.08.0
 _ZN17IncidenceEditorNG30IndividualMailComponentFactory30createITIPHanderDialogDelegateERK14QSharedPointerIN8KCalCore9IncidenceEENS2_10iTIPMethodEP7QWidget@Base 4:15.08.0
 _ZN17IncidenceEditorNG30IndividualMailComponentFactory9onSetEditERK14QSharedPointerIN8KCalCore9IncidenceEERK7QVectorIS1_INS2_8AttendeeEEE@Base 4:15.08.0
 _ZN17IncidenceEditorNG30IndividualMailComponentFactoryC1EP7QObject@Base 4:15.08.0
 _ZN17IncidenceEditorNG30IndividualMailComponentFactoryC2EP7QObject@Base 4:15.08.0
 (optional=templinst)_ZN7Akonadi4Item14setPayloadImplI14QSharedPointerIN8KCalCore9IncidenceEEEENSt9enable_ifIXntsrNS_8Internal12PayloadTraitIT_EE13isPolymorphicEvE4typeERKS9_@Base 4:15.08.0
 (optional=templinst)_ZNK12KConfigGroup9readEntryI5QSizeEET_PKcRKS2_@Base 4:15.08.0
 _ZNK17IncidenceEditorNG11AlarmDialog4saveERK14QSharedPointerIN8KCalCore5AlarmEE@Base 4:15.08.0
 _ZNK17IncidenceEditorNG12AttendeeData7isEmptyEv@Base 4:15.08.0
 _ZNK17IncidenceEditorNG12AttendeeData8attendeeEv@Base 4:15.08.0
 _ZNK17IncidenceEditorNG12AttendeeLine10isModifiedEv@Base 4:15.08.0
 _ZNK17IncidenceEditorNG12AttendeeLine10metaObjectEv@Base 4:15.08.0
 _ZNK17IncidenceEditorNG12AttendeeLine4dataEv@Base 4:15.08.0
 _ZNK17IncidenceEditorNG12AttendeeLine6tabOutEv@Base 4:15.08.0
 _ZNK17IncidenceEditorNG12AttendeeLine7isEmptyEv@Base 4:15.08.0
 _ZNK17IncidenceEditorNG12AttendeeLine8isActiveEv@Base 4:15.08.0
 _ZNK17IncidenceEditorNG12EditorConfig10fullEmailsEv@Base 4:15.08.0
 _ZNK17IncidenceEditorNG12EditorConfig37showTimeZoneSelectorInIncidenceEditorEv@Base 4:15.08.0
 _ZNK17IncidenceEditorNG12EditorConfig5emailEv@Base 4:15.08.0
 _ZNK17IncidenceEditorNG12EditorConfig8fullNameEv@Base 4:15.08.0
 _ZNK17IncidenceEditorNG12EditorConfig8thatIsMeERK7QString@Base 4:15.08.0
 _ZNK17IncidenceEditorNG12EditorConfig9allEmailsEv@Base 4:15.08.0
 _ZNK17IncidenceEditorNG12ItemEditorUi7isValidEv@Base 4:15.08.0
 _ZNK17IncidenceEditorNG14AttendeeEditor10metaObjectEv@Base 4:15.08.0
 _ZNK17IncidenceEditorNG14AttendeeEditor9attendeesEv@Base 4:15.08.0
 _ZNK17IncidenceEditorNG14CategoryDialog10metaObjectEv@Base 4:15.08.0
 _ZNK17IncidenceEditorNG14CategoryDialog18selectedCategoriesEv@Base 4:15.08.0
 _ZNK17IncidenceEditorNG14CategoryWidget10metaObjectEv@Base 4:15.08.0
 _ZNK17IncidenceEditorNG14CategoryWidget18selectedCategoriesEv@Base 4:15.08.0
 _ZNK17IncidenceEditorNG14CategoryWidget8listViewEv@Base 4:15.08.0
 _ZNK17IncidenceEditorNG14GlobalSettings10metaObjectEv@Base 4:15.08.0
 _ZNK17IncidenceEditorNG14IncidenceAlarm10metaObjectEv@Base 4:15.08.0
 _ZNK17IncidenceEditorNG14IncidenceAlarm7isDirtyEv@Base 4:15.08.0
 _ZNK17IncidenceEditorNG15IncidenceDialog10metaObjectEv@Base 4:15.08.0
 _ZNK17IncidenceEditorNG15IncidenceDialog17invalidCollectionEv@Base 4:15.08.0
 _ZNK17IncidenceEditorNG15IncidenceDialog17typeAheadReceiverEv@Base 4:15.08.0
 _ZNK17IncidenceEditorNG15IncidenceDialog4itemEv@Base 4:15.08.0
 _ZNK17IncidenceEditorNG15IncidenceEditor10metaObjectEv@Base 4:15.08.0
 _ZNK17IncidenceEditorNG15IncidenceEditor14printDebugInfoEv@Base 4:15.08.0
 _ZNK17IncidenceEditorNG15IncidenceEditor15lastErrorStringEv@Base 4:15.08.0
 _ZNK17IncidenceEditorNG15IncidenceEditor4typeEv@Base 4:15.08.0
 _ZNK17IncidenceEditorNG15IncidenceEditor7isValidEv@Base 4:15.08.0
 _ZNK17IncidenceEditorNG16AttendeeComboBox10metaObjectEv@Base 4:15.08.0
 _ZNK17IncidenceEditorNG16AttendeeComboBox12currentIndexEv@Base 4:15.08.0
 _ZNK17IncidenceEditorNG16AttendeeLineEdit10metaObjectEv@Base 4:15.08.0
 _ZNK17IncidenceEditorNG16ConflictResolver10metaObjectEv@Base 4:15.08.0
 _ZNK17IncidenceEditorNG16ConflictResolver14availableSlotsEv@Base 4:15.08.0
 _ZNK17IncidenceEditorNG16ConflictResolver5modelEv@Base 4:15.08.0
 _ZNK17IncidenceEditorNG16IncidenceSecrecy10metaObjectEv@Base 4:15.08.0
 _ZNK17IncidenceEditorNG16IncidenceSecrecy7isDirtyEv@Base 4:15.08.0
 _ZNK17IncidenceEditorNG16SchedulingDialog10metaObjectEv@Base 4:15.08.0
 _ZNK17IncidenceEditorNG16SchedulingDialog17selectedStartDateEv@Base 4:15.08.0
 _ZNK17IncidenceEditorNG16SchedulingDialog17selectedStartTimeEv@Base 4:15.08.0
 _ZNK17IncidenceEditorNG17EditorItemManager10collectionEv@Base 4:15.08.0
 _ZNK17IncidenceEditorNG17EditorItemManager10metaObjectEv@Base 4:15.08.0
 _ZNK17IncidenceEditorNG17EditorItemManager4itemENS0_9ItemStateE@Base 4:15.08.0
 _ZNK17IncidenceEditorNG17FreeBusyUrlDialog10metaObjectEv@Base 4:15.08.0
 _ZNK17IncidenceEditorNG17FreeBusyUrlWidget10metaObjectEv@Base 4:15.08.0
 _ZNK17IncidenceEditorNG17IncidenceAttendee10metaObjectEv@Base 4:15.08.0
 _ZNK17IncidenceEditorNG17IncidenceAttendee12iAmOrganizerEv@Base 4:15.08.0
 _ZNK17IncidenceEditorNG17IncidenceAttendee12roleDelegateEv@Base 4:15.08.0
 _ZNK17IncidenceEditorNG17IncidenceAttendee13attendeeCountEv@Base 4:15.08.0
 _ZNK17IncidenceEditorNG17IncidenceAttendee13stateDelegateEv@Base 4:15.08.0
 _ZNK17IncidenceEditorNG17IncidenceAttendee14printDebugInfoEv@Base 4:15.08.0
 _ZNK17IncidenceEditorNG17IncidenceAttendee16attendeeDelegateEv@Base 4:15.08.0
 _ZNK17IncidenceEditorNG17IncidenceAttendee16responseDelegateEv@Base 4:15.08.0
 _ZNK17IncidenceEditorNG17IncidenceAttendee7isDirtyEv@Base 4:15.08.0
 _ZNK17IncidenceEditorNG17IncidenceAttendee9dataModelEv@Base 4:15.08.0
 _ZNK17IncidenceEditorNG17IncidenceDateTime10metaObjectEv@Base 4:15.08.0
 _ZNK17IncidenceEditorNG17IncidenceDateTime14printDebugInfoEv@Base 4:15.08.0
 _ZNK17IncidenceEditorNG17IncidenceDateTime18currentEndDateTimeEv@Base 4:15.08.0
 _ZNK17IncidenceEditorNG17IncidenceDateTime18endDateTimeEnabledEv@Base 4:15.08.0
 _ZNK17IncidenceEditorNG17IncidenceDateTime20currentStartDateTimeEv@Base 4:15.08.0
 _ZNK17IncidenceEditorNG17IncidenceDateTime20startDateTimeEnabledEv@Base 4:15.08.0
 _ZNK17IncidenceEditorNG17IncidenceDateTime7endDateEv@Base 4:15.08.0
 _ZNK17IncidenceEditorNG17IncidenceDateTime7endTimeEv@Base 4:15.08.0
 _ZNK17IncidenceEditorNG17IncidenceDateTime7isDirtyERK14QSharedPointerIN8KCalCore4TodoEE@Base 4:15.08.0
 _ZNK17IncidenceEditorNG17IncidenceDateTime7isDirtyERK14QSharedPointerIN8KCalCore5EventEE@Base 4:15.08.0
 _ZNK17IncidenceEditorNG17IncidenceDateTime7isDirtyERK14QSharedPointerIN8KCalCore7JournalEE@Base 4:15.08.0
 _ZNK17IncidenceEditorNG17IncidenceDateTime7isDirtyEv@Base 4:15.08.0
 _ZNK17IncidenceEditorNG17IncidenceDateTime7isValidEv@Base 4:15.08.0
 _ZNK17IncidenceEditorNG17IncidenceDateTime9startDateEv@Base 4:15.08.0
 _ZNK17IncidenceEditorNG17IncidenceDateTime9startTimeEv@Base 4:15.08.0
 _ZNK17IncidenceEditorNG17IncidenceDefaults11setDefaultsERK14QSharedPointerIN8KCalCore9IncidenceEE@Base 4:15.08.0
 _ZNK17IncidenceEditorNG17IncidenceResource10metaObjectEv@Base 4:15.08.0
 _ZNK17IncidenceEditorNG17IncidenceResource13resourceCountEv@Base 4:15.08.0
 _ZNK17IncidenceEditorNG17IncidenceResource7isDirtyEv@Base 4:15.08.0
 _ZNK17IncidenceEditorNG17KTimeZoneComboBox10metaObjectEv@Base 4:15.08.0
 _ZNK17IncidenceEditorNG17KTimeZoneComboBox16selectedTimeSpecEv@Base 4:15.08.0
 _ZNK17IncidenceEditorNG18AttachmentIconItem10attachmentEv@Base 4:15.08.0
 _ZNK17IncidenceEditorNG18AttachmentIconItem3uriEv@Base 4:15.08.0
 _ZNK17IncidenceEditorNG18AttachmentIconItem4iconEv@Base 4:15.08.0
 _ZNK17IncidenceEditorNG18AttachmentIconItem5labelEv@Base 4:15.08.0
 _ZNK17IncidenceEditorNG18AttachmentIconItem8isBinaryEv@Base 4:15.08.0
 _ZNK17IncidenceEditorNG18AttachmentIconItem8mimeTypeEv@Base 4:15.08.0
 _ZNK17IncidenceEditorNG18AttachmentIconItem8savedUriEv@Base 4:15.08.0
 _ZNK17IncidenceEditorNG18AttachmentIconView21tempFileForAttachmentERK14QSharedPointerIN8KCalCore10AttachmentEE@Base 4:15.08.0
 _ZNK17IncidenceEditorNG18AttachmentIconView8mimeDataE5QListIP15QListWidgetItemE@Base 4:15.08.0
 _ZNK17IncidenceEditorNG18AttachmentIconView8mimeDataEv@Base 4:15.08.0
 _ZNK17IncidenceEditorNG18CategoryEditDialog10metaObjectEv@Base 4:15.08.0
 _ZNK17IncidenceEditorNG18IncidenceWhatWhere10metaObjectEv@Base 4:15.08.0
 _ZNK17IncidenceEditorNG18IncidenceWhatWhere7isDirtyEv@Base 4:15.08.0
 _ZNK17IncidenceEditorNG18IncidenceWhatWhere7isValidEv@Base 4:15.08.0
 _ZNK17IncidenceEditorNG18ResourceManagement10metaObjectEv@Base 4:15.08.0
 _ZNK17IncidenceEditorNG18ResourceManagement12selectedItemEv@Base 4:15.08.0
 _ZNK17IncidenceEditorNG19AttendeeLineFactory10metaObjectEv@Base 4:15.08.0
 _ZNK17IncidenceEditorNG19AutoCheckTreeWidget10itemByPathERK11QStringList@Base 4:15.08.0
 _ZNK17IncidenceEditorNG19AutoCheckTreeWidget10metaObjectEv@Base 4:15.08.0
 _ZNK17IncidenceEditorNG19AutoCheckTreeWidget10pathByItemEP15QTreeWidgetItem@Base 4:15.08.0
 _ZNK17IncidenceEditorNG19AutoCheckTreeWidget17autoCheckChildrenEv@Base 4:15.08.0
 _ZNK17IncidenceEditorNG19AutoCheckTreeWidget8findItemEP15QTreeWidgetItemRK7QString@Base 4:15.08.0
 _ZNK17IncidenceEditorNG19AutoCheckTreeWidget9autoCheckEv@Base 4:15.08.0
 _ZNK17IncidenceEditorNG19IncidenceAttachment10metaObjectEv@Base 4:15.08.0
 _ZNK17IncidenceEditorNG19IncidenceAttachment15attachmentCountEv@Base 4:15.08.0
 _ZNK17IncidenceEditorNG19IncidenceAttachment7isDirtyEv@Base 4:15.08.0
 _ZNK17IncidenceEditorNG19IncidenceCategories10categoriesEv@Base 4:15.08.0
 _ZNK17IncidenceEditorNG19IncidenceCategories10metaObjectEv@Base 4:15.08.0
 _ZNK17IncidenceEditorNG19IncidenceCategories14printDebugInfoEv@Base 4:15.08.0
 _ZNK17IncidenceEditorNG19IncidenceCategories7isDirtyEv@Base 4:15.08.0
 _ZNK17IncidenceEditorNG19IncidenceRecurrence10metaObjectEv@Base 4:15.08.0
 _ZNK17IncidenceEditorNG19IncidenceRecurrence11currentDateEv@Base 4:15.08.0
 _ZNK17IncidenceEditorNG19IncidenceRecurrence11subsOrdinalERK16KLocalizedStringi@Base 4:15.08.0
 _ZNK17IncidenceEditorNG19IncidenceRecurrence14numberToStringEi@Base 4:15.08.0
 _ZNK17IncidenceEditorNG19IncidenceRecurrence16monthWeekFromEndEv@Base 4:15.08.0
 _ZNK17IncidenceEditorNG19IncidenceRecurrence16writeToIncidenceERK14QSharedPointerIN8KCalCore9IncidenceEE@Base 4:15.08.0
 _ZNK17IncidenceEditorNG19IncidenceRecurrence17dayOfMonthFromEndEv@Base 4:15.08.0
 _ZNK17IncidenceEditorNG19IncidenceRecurrence18dayOfYearFromStartEv@Base 4:15.08.0
 _ZNK17IncidenceEditorNG19IncidenceRecurrence18monthWeekFromStartEv@Base 4:15.08.0
 _ZNK17IncidenceEditorNG19IncidenceRecurrence19dayOfMonthFromStartEv@Base 4:15.08.0
 _ZNK17IncidenceEditorNG19IncidenceRecurrence20weekdayCountForMonthERK5QDate@Base 4:15.08.0
 _ZNK17IncidenceEditorNG19IncidenceRecurrence21currentRecurrenceTypeEv@Base 4:15.08.0
 _ZNK17IncidenceEditorNG19IncidenceRecurrence7isDirtyEv@Base 4:15.08.0
 _ZNK17IncidenceEditorNG19IncidenceRecurrence7isValidEv@Base 4:15.08.0
 _ZNK17IncidenceEditorNG19IncidenceRecurrence7weekdayEv@Base 4:15.08.0
 _ZNK17IncidenceEditorNG19IncidenceRecurrence8durationEv@Base 4:15.08.0
 _ZNK17IncidenceEditorNG20AttachmentEditDialog10metaObjectEv@Base 4:15.08.0
 _ZNK17IncidenceEditorNG20CategorySelectDialog10metaObjectEv@Base 4:15.08.0
 _ZNK17IncidenceEditorNG20CategorySelectDialog18selectedCategoriesEv@Base 4:15.08.0
 _ZNK17IncidenceEditorNG20CategorySelectWidget10metaObjectEv@Base 4:15.08.0
 _ZNK17IncidenceEditorNG20CategorySelectWidget18selectedCategoriesEv@Base 4:15.08.0
 _ZNK17IncidenceEditorNG20CategorySelectWidget8listViewEv@Base 4:15.08.0
 _ZNK17IncidenceEditorNG20IncidenceDescription10metaObjectEv@Base 4:15.08.0
 _ZNK17IncidenceEditorNG20IncidenceDescription14printDebugInfoEv@Base 4:15.08.0
 _ZNK17IncidenceEditorNG20IncidenceDescription7isDirtyEv@Base 4:15.08.0
 _ZNK17IncidenceEditorNG20VisualFreeBusyWidget10metaObjectEv@Base 4:15.08.0
 _ZNK17IncidenceEditorNG22KOrganizerEditorConfig10fullEmailsEv@Base 4:15.08.0
 _ZNK17IncidenceEditorNG22KOrganizerEditorConfig12reminderTimeEv@Base 4:15.08.0
 _ZNK17IncidenceEditorNG22KOrganizerEditorConfig13audioFilePathEv@Base 4:15.08.0
 _ZNK17IncidenceEditorNG22KOrganizerEditorConfig15defaultDurationEv@Base 4:15.08.0
 _ZNK17IncidenceEditorNG22KOrganizerEditorConfig17reminderTimeUnitsEv@Base 4:15.08.0
 _ZNK17IncidenceEditorNG22KOrganizerEditorConfig20activeDesignerFieldsEv@Base 4:15.08.0
 _ZNK17IncidenceEditorNG22KOrganizerEditorConfig20defaultTodoRemindersEv@Base 4:15.08.0
 _ZNK17IncidenceEditorNG22KOrganizerEditorConfig21defaultEventRemindersEv@Base 4:15.08.0
 _ZNK17IncidenceEditorNG22KOrganizerEditorConfig25defaultAudioFileRemindersEv@Base 4:15.08.0
 _ZNK17IncidenceEditorNG22KOrganizerEditorConfig37showTimeZoneSelectorInIncidenceEditorEv@Base 4:15.08.0
 _ZNK17IncidenceEditorNG22KOrganizerEditorConfig5emailEv@Base 4:15.08.0
 _ZNK17IncidenceEditorNG22KOrganizerEditorConfig6configEv@Base 4:15.08.0
 _ZNK17IncidenceEditorNG22KOrganizerEditorConfig8fullNameEv@Base 4:15.08.0
 _ZNK17IncidenceEditorNG22KOrganizerEditorConfig8thatIsMeERK7QString@Base 4:15.08.0
 _ZNK17IncidenceEditorNG22KOrganizerEditorConfig9allEmailsEv@Base 4:15.08.0
 _ZNK17IncidenceEditorNG22KOrganizerEditorConfig9startTimeEv@Base 4:15.08.0
 _ZNK17IncidenceEditorNG23CombinedIncidenceEditor10metaObjectEv@Base 4:15.08.0
 _ZNK17IncidenceEditorNG23CombinedIncidenceEditor11showMessageERK7QStringN14KMessageWidget11MessageTypeE@Base 4:15.08.0
 _ZNK17IncidenceEditorNG23CombinedIncidenceEditor7isDirtyEv@Base 4:15.08.0
 _ZNK17IncidenceEditorNG23CombinedIncidenceEditor7isValidEv@Base 4:15.08.0
 _ZNK17IncidenceEditorNG23FreeBusyGanttProxyModel10tooltipifyERKN8KCalCore14FreeBusyPeriodERKN9KDateTime4SpecE@Base 4:15.08.0
 _ZNK17IncidenceEditorNG23FreeBusyGanttProxyModel4dataERK11QModelIndexi@Base 4:15.08.0
 _ZNK17IncidenceEditorNG24TemplateManagementDialog10metaObjectEv@Base 4:15.08.0
 _ZNK17IncidenceEditorNG27IncidenceCompletionPriority10metaObjectEv@Base 4:15.08.0
 _ZNK17IncidenceEditorNG27IncidenceCompletionPriority7isDirtyEv@Base 4:15.08.0
 _ZNK17IncidenceEditorNG30IndividualMailComponentFactory10metaObjectEv@Base 4:15.08.0
 (optional=templinst)_ZNK7Akonadi4Item11payloadImplI14QSharedPointerIN8KCalCore9IncidenceEEEENSt9enable_ifIXntsrNS_8Internal12PayloadTraitIT_EE13isPolymorphicES9_E4typeEv@Base 4:15.08.0
 (optional=templinst)_ZNK7Akonadi4Item11payloadImplIN9KContacts12ContactGroupEEENSt9enable_ifIXntsrNS_8Internal12PayloadTraitIT_EE13isPolymorphicES7_E4typeEv@Base 4:15.08.0
 (optional=templinst)_ZNK7Akonadi4Item11payloadImplIN9KContacts9AddresseeEEENSt9enable_ifIXntsrNS_8Internal12PayloadTraitIT_EE13isPolymorphicES7_E4typeEv@Base 4:15.08.0
 (optional=templinst)_ZNK7Akonadi4Item14tryToCloneImplI14QSharedPointerIN8KCalCore9IncidenceEEN5boost10shared_ptrIS4_EEEENSt9enable_ifIXntsrSt7is_sameIT_T0_E5valueEbE4typeEPSB_PKi@Base 4:15.08.0
 (optional=templinst)_ZNK7Akonadi4Item14tryToCloneImplI14QSharedPointerIN8KCalCore9IncidenceEESt10shared_ptrIS4_EEENSt9enable_ifIXntsrSt7is_sameIT_T0_E5valueEbE4typeEPSA_PKi@Base 4:15.08.0
 _ZTIN17IncidenceEditorNG11AlarmDialogE@Base 4:15.08.0
 _ZTIN17IncidenceEditorNG12AttendeeDataE@Base 4:15.08.0
 _ZTIN17IncidenceEditorNG12AttendeeLineE@Base 4:15.08.0
 _ZTIN17IncidenceEditorNG12EditorConfigE@Base 4:15.08.0
 _ZTIN17IncidenceEditorNG12ItemEditorUiE@Base 4:15.08.0
 _ZTIN17IncidenceEditorNG14AttendeeEditorE@Base 4:15.08.0
 _ZTIN17IncidenceEditorNG14CategoryDialogE@Base 4:15.08.0
 _ZTIN17IncidenceEditorNG14CategoryWidgetE@Base 4:15.08.0
 _ZTIN17IncidenceEditorNG14GlobalSettingsE@Base 4:15.08.0
 _ZTIN17IncidenceEditorNG14IncidenceAlarmE@Base 4:15.08.0
 _ZTIN17IncidenceEditorNG15IncidenceDialogE@Base 4:15.08.0
 _ZTIN17IncidenceEditorNG15IncidenceEditorE@Base 4:15.08.0
 _ZTIN17IncidenceEditorNG16AttendeeComboBoxE@Base 4:15.08.0
 _ZTIN17IncidenceEditorNG16AttendeeLineEditE@Base 4:15.08.0
 _ZTIN17IncidenceEditorNG16ConflictResolverE@Base 4:15.08.0
 _ZTIN17IncidenceEditorNG16IncidenceSecrecyE@Base 4:15.08.0
 _ZTIN17IncidenceEditorNG16SchedulingDialogE@Base 4:15.08.0
 _ZTIN17IncidenceEditorNG17EditorItemManagerE@Base 4:15.08.0
 _ZTIN17IncidenceEditorNG17FreeBusyUrlDialogE@Base 4:15.08.0
 _ZTIN17IncidenceEditorNG17FreeBusyUrlWidgetE@Base 4:15.08.0
 _ZTIN17IncidenceEditorNG17IncidenceAttendeeE@Base 4:15.08.0
 _ZTIN17IncidenceEditorNG17IncidenceDateTimeE@Base 4:15.08.0
 _ZTIN17IncidenceEditorNG17IncidenceResourceE@Base 4:15.08.0
 _ZTIN17IncidenceEditorNG17KTimeZoneComboBoxE@Base 4:15.08.0
 _ZTIN17IncidenceEditorNG18AttachmentIconItemE@Base 4:15.08.0
 _ZTIN17IncidenceEditorNG18AttachmentIconViewE@Base 4:15.08.0
 _ZTIN17IncidenceEditorNG18CategoryEditDialogE@Base 4:15.08.0
 _ZTIN17IncidenceEditorNG18IncidenceWhatWhereE@Base 4:15.08.0
 _ZTIN17IncidenceEditorNG18ResourceManagementE@Base 4:15.08.0
 _ZTIN17IncidenceEditorNG19AttendeeLineFactoryE@Base 4:15.08.0
 _ZTIN17IncidenceEditorNG19AutoCheckTreeWidgetE@Base 4:15.08.0
 _ZTIN17IncidenceEditorNG19GroupwareUiDelegateE@Base 4:15.08.0
 _ZTIN17IncidenceEditorNG19IncidenceAttachmentE@Base 4:15.08.0
 _ZTIN17IncidenceEditorNG19IncidenceCategoriesE@Base 4:15.08.0
 _ZTIN17IncidenceEditorNG19IncidenceRecurrenceE@Base 4:15.08.0
 _ZTIN17IncidenceEditorNG20AttachmentEditDialogE@Base 4:15.08.0
 _ZTIN17IncidenceEditorNG20CategorySelectDialogE@Base 4:15.08.0
 _ZTIN17IncidenceEditorNG20CategorySelectWidgetE@Base 4:15.08.0
 _ZTIN17IncidenceEditorNG20IncidenceDescriptionE@Base 4:15.08.0
 _ZTIN17IncidenceEditorNG20VisualFreeBusyWidgetE@Base 4:15.08.0
 _ZTIN17IncidenceEditorNG22KOrganizerEditorConfigE@Base 4:15.08.0
 _ZTIN17IncidenceEditorNG23CombinedIncidenceEditorE@Base 4:15.08.0
 _ZTIN17IncidenceEditorNG23FreeBusyGanttProxyModelE@Base 4:15.08.0
 _ZTIN17IncidenceEditorNG24TemplateManagementDialogE@Base 4:15.08.0
 _ZTIN17IncidenceEditorNG27IncidenceCompletionPriorityE@Base 4:15.08.0
 _ZTIN17IncidenceEditorNG30IndividualMailComponentFactoryE@Base 4:15.08.0
 _ZTIN4KPIM19MultiplyingLineDataE@Base 4:15.08.0
 _ZTSN17IncidenceEditorNG11AlarmDialogE@Base 4:15.08.0
 _ZTSN17IncidenceEditorNG12AttendeeDataE@Base 4:15.08.0
 _ZTSN17IncidenceEditorNG12AttendeeLineE@Base 4:15.08.0
 _ZTSN17IncidenceEditorNG12EditorConfigE@Base 4:15.08.0
 _ZTSN17IncidenceEditorNG12ItemEditorUiE@Base 4:15.08.0
 _ZTSN17IncidenceEditorNG14AttendeeEditorE@Base 4:15.08.0
 _ZTSN17IncidenceEditorNG14CategoryDialogE@Base 4:15.08.0
 _ZTSN17IncidenceEditorNG14CategoryWidgetE@Base 4:15.08.0
 _ZTSN17IncidenceEditorNG14GlobalSettingsE@Base 4:15.08.0
 _ZTSN17IncidenceEditorNG14IncidenceAlarmE@Base 4:15.08.0
 _ZTSN17IncidenceEditorNG15IncidenceDialogE@Base 4:15.08.0
 _ZTSN17IncidenceEditorNG15IncidenceEditorE@Base 4:15.08.0
 _ZTSN17IncidenceEditorNG16AttendeeComboBoxE@Base 4:15.08.0
 _ZTSN17IncidenceEditorNG16AttendeeLineEditE@Base 4:15.08.0
 _ZTSN17IncidenceEditorNG16ConflictResolverE@Base 4:15.08.0
 _ZTSN17IncidenceEditorNG16IncidenceSecrecyE@Base 4:15.08.0
 _ZTSN17IncidenceEditorNG16SchedulingDialogE@Base 4:15.08.0
 _ZTSN17IncidenceEditorNG17EditorItemManagerE@Base 4:15.08.0
 _ZTSN17IncidenceEditorNG17FreeBusyUrlDialogE@Base 4:15.08.0
 _ZTSN17IncidenceEditorNG17FreeBusyUrlWidgetE@Base 4:15.08.0
 _ZTSN17IncidenceEditorNG17IncidenceAttendeeE@Base 4:15.08.0
 _ZTSN17IncidenceEditorNG17IncidenceDateTimeE@Base 4:15.08.0
 _ZTSN17IncidenceEditorNG17IncidenceResourceE@Base 4:15.08.0
 _ZTSN17IncidenceEditorNG17KTimeZoneComboBoxE@Base 4:15.08.0
 _ZTSN17IncidenceEditorNG18AttachmentIconItemE@Base 4:15.08.0
 _ZTSN17IncidenceEditorNG18AttachmentIconViewE@Base 4:15.08.0
 _ZTSN17IncidenceEditorNG18CategoryEditDialogE@Base 4:15.08.0
 _ZTSN17IncidenceEditorNG18IncidenceWhatWhereE@Base 4:15.08.0
 _ZTSN17IncidenceEditorNG18ResourceManagementE@Base 4:15.08.0
 _ZTSN17IncidenceEditorNG19AttendeeLineFactoryE@Base 4:15.08.0
 _ZTSN17IncidenceEditorNG19AutoCheckTreeWidgetE@Base 4:15.08.0
 _ZTSN17IncidenceEditorNG19GroupwareUiDelegateE@Base 4:15.08.0
 _ZTSN17IncidenceEditorNG19IncidenceAttachmentE@Base 4:15.08.0
 _ZTSN17IncidenceEditorNG19IncidenceCategoriesE@Base 4:15.08.0
 _ZTSN17IncidenceEditorNG19IncidenceRecurrenceE@Base 4:15.08.0
 _ZTSN17IncidenceEditorNG20AttachmentEditDialogE@Base 4:15.08.0
 _ZTSN17IncidenceEditorNG20CategorySelectDialogE@Base 4:15.08.0
 _ZTSN17IncidenceEditorNG20CategorySelectWidgetE@Base 4:15.08.0
 _ZTSN17IncidenceEditorNG20IncidenceDescriptionE@Base 4:15.08.0
 _ZTSN17IncidenceEditorNG20VisualFreeBusyWidgetE@Base 4:15.08.0
 _ZTSN17IncidenceEditorNG22KOrganizerEditorConfigE@Base 4:15.08.0
 _ZTSN17IncidenceEditorNG23CombinedIncidenceEditorE@Base 4:15.08.0
 _ZTSN17IncidenceEditorNG23FreeBusyGanttProxyModelE@Base 4:15.08.0
 _ZTSN17IncidenceEditorNG24TemplateManagementDialogE@Base 4:15.08.0
 _ZTSN17IncidenceEditorNG27IncidenceCompletionPriorityE@Base 4:15.08.0
 _ZTSN17IncidenceEditorNG30IndividualMailComponentFactoryE@Base 4:15.08.0
 _ZTSN4KPIM19MultiplyingLineDataE@Base 4:15.08.0
 _ZTVN17IncidenceEditorNG11AlarmDialogE@Base 4:15.08.0
 _ZTVN17IncidenceEditorNG12AttendeeDataE@Base 4:15.08.0
 _ZTVN17IncidenceEditorNG12AttendeeLineE@Base 4:15.08.0
 _ZTVN17IncidenceEditorNG12EditorConfigE@Base 4:15.08.0
 _ZTVN17IncidenceEditorNG12ItemEditorUiE@Base 4:15.08.0
 _ZTVN17IncidenceEditorNG14AttendeeEditorE@Base 4:15.08.0
 _ZTVN17IncidenceEditorNG14CategoryDialogE@Base 4:15.08.0
 _ZTVN17IncidenceEditorNG14CategoryWidgetE@Base 4:15.08.0
 _ZTVN17IncidenceEditorNG14GlobalSettingsE@Base 4:15.08.0
 _ZTVN17IncidenceEditorNG14IncidenceAlarmE@Base 4:15.08.0
 _ZTVN17IncidenceEditorNG15IncidenceDialogE@Base 4:15.08.0
 _ZTVN17IncidenceEditorNG15IncidenceEditorE@Base 4:15.08.0
 _ZTVN17IncidenceEditorNG16AttendeeComboBoxE@Base 4:15.08.0
 _ZTVN17IncidenceEditorNG16AttendeeLineEditE@Base 4:15.08.0
 _ZTVN17IncidenceEditorNG16ConflictResolverE@Base 4:15.08.0
 _ZTVN17IncidenceEditorNG16IncidenceSecrecyE@Base 4:15.08.0
 _ZTVN17IncidenceEditorNG16SchedulingDialogE@Base 4:15.08.0
 _ZTVN17IncidenceEditorNG17EditorItemManagerE@Base 4:15.08.0
 _ZTVN17IncidenceEditorNG17FreeBusyUrlDialogE@Base 4:15.08.0
 _ZTVN17IncidenceEditorNG17FreeBusyUrlWidgetE@Base 4:15.08.0
 _ZTVN17IncidenceEditorNG17IncidenceAttendeeE@Base 4:15.08.0
 _ZTVN17IncidenceEditorNG17IncidenceDateTimeE@Base 4:15.08.0
 _ZTVN17IncidenceEditorNG17IncidenceResourceE@Base 4:15.08.0
 _ZTVN17IncidenceEditorNG17KTimeZoneComboBoxE@Base 4:15.08.0
 _ZTVN17IncidenceEditorNG18AttachmentIconItemE@Base 4:15.08.0
 _ZTVN17IncidenceEditorNG18AttachmentIconViewE@Base 4:15.08.0
 _ZTVN17IncidenceEditorNG18CategoryEditDialogE@Base 4:15.08.0
 _ZTVN17IncidenceEditorNG18IncidenceWhatWhereE@Base 4:15.08.0
 _ZTVN17IncidenceEditorNG18ResourceManagementE@Base 4:15.08.0
 _ZTVN17IncidenceEditorNG19AttendeeLineFactoryE@Base 4:15.08.0
 _ZTVN17IncidenceEditorNG19AutoCheckTreeWidgetE@Base 4:15.08.0
 _ZTVN17IncidenceEditorNG19GroupwareUiDelegateE@Base 4:15.08.0
 _ZTVN17IncidenceEditorNG19IncidenceAttachmentE@Base 4:15.08.0
 _ZTVN17IncidenceEditorNG19IncidenceCategoriesE@Base 4:15.08.0
 _ZTVN17IncidenceEditorNG19IncidenceRecurrenceE@Base 4:15.08.0
 _ZTVN17IncidenceEditorNG20AttachmentEditDialogE@Base 4:15.08.0
 _ZTVN17IncidenceEditorNG20CategorySelectDialogE@Base 4:15.08.0
 _ZTVN17IncidenceEditorNG20CategorySelectWidgetE@Base 4:15.08.0
 _ZTVN17IncidenceEditorNG20IncidenceDescriptionE@Base 4:15.08.0
 _ZTVN17IncidenceEditorNG20VisualFreeBusyWidgetE@Base 4:15.08.0
 _ZTVN17IncidenceEditorNG22KOrganizerEditorConfigE@Base 4:15.08.0
 _ZTVN17IncidenceEditorNG23CombinedIncidenceEditorE@Base 4:15.08.0
 _ZTVN17IncidenceEditorNG23FreeBusyGanttProxyModelE@Base 4:15.08.0
 _ZTVN17IncidenceEditorNG24TemplateManagementDialogE@Base 4:15.08.0
 _ZTVN17IncidenceEditorNG27IncidenceCompletionPriorityE@Base 4:15.08.0
 _ZTVN17IncidenceEditorNG30IndividualMailComponentFactoryE@Base 4:15.08.0
 _ZTVN4KPIM19MultiplyingLineDataE@Base 4:15.08.0
 (c++)"non-virtual thunk to IncidenceEditorNG::AlarmDialog::~AlarmDialog()@Base" 4:15.08.0
 (c++)"non-virtual thunk to IncidenceEditorNG::AttachmentEditDialog::~AttachmentEditDialog()@Base" 4:15.08.0
 (c++)"non-virtual thunk to IncidenceEditorNG::AutoCheckTreeWidget::~AutoCheckTreeWidget()@Base" 4:15.08.0
 (c++)"non-virtual thunk to IncidenceEditorNG::CategoryDialog::~CategoryDialog()@Base" 4:15.08.0
 (c++)"non-virtual thunk to IncidenceEditorNG::CategoryEditDialog::~CategoryEditDialog()@Base" 4:15.08.0
 (c++)"non-virtual thunk to IncidenceEditorNG::CategorySelectDialog::~CategorySelectDialog()@Base" 4:15.08.0
 (c++)"non-virtual thunk to IncidenceEditorNG::CategorySelectWidget::~CategorySelectWidget()@Base" 4:15.08.0
 (c++)"non-virtual thunk to IncidenceEditorNG::CategoryWidget::~CategoryWidget()@Base" 4:15.08.0
 (c++)"non-virtual thunk to IncidenceEditorNG::FreeBusyUrlWidget::~FreeBusyUrlWidget()@Base" 4:15.08.0
 (c++)"non-virtual thunk to IncidenceEditorNG::IncidenceDialog::~IncidenceDialog()@Base" 4:15.08.0
 (c++)"non-virtual thunk to IncidenceEditorNG::KTimeZoneComboBox::~KTimeZoneComboBox()@Base" 4:15.08.0
 (c++)"non-virtual thunk to IncidenceEditorNG::ResourceManagement::~ResourceManagement()@Base" 4:15.08.0
 (c++)"non-virtual thunk to IncidenceEditorNG::SchedulingDialog::~SchedulingDialog()@Base" 4:15.08.0
 (c++)"non-virtual thunk to IncidenceEditorNG::VisualFreeBusyWidget::~VisualFreeBusyWidget()@Base" 4:15.08.0
libincidenceeditorsngmobile.so.5 libincidenceeditorsng5 #MINVER#
 _ZN17IncidenceEditorNG11AlarmDialog20setAllowEndRemindersEb@Base 4:15.08.0
 _ZN17IncidenceEditorNG11AlarmDialog22setAllowBeginRemindersEb@Base 4:15.08.0
 _ZN17IncidenceEditorNG11AlarmDialog4loadERK14QSharedPointerIN8KCalCore5AlarmEE@Base 4:15.08.0
 _ZN17IncidenceEditorNG11AlarmDialog7setUnitENS0_4UnitE@Base 4:15.08.0
 _ZN17IncidenceEditorNG11AlarmDialog7setWhenENS0_4WhenE@Base 4:15.08.0
 _ZN17IncidenceEditorNG11AlarmDialog9fillComboEv@Base 4:15.08.0
 _ZN17IncidenceEditorNG11AlarmDialog9setOffsetEi@Base 4:15.08.0
 _ZN17IncidenceEditorNG11AlarmDialogC1EN8KCalCore13IncidenceBase13IncidenceTypeEP7QWidget@Base 4:15.08.0
 _ZN17IncidenceEditorNG11AlarmDialogC2EN8KCalCore13IncidenceBase13IncidenceTypeEP7QWidget@Base 4:15.08.0
 _ZN17IncidenceEditorNG11AlarmDialogD0Ev@Base 4:15.08.0
 _ZN17IncidenceEditorNG11AlarmDialogD1Ev@Base 4:15.08.0
 _ZN17IncidenceEditorNG11AlarmDialogD2Ev@Base 4:15.08.0
 _ZN17IncidenceEditorNG12AttendeeData5clearEv@Base 4:15.08.0
 _ZN17IncidenceEditorNG12AttendeeLine10setActionsENS0_15AttendeeActionsE@Base 4:15.08.0
 _ZN17IncidenceEditorNG12AttendeeLine11fixTabOrderEP7QWidget@Base 4:15.08.0
 _ZN17IncidenceEditorNG12AttendeeLine11qt_metacallEN11QMetaObject4CallEiPPv@Base 4:15.08.0
 _ZN17IncidenceEditorNG12AttendeeLine11qt_metacastEPKc@Base 4:15.08.0
 _ZN17IncidenceEditorNG12AttendeeLine13clearModifiedEv@Base 4:15.08.0
 _ZN17IncidenceEditorNG12AttendeeLine14dataFromFieldsEv@Base 4:15.08.0
 _ZN17IncidenceEditorNG12AttendeeLine14fieldsFromDataEv@Base 4:15.08.0
 _ZN17IncidenceEditorNG12AttendeeLine14setColumnWidthEi@Base 4:15.08.0
 _ZN17IncidenceEditorNG12AttendeeLine15editingFinishedEPN4KPIM15MultiplyingLineE@Base 4:15.08.0
 _ZN17IncidenceEditorNG12AttendeeLine15slotTextChangedERK7QString@Base 4:15.08.0
 _ZN17IncidenceEditorNG12AttendeeLine16aboutToBeDeletedEv@Base 4:15.08.0
 _ZN17IncidenceEditorNG12AttendeeLine16slotComboChangedEv@Base 4:15.08.0
 _ZN17IncidenceEditorNG12AttendeeLine16slotHandleChangeEv@Base 4:15.08.0
 _ZN17IncidenceEditorNG12AttendeeLine16staticMetaObjectE@Base 4:15.08.0
 _ZN17IncidenceEditorNG12AttendeeLine17setCompletionModeEN11KCompletion14CompletionModeE@Base 4:15.08.0
 _ZN17IncidenceEditorNG12AttendeeLine19moveCompletionPopupEv@Base 4:15.08.0
 _ZN17IncidenceEditorNG12AttendeeLine5clearEv@Base 4:15.08.0
 _ZN17IncidenceEditorNG12AttendeeLine7changedERK14QSharedPointerIN8KCalCore8AttendeeEES6_@Base 4:15.08.0
 _ZN17IncidenceEditorNG12AttendeeLine7changedEv@Base 4:15.08.0
 _ZN17IncidenceEditorNG12AttendeeLine7setDataERK14QSharedPointerIN4KPIM19MultiplyingLineDataEE@Base 4:15.08.0
 _ZN17IncidenceEditorNG12AttendeeLine8activateEv@Base 4:15.08.0
 _ZN17IncidenceEditorNG12AttendeeLineC1EP7QWidget@Base 4:15.08.0
 _ZN17IncidenceEditorNG12AttendeeLineC2EP7QWidget@Base 4:15.08.0
 _ZN17IncidenceEditorNG12EditorConfig15setEditorConfigEPS0_@Base 4:15.08.0
 _ZN17IncidenceEditorNG12EditorConfig7Private6configE@Base 4:15.08.0
 _ZN17IncidenceEditorNG12EditorConfig8instanceEv@Base 4:15.08.0
 _ZN17IncidenceEditorNG12EditorConfig9templatesEN8KCalCore13IncidenceBase13IncidenceTypeE@Base 4:15.08.0
 _ZN17IncidenceEditorNG12EditorConfigC1Ev@Base 4:15.08.0
 _ZN17IncidenceEditorNG12EditorConfigC2Ev@Base 4:15.08.0
 _ZN17IncidenceEditorNG12EditorConfigD0Ev@Base 4:15.08.0
 _ZN17IncidenceEditorNG12EditorConfigD1Ev@Base 4:15.08.0
 _ZN17IncidenceEditorNG12EditorConfigD2Ev@Base 4:15.08.0
 _ZN17IncidenceEditorNG12ItemEditorUiD0Ev@Base 4:15.08.0
 _ZN17IncidenceEditorNG12ItemEditorUiD1Ev@Base 4:15.08.0
 _ZN17IncidenceEditorNG12ItemEditorUiD2Ev@Base 4:15.08.0
 _ZN17IncidenceEditorNG14AttendeeEditor10setActionsENS_12AttendeeLine15AttendeeActionsE@Base 4:15.08.0
 _ZN17IncidenceEditorNG14AttendeeEditor11addAttendeeERK14QSharedPointerIN8KCalCore8AttendeeEE@Base 4:15.08.0
 _ZN17IncidenceEditorNG14AttendeeEditor11qt_metacallEN11QMetaObject4CallEiPPv@Base 4:15.08.0
 _ZN17IncidenceEditorNG14AttendeeEditor11qt_metacastEPKc@Base 4:15.08.0
 _ZN17IncidenceEditorNG14AttendeeEditor12countChangedEi@Base 4:15.08.0
 _ZN17IncidenceEditorNG14AttendeeEditor13slotLineAddedEPN4KPIM15MultiplyingLineE@Base 4:15.08.0
 _ZN17IncidenceEditorNG14AttendeeEditor14removeAttendeeERK14QSharedPointerINS_12AttendeeDataEE@Base 4:15.08.0
 _ZN17IncidenceEditorNG14AttendeeEditor15editingFinishedEPN4KPIM15MultiplyingLineE@Base 4:15.08.0
 _ZN17IncidenceEditorNG14AttendeeEditor16staticMetaObjectE@Base 4:15.08.0
 _ZN17IncidenceEditorNG14AttendeeEditor18slotCalculateTotalEv@Base 4:15.08.0
 _ZN17IncidenceEditorNG14AttendeeEditor7changedERK14QSharedPointerIN8KCalCore8AttendeeEES6_@Base 4:15.08.0
 _ZN17IncidenceEditorNG14AttendeeEditorC1EP7QWidget@Base 4:15.08.0
 _ZN17IncidenceEditorNG14AttendeeEditorC2EP7QWidget@Base 4:15.08.0
 _ZN17IncidenceEditorNG14CategoryDialog11qt_metacallEN11QMetaObject4CallEiPPv@Base 4:15.08.0
 _ZN17IncidenceEditorNG14CategoryDialog11qt_metacastEPKc@Base 4:15.08.0
 _ZN17IncidenceEditorNG14CategoryDialog11setSelectedERK11QStringList@Base 4:15.08.0
 _ZN17IncidenceEditorNG14CategoryDialog15setCategoryListERK11QStringList@Base 4:15.08.0
 _ZN17IncidenceEditorNG14CategoryDialog16staticMetaObjectE@Base 4:15.08.0
 _ZN17IncidenceEditorNG14CategoryDialog18categoriesSelectedERK11QStringList@Base 4:15.08.0
 _ZN17IncidenceEditorNG14CategoryDialog18categoriesSelectedERK7QString@Base 4:15.08.0
 _ZN17IncidenceEditorNG14CategoryDialog20updateCategoryConfigEv@Base 4:15.08.0
 _ZN17IncidenceEditorNG14CategoryDialog21setAutoselectChildrenEb@Base 4:15.08.0
 _ZN17IncidenceEditorNG14CategoryDialog6slotOkEv@Base 4:15.08.0
 _ZN17IncidenceEditorNG14CategoryDialog9slotApplyEv@Base 4:15.08.0
 _ZN17IncidenceEditorNG14CategoryDialogC1EPN15CalendarSupport14CategoryConfigEP7QWidget@Base 4:15.08.0
 _ZN17IncidenceEditorNG14CategoryDialogC2EPN15CalendarSupport14CategoryConfigEP7QWidget@Base 4:15.08.0
 _ZN17IncidenceEditorNG14CategoryDialogD0Ev@Base 4:15.08.0
 _ZN17IncidenceEditorNG14CategoryDialogD1Ev@Base 4:15.08.0
 _ZN17IncidenceEditorNG14CategoryDialogD2Ev@Base 4:15.08.0
 _ZN17IncidenceEditorNG14CategoryWidget10hideButtonEv@Base 4:15.08.0
 _ZN17IncidenceEditorNG14CategoryWidget10hideHeaderEv@Base 4:15.08.0
 _ZN17IncidenceEditorNG14CategoryWidget11addCategoryEv@Base 4:15.08.0
 _ZN17IncidenceEditorNG14CategoryWidget11qt_metacallEN11QMetaObject4CallEiPPv@Base 4:15.08.0
 _ZN17IncidenceEditorNG14CategoryWidget11qt_metacastEPKc@Base 4:15.08.0
 _ZN17IncidenceEditorNG14CategoryWidget11setSelectedERK11QStringList@Base 4:15.08.0
 _ZN17IncidenceEditorNG14CategoryWidget13setCategoriesERK11QStringList@Base 4:15.08.0
 _ZN17IncidenceEditorNG14CategoryWidget14removeCategoryEv@Base 4:15.08.0
 _ZN17IncidenceEditorNG14CategoryWidget15setCategoryListERK11QStringList@Base 4:15.08.0
 _ZN17IncidenceEditorNG14CategoryWidget16staticMetaObjectE@Base 4:15.08.0
 _ZN17IncidenceEditorNG14CategoryWidget17handleTextChangedERK7QString@Base 4:15.08.0
 _ZN17IncidenceEditorNG14CategoryWidget18handleColorChangedERK6QColor@Base 4:15.08.0
 _ZN17IncidenceEditorNG14CategoryWidget18selectedCategoriesER7QString@Base 4:15.08.0
 _ZN17IncidenceEditorNG14CategoryWidget21setAutoselectChildrenEb@Base 4:15.08.0
 _ZN17IncidenceEditorNG14CategoryWidget22handleSelectionChangedEv@Base 4:15.08.0
 _ZN17IncidenceEditorNG14CategoryWidget5clearEv@Base 4:15.08.0
 _ZN17IncidenceEditorNG14CategoryWidgetC1EPN15CalendarSupport14CategoryConfigEP7QWidget@Base 4:15.08.0
 _ZN17IncidenceEditorNG14CategoryWidgetC2EPN15CalendarSupport14CategoryConfigEP7QWidget@Base 4:15.08.0
 _ZN17IncidenceEditorNG14CategoryWidgetD0Ev@Base 4:15.08.0
 _ZN17IncidenceEditorNG14CategoryWidgetD1Ev@Base 4:15.08.0
 _ZN17IncidenceEditorNG14CategoryWidgetD2Ev@Base 4:15.08.0
 _ZN17IncidenceEditorNG14GlobalSettings11qt_metacallEN11QMetaObject4CallEiPPv@Base 4:15.08.0
 _ZN17IncidenceEditorNG14GlobalSettings11qt_metacastEPKc@Base 4:15.08.0
 _ZN17IncidenceEditorNG14GlobalSettings16staticMetaObjectE@Base 4:15.08.0
 _ZN17IncidenceEditorNG14GlobalSettings4selfEv@Base 4:15.08.0
 _ZN17IncidenceEditorNG14GlobalSettings5mSelfE@Base 4:15.08.0
 _ZN17IncidenceEditorNG14GlobalSettingsC1Ev@Base 4:15.08.0
 _ZN17IncidenceEditorNG14GlobalSettingsC2Ev@Base 4:15.08.0
 _ZN17IncidenceEditorNG14GlobalSettingsD0Ev@Base 4:15.08.0
 _ZN17IncidenceEditorNG14GlobalSettingsD1Ev@Base 4:15.08.0
 _ZN17IncidenceEditorNG14GlobalSettingsD2Ev@Base 4:15.08.0
 _ZN17IncidenceEditorNG14IncidenceAlarm11qt_metacallEN11QMetaObject4CallEiPPv@Base 4:15.08.0
 _ZN17IncidenceEditorNG14IncidenceAlarm11qt_metacastEPKc@Base 4:15.08.0
 _ZN17IncidenceEditorNG14IncidenceAlarm13updateButtonsEv@Base 4:15.08.0
 _ZN17IncidenceEditorNG14IncidenceAlarm14stringForAlarmERK14QSharedPointerIN8KCalCore5AlarmEE@Base 4:15.08.0
 _ZN17IncidenceEditorNG14IncidenceAlarm15updateAlarmListEv@Base 4:15.08.0
 _ZN17IncidenceEditorNG14IncidenceAlarm16editCurrentAlarmEv@Base 4:15.08.0
 _ZN17IncidenceEditorNG14IncidenceAlarm16staticMetaObjectE@Base 4:15.08.0
 _ZN17IncidenceEditorNG14IncidenceAlarm17alarmCountChangedEi@Base 4:15.08.0
 _ZN17IncidenceEditorNG14IncidenceAlarm18newAlarmFromPresetEv@Base 4:15.08.0
 _ZN17IncidenceEditorNG14IncidenceAlarm18removeCurrentAlarmEv@Base 4:15.08.0
 _ZN17IncidenceEditorNG14IncidenceAlarm18toggleCurrentAlarmEv@Base 4:15.08.0
 _ZN17IncidenceEditorNG14IncidenceAlarm20handleDateTimeToggleEv@Base 4:15.08.0
 _ZN17IncidenceEditorNG14IncidenceAlarm4loadERK14QSharedPointerIN8KCalCore9IncidenceEE@Base 4:15.08.0
 _ZN17IncidenceEditorNG14IncidenceAlarm4saveERK14QSharedPointerIN8KCalCore9IncidenceEE@Base 4:15.08.0
 _ZN17IncidenceEditorNG14IncidenceAlarm8newAlarmEv@Base 4:15.08.0
 _ZN17IncidenceEditorNG14IncidenceAlarmC1EPNS_17IncidenceDateTimeEPN2Ui15EventOrTodoMoreE@Base 4:15.08.0
 _ZN17IncidenceEditorNG14IncidenceAlarmC2EPNS_17IncidenceDateTimeEPN2Ui15EventOrTodoMoreE@Base 4:15.08.0
 _ZN17IncidenceEditorNG15IncidenceEditor11qt_metacallEN11QMetaObject4CallEiPPv@Base 4:15.08.0
 _ZN17IncidenceEditorNG15IncidenceEditor11qt_metacastEPKc@Base 4:15.08.0
 _ZN17IncidenceEditorNG15IncidenceEditor16checkDirtyStatusEv@Base 4:15.08.0
 _ZN17IncidenceEditorNG15IncidenceEditor16staticMetaObjectE@Base 4:15.08.0
 _ZN17IncidenceEditorNG15IncidenceEditor17focusInvalidFieldEv@Base 4:15.08.0
 _ZN17IncidenceEditorNG15IncidenceEditor18dirtyStatusChangedEb@Base 4:15.08.0
 _ZN17IncidenceEditorNG15IncidenceEditor4loadERKN7Akonadi4ItemE@Base 4:15.08.0
 _ZN17IncidenceEditorNG15IncidenceEditor4saveERN7Akonadi4ItemE@Base 4:15.08.0
 _ZN17IncidenceEditorNG15IncidenceEditorC1EP7QObject@Base 4:15.08.0
 _ZN17IncidenceEditorNG15IncidenceEditorC2EP7QObject@Base 4:15.08.0
 _ZN17IncidenceEditorNG15IncidenceEditorD0Ev@Base 4:15.08.0
 _ZN17IncidenceEditorNG15IncidenceEditorD1Ev@Base 4:15.08.0
 _ZN17IncidenceEditorNG15IncidenceEditorD2Ev@Base 4:15.08.0
 _ZN17IncidenceEditorNG16AttendeeComboBox11itemChangedEv@Base 4:15.08.0
 _ZN17IncidenceEditorNG16AttendeeComboBox11leftPressedEv@Base 4:15.08.0
 _ZN17IncidenceEditorNG16AttendeeComboBox11qt_metacallEN11QMetaObject4CallEiPPv@Base 4:15.08.0
 _ZN17IncidenceEditorNG16AttendeeComboBox11qt_metacastEPKc@Base 4:15.08.0
 _ZN17IncidenceEditorNG16AttendeeComboBox12rightPressedEv@Base 4:15.08.0
 _ZN17IncidenceEditorNG16AttendeeComboBox13keyPressEventEP9QKeyEvent@Base 4:15.08.0
 _ZN17IncidenceEditorNG16AttendeeComboBox15setCurrentIndexEi@Base 4:15.08.0
 _ZN17IncidenceEditorNG16AttendeeComboBox16staticMetaObjectE@Base 4:15.08.0
 _ZN17IncidenceEditorNG16AttendeeComboBox19slotActionTriggeredEv@Base 4:15.08.0
 _ZN17IncidenceEditorNG16AttendeeComboBox5clearEv@Base 4:15.08.0
 _ZN17IncidenceEditorNG16AttendeeComboBox7addItemERK5QIconRK7QString@Base 4:15.08.0
 _ZN17IncidenceEditorNG16AttendeeComboBox8addItemsERK11QStringList@Base 4:15.08.0
 _ZN17IncidenceEditorNG16AttendeeComboBoxC1EP7QWidget@Base 4:15.08.0
 _ZN17IncidenceEditorNG16AttendeeComboBoxC2EP7QWidget@Base 4:15.08.0
 _ZN17IncidenceEditorNG16AttendeeLineEdit11downPressedEv@Base 4:15.08.0
 _ZN17IncidenceEditorNG16AttendeeLineEdit11leftPressedEv@Base 4:15.08.0
 _ZN17IncidenceEditorNG16AttendeeLineEdit11qt_metacallEN11QMetaObject4CallEiPPv@Base 4:15.08.0
 _ZN17IncidenceEditorNG16AttendeeLineEdit11qt_metacastEPKc@Base 4:15.08.0
 _ZN17IncidenceEditorNG16AttendeeLineEdit12rightPressedEv@Base 4:15.08.0
 _ZN17IncidenceEditorNG16AttendeeLineEdit13keyPressEventEP9QKeyEvent@Base 4:15.08.0
 _ZN17IncidenceEditorNG16AttendeeLineEdit16staticMetaObjectE@Base 4:15.08.0
 _ZN17IncidenceEditorNG16AttendeeLineEdit8deleteMeEv@Base 4:15.08.0
 _ZN17IncidenceEditorNG16AttendeeLineEdit9upPressedEv@Base 4:15.08.0
 _ZN17IncidenceEditorNG16AttendeeLineEditC1EP7QWidget@Base 4:15.08.0
 _ZN17IncidenceEditorNG16AttendeeLineEditC2EP7QWidget@Base 4:15.08.0
 _ZN17IncidenceEditorNG16ConflictResolver11qt_metacallEN11QMetaObject4CallEiPPv@Base 4:15.08.0
 _ZN17IncidenceEditorNG16ConflictResolver11qt_metacastEPKc@Base 4:15.08.0
 _ZN17IncidenceEditorNG16ConflictResolver12findFreeSlotERKN8KCalCore6PeriodE@Base 4:15.08.0
 _ZN17IncidenceEditorNG16ConflictResolver13setLatestDateERK5QDate@Base 4:15.08.0
 _ZN17IncidenceEditorNG16ConflictResolver13setLatestTimeERK5QTime@Base 4:15.08.0
 _ZN17IncidenceEditorNG16ConflictResolver13setResolutionEi@Base 4:15.08.0
 _ZN17IncidenceEditorNG16ConflictResolver14clearAttendeesEv@Base 4:15.08.0
 _ZN17IncidenceEditorNG16ConflictResolver14insertAttendeeERK14QSharedPointerIN4KPIM12FreeBusyItemEE@Base 4:15.08.0
 _ZN17IncidenceEditorNG16ConflictResolver14insertAttendeeERK14QSharedPointerIN8KCalCore8AttendeeEE@Base 4:15.08.0
 _ZN17IncidenceEditorNG16ConflictResolver14removeAttendeeERK14QSharedPointerIN8KCalCore8AttendeeEE@Base 4:15.08.0
 _ZN17IncidenceEditorNG16ConflictResolver15setEarliestDateERK5QDate@Base 4:15.08.0
 _ZN17IncidenceEditorNG16ConflictResolver15setEarliestTimeERK5QTime@Base 4:15.08.0
 _ZN17IncidenceEditorNG16ConflictResolver16containsAttendeeERK14QSharedPointerIN8KCalCore8AttendeeEE@Base 4:15.08.0
 _ZN17IncidenceEditorNG16ConflictResolver16dateTimesChangedERK9KDateTimeS3_@Base 4:15.08.0
 _ZN17IncidenceEditorNG16ConflictResolver16findAllFreeSlotsEv@Base 4:15.08.0
 _ZN17IncidenceEditorNG16ConflictResolver16staticMetaObjectE@Base 4:15.08.0
 _ZN17IncidenceEditorNG16ConflictResolver17conflictsDetectedEi@Base 4:15.08.0
 _ZN17IncidenceEditorNG16ConflictResolver17setLatestDateTimeERK9KDateTime@Base 4:15.08.0
 _ZN17IncidenceEditorNG16ConflictResolver17setMandatoryRolesERK4QSetIN8KCalCore8Attendee4RoleEE@Base 4:15.08.0
 _ZN17IncidenceEditorNG16ConflictResolver18calculateConflictsEv@Base 4:15.08.0
 _ZN17IncidenceEditorNG16ConflictResolver18freeSlotsAvailableERK7QVectorIN8KCalCore6PeriodEE@Base 4:15.08.0
 _ZN17IncidenceEditorNG16ConflictResolver18setAllowedWeekdaysERK9QBitArray@Base 4:15.08.0
 _ZN17IncidenceEditorNG16ConflictResolver19freebusyDataChangedEv@Base 4:15.08.0
 _ZN17IncidenceEditorNG16ConflictResolver19setEarliestDateTimeERK9KDateTime@Base 4:15.08.0
 _ZN17IncidenceEditorNG16ConflictResolver21matchesRoleConstraintERK14QSharedPointerIN8KCalCore8AttendeeEE@Base 4:15.08.0
 _ZN17IncidenceEditorNG16ConflictResolver7tryDateER9KDateTimeS2_@Base 4:15.08.0
 _ZN17IncidenceEditorNG16ConflictResolver7tryDateERK14QSharedPointerIN8KCalCore8FreeBusyEER9KDateTimeS8_@Base 4:15.08.0
 _ZN17IncidenceEditorNG16ConflictResolverC1EP7QWidgetP7QObject@Base 4:15.08.0
 _ZN17IncidenceEditorNG16ConflictResolverC2EP7QWidgetP7QObject@Base 4:15.08.0
 _ZN17IncidenceEditorNG16IncidenceSecrecy11qt_metacallEN11QMetaObject4CallEiPPv@Base 4:15.08.0
 _ZN17IncidenceEditorNG16IncidenceSecrecy11qt_metacastEPKc@Base 4:15.08.0
 _ZN17IncidenceEditorNG16IncidenceSecrecy16staticMetaObjectE@Base 4:15.08.0
 _ZN17IncidenceEditorNG16IncidenceSecrecy4loadERK14QSharedPointerIN8KCalCore9IncidenceEE@Base 4:15.08.0
 _ZN17IncidenceEditorNG16IncidenceSecrecy4saveERK14QSharedPointerIN8KCalCore9IncidenceEE@Base 4:15.08.0
 _ZN17IncidenceEditorNG16IncidenceSecrecyC1EPN2Ui15EventOrTodoMoreE@Base 4:15.08.0
 _ZN17IncidenceEditorNG16IncidenceSecrecyC2EPN2Ui15EventOrTodoMoreE@Base 4:15.08.0
 _ZN17IncidenceEditorNG16SchedulingDialog10fillCombosEv@Base 4:15.08.0
 _ZN17IncidenceEditorNG16SchedulingDialog11qt_metacallEN11QMetaObject4CallEiPPv@Base 4:15.08.0
 _ZN17IncidenceEditorNG16SchedulingDialog11qt_metacastEPKc@Base 4:15.08.0
 _ZN17IncidenceEditorNG16SchedulingDialog14endDateChangedERK5QDate@Base 4:15.08.0
 _ZN17IncidenceEditorNG16SchedulingDialog14endTimeChangedERK5QTime@Base 4:15.08.0
 _ZN17IncidenceEditorNG16SchedulingDialog14updateWeekDaysERK5QDate@Base 4:15.08.0
 _ZN17IncidenceEditorNG16SchedulingDialog16startDateChangedERK5QDate@Base 4:15.08.0
 _ZN17IncidenceEditorNG16SchedulingDialog16startTimeChangedERK5QTime@Base 4:15.08.0
 _ZN17IncidenceEditorNG16SchedulingDialog16staticMetaObjectE@Base 4:15.08.0
 _ZN17IncidenceEditorNG16SchedulingDialog19slotSetEndTimeLabelERK5QTime@Base 4:15.08.0
 _ZN17IncidenceEditorNG16SchedulingDialog19slotWeekdaysChangedEv@Base 4:15.08.0
 _ZN17IncidenceEditorNG16SchedulingDialog20slotStartDateChangedERK5QDate@Base 4:15.08.0
 _ZN17IncidenceEditorNG16SchedulingDialog23slotRowSelectionChangedERK11QModelIndexS3_@Base 4:15.08.0
 _ZN17IncidenceEditorNG16SchedulingDialog25slotMandatoryRolesChangedEv@Base 4:15.08.0
 _ZN17IncidenceEditorNG16SchedulingDialog27slotUpdateIncidenceStartEndERK9KDateTimeS3_@Base 4:15.08.0
 _ZN17IncidenceEditorNG16SchedulingDialogC1ERK5QDateRK5QTimeiPNS_16ConflictResolverEP7QWidget@Base 4:15.08.0
 _ZN17IncidenceEditorNG16SchedulingDialogC2ERK5QDateRK5QTimeiPNS_16ConflictResolverEP7QWidget@Base 4:15.08.0
 _ZN17IncidenceEditorNG16SchedulingDialogD0Ev@Base 4:15.08.0
 _ZN17IncidenceEditorNG16SchedulingDialogD1Ev@Base 4:15.08.0
 _ZN17IncidenceEditorNG16SchedulingDialogD2Ev@Base 4:15.08.0
 _ZN17IncidenceEditorNG17EditorItemManager10fetchScopeEv@Base 4:15.08.0
 _ZN17IncidenceEditorNG17EditorItemManager11qt_metacallEN11QMetaObject4CallEiPPv@Base 4:15.08.0
 _ZN17IncidenceEditorNG17EditorItemManager11qt_metacastEPKc@Base 4:15.08.0
 _ZN17IncidenceEditorNG17EditorItemManager12revertFailedERK7QString@Base 4:15.08.0
 _ZN17IncidenceEditorNG17EditorItemManager13setFetchScopeERKN7Akonadi14ItemFetchScopeE@Base 4:15.08.0
 _ZN17IncidenceEditorNG17EditorItemManager14itemSaveFailedENS0_10SaveActionERK7QString@Base 4:15.08.0
 _ZN17IncidenceEditorNG17EditorItemManager14revertFinishedEv@Base 4:15.08.0
 _ZN17IncidenceEditorNG17EditorItemManager16itemSaveFinishedENS0_10SaveActionE@Base 4:15.08.0
 _ZN17IncidenceEditorNG17EditorItemManager16staticMetaObjectE@Base 4:15.08.0
 _ZN17IncidenceEditorNG17EditorItemManager20setIsCounterProposalEb@Base 4:15.08.0
 _ZN17IncidenceEditorNG17EditorItemManager4loadERKN7Akonadi4ItemE@Base 4:15.08.0
 _ZN17IncidenceEditorNG17EditorItemManager4saveEv@Base 4:15.08.0
 _ZN17IncidenceEditorNG17EditorItemManagerC1EPNS_12ItemEditorUiEPN7Akonadi16IncidenceChangerE@Base 4:15.08.0
 _ZN17IncidenceEditorNG17EditorItemManagerC2EPNS_12ItemEditorUiEPN7Akonadi16IncidenceChangerE@Base 4:15.08.0
 _ZN17IncidenceEditorNG17EditorItemManagerD0Ev@Base 4:15.08.0
 _ZN17IncidenceEditorNG17EditorItemManagerD1Ev@Base 4:15.08.0
 _ZN17IncidenceEditorNG17EditorItemManagerD2Ev@Base 4:15.08.0
 _ZN17IncidenceEditorNG17FreeBusyUrlDialog11qt_metacallEN11QMetaObject4CallEiPPv@Base 4:15.08.0
 _ZN17IncidenceEditorNG17FreeBusyUrlDialog11qt_metacastEPKc@Base 4:15.08.0
 _ZN17IncidenceEditorNG17FreeBusyUrlDialog16staticMetaObjectE@Base 4:15.08.0
 _ZN17IncidenceEditorNG17FreeBusyUrlDialog6slotOkEv@Base 4:15.08.0
 _ZN17IncidenceEditorNG17FreeBusyUrlDialogC1ERK14QSharedPointerINS_12AttendeeDataEEP7QWidget@Base 4:15.08.0
 _ZN17IncidenceEditorNG17FreeBusyUrlDialogC2ERK14QSharedPointerINS_12AttendeeDataEEP7QWidget@Base 4:15.08.0
 _ZN17IncidenceEditorNG17FreeBusyUrlWidget10loadConfigEv@Base 4:15.08.0
 _ZN17IncidenceEditorNG17FreeBusyUrlWidget10saveConfigEv@Base 4:15.08.0
 _ZN17IncidenceEditorNG17FreeBusyUrlWidget11qt_metacallEN11QMetaObject4CallEiPPv@Base 4:15.08.0
 _ZN17IncidenceEditorNG17FreeBusyUrlWidget11qt_metacastEPKc@Base 4:15.08.0
 _ZN17IncidenceEditorNG17FreeBusyUrlWidget16staticMetaObjectE@Base 4:15.08.0
 _ZN17IncidenceEditorNG17FreeBusyUrlWidgetC1ERK14QSharedPointerINS_12AttendeeDataEEP7QWidget@Base 4:15.08.0
 _ZN17IncidenceEditorNG17FreeBusyUrlWidgetC2ERK14QSharedPointerINS_12AttendeeDataEEP7QWidget@Base 4:15.08.0
 _ZN17IncidenceEditorNG17FreeBusyUrlWidgetD0Ev@Base 4:15.08.0
 _ZN17IncidenceEditorNG17FreeBusyUrlWidgetD1Ev@Base 4:15.08.0
 _ZN17IncidenceEditorNG17FreeBusyUrlWidgetD2Ev@Base 4:15.08.0
 _ZN17IncidenceEditorNG17IncidenceAttendee10setActionsEN8KCalCore13IncidenceBase13IncidenceTypeE@Base 4:15.08.0
 _ZN17IncidenceEditorNG17IncidenceAttendee11acceptForMeEv@Base 4:15.08.0
 _ZN17IncidenceEditorNG17IncidenceAttendee11qt_metacallEN11QMetaObject4CallEiPPv@Base 4:15.08.0
 _ZN17IncidenceEditorNG17IncidenceAttendee11qt_metacastEPKc@Base 4:15.08.0
 _ZN17IncidenceEditorNG17IncidenceAttendee11updateCountEv@Base 4:15.08.0
 _ZN17IncidenceEditorNG17IncidenceAttendee12declineForMeEv@Base 4:15.08.0
 _ZN17IncidenceEditorNG17IncidenceAttendee12expandResultEP4KJob@Base 4:15.08.0
 _ZN17IncidenceEditorNG17IncidenceAttendee14updateFBStatusERK14QSharedPointerIN8KCalCore8AttendeeEERKS1_INS2_8FreeBusyEE@Base 4:15.08.0
 _ZN17IncidenceEditorNG17IncidenceAttendee14updateFBStatusEv@Base 4:15.08.0
 _ZN17IncidenceEditorNG17IncidenceAttendee16staticMetaObjectE@Base 4:15.08.0
 _ZN17IncidenceEditorNG17IncidenceAttendee17changeStatusForMeEN8KCalCore8Attendee8PartStatE@Base 4:15.08.0
 _ZN17IncidenceEditorNG17IncidenceAttendee17groupSearchResultEP4KJob@Base 4:15.08.0
 _ZN17IncidenceEditorNG17IncidenceAttendee17slotFreeBusyAddedERK11QModelIndexii@Base 4:15.08.0
 _ZN17IncidenceEditorNG17IncidenceAttendee17updateGroupExpandEv@Base 4:15.08.0
 _ZN17IncidenceEditorNG17IncidenceAttendee18fillOrganizerComboEv@Base 4:15.08.0
 _ZN17IncidenceEditorNG17IncidenceAttendee19filterLayoutChangedEv@Base 4:15.08.0
 _ZN17IncidenceEditorNG17IncidenceAttendee19slotFreeBusyChangedERK11QModelIndexS3_@Base 4:15.08.0
 _ZN17IncidenceEditorNG17IncidenceAttendee19slotSelectAddressesEv@Base 4:15.08.0
 _ZN17IncidenceEditorNG17IncidenceAttendee20attendeeCountChangedEi@Base 4:15.08.0
 _ZN17IncidenceEditorNG17IncidenceAttendee20slotOrganizerChangedERK7QString@Base 4:15.08.0
 _ZN17IncidenceEditorNG17IncidenceAttendee23slotUpdateConflictLabelEi@Base 4:15.08.0
 _ZN17IncidenceEditorNG17IncidenceAttendee24checkIfExpansionIsNeededERK14QSharedPointerIN8KCalCore8AttendeeEE@Base 4:15.08.0
 _ZN17IncidenceEditorNG17IncidenceAttendee24slotEventDurationChangedEv@Base 4:15.08.0
 _ZN17IncidenceEditorNG17IncidenceAttendee24slotSolveConflictPressedEv@Base 4:15.08.0
 _ZN17IncidenceEditorNG17IncidenceAttendee27insertAttendeeFromAddresseeERKN9KContacts9AddresseeEi@Base 4:15.08.0
 _ZN17IncidenceEditorNG17IncidenceAttendee28slotGroupSubstitutionPressedEv@Base 4:15.08.0
 _ZN17IncidenceEditorNG17IncidenceAttendee33slotConflictResolverAttendeeAddedERK11QModelIndexii@Base 4:15.08.0
 _ZN17IncidenceEditorNG17IncidenceAttendee33slotConflictResolverLayoutChangedEv@Base 4:15.08.0
 _ZN17IncidenceEditorNG17IncidenceAttendee34slotGroupSubstitutionAttendeeAddedERK11QModelIndexii@Base 4:15.08.0
 _ZN17IncidenceEditorNG17IncidenceAttendee34slotGroupSubstitutionLayoutChangedEv@Base 4:15.08.0
 _ZN17IncidenceEditorNG17IncidenceAttendee35slotConflictResolverAttendeeChangedERK11QModelIndexS3_@Base 4:15.08.0
 _ZN17IncidenceEditorNG17IncidenceAttendee35slotConflictResolverAttendeeRemovedERK11QModelIndexii@Base 4:15.08.0
 _ZN17IncidenceEditorNG17IncidenceAttendee36slotGroupSubstitutionAttendeeChangedERK11QModelIndexS3_@Base 4:15.08.0
 _ZN17IncidenceEditorNG17IncidenceAttendee36slotGroupSubstitutionAttendeeRemovedERK11QModelIndexii@Base 4:15.08.0
 _ZN17IncidenceEditorNG17IncidenceAttendee4loadERK14QSharedPointerIN8KCalCore9IncidenceEE@Base 4:15.08.0
 _ZN17IncidenceEditorNG17IncidenceAttendee4saveERK14QSharedPointerIN8KCalCore9IncidenceEE@Base 4:15.08.0
 _ZN17IncidenceEditorNG17IncidenceAttendeeC1EP7QWidgetPNS_17IncidenceDateTimeEPN2Ui15EventOrTodoMoreE@Base 4:15.08.0
 _ZN17IncidenceEditorNG17IncidenceAttendeeC2EP7QWidgetPNS_17IncidenceDateTimeEPN2Ui15EventOrTodoMoreE@Base 4:15.08.0
 _ZN17IncidenceEditorNG17IncidenceAttendeeD0Ev@Base 4:15.08.0
 _ZN17IncidenceEditorNG17IncidenceAttendeeD1Ev@Base 4:15.08.0
 _ZN17IncidenceEditorNG17IncidenceAttendeeD2Ev@Base 4:15.08.0
 _ZN17IncidenceEditorNG17IncidenceDateTime11eventFilterEP7QObjectP6QEvent@Base 4:15.08.0
 _ZN17IncidenceEditorNG17IncidenceDateTime11qt_metacallEN11QMetaObject4CallEiPPv@Base 4:15.08.0
 _ZN17IncidenceEditorNG17IncidenceDateTime11qt_metacastEPKc@Base 4:15.08.0
 _ZN17IncidenceEditorNG17IncidenceDateTime12endDateFocusEP7QObject@Base 4:15.08.0
 _ZN17IncidenceEditorNG17IncidenceDateTime12endTimeFocusEP7QObject@Base 4:15.08.0
 _ZN17IncidenceEditorNG17IncidenceDateTime12setDateTimesERK9KDateTimeS3_@Base 4:15.08.0
 _ZN17IncidenceEditorNG17IncidenceDateTime12setStartDateERK5QDate@Base 4:15.08.0
 _ZN17IncidenceEditorNG17IncidenceDateTime12setStartTimeERK5QTime@Base 4:15.08.0
 _ZN17IncidenceEditorNG17IncidenceDateTime13enableEndEditEb@Base 4:15.08.0
 _ZN17IncidenceEditorNG17IncidenceDateTime13setActiveDateERK5QDate@Base 4:15.08.0
 _ZN17IncidenceEditorNG17IncidenceDateTime14endDateChangedERK5QDate@Base 4:15.08.0
 _ZN17IncidenceEditorNG17IncidenceDateTime14endTimeChangedERK5QTime@Base 4:15.08.0
 _ZN17IncidenceEditorNG17IncidenceDateTime14startDateFocusEP7QObject@Base 4:15.08.0
 _ZN17IncidenceEditorNG17IncidenceDateTime14startTimeFocusEP7QObject@Base 4:15.08.0
 _ZN17IncidenceEditorNG17IncidenceDateTime15enableStartEditEb@Base 4:15.08.0
 _ZN17IncidenceEditorNG17IncidenceDateTime15enableTimeEditsEv@Base 4:15.08.0
 _ZN17IncidenceEditorNG17IncidenceDateTime15updateStartDateERK5QDate@Base 4:15.08.0
 _ZN17IncidenceEditorNG17IncidenceDateTime15updateStartSpecEv@Base 4:15.08.0
 _ZN17IncidenceEditorNG17IncidenceDateTime15updateStartTimeERK5QTime@Base 4:15.08.0
 _ZN17IncidenceEditorNG17IncidenceDateTime16startDateChangedERK5QDate@Base 4:15.08.0
 _ZN17IncidenceEditorNG17IncidenceDateTime16startTimeChangedERK5QTime@Base 4:15.08.0
 _ZN17IncidenceEditorNG17IncidenceDateTime16staticMetaObjectE@Base 4:15.08.0
 _ZN17IncidenceEditorNG17IncidenceDateTime17timeZonesAreLocalERK9KDateTimeS3_@Base 4:15.08.0
 _ZN17IncidenceEditorNG17IncidenceDateTime17updateEndToolTipsEv@Base 4:15.08.0
 _ZN17IncidenceEditorNG17IncidenceDateTime18endDateTimeToggledEb@Base 4:15.08.0
 _ZN17IncidenceEditorNG17IncidenceDateTime19updateStartToolTipsEv@Base 4:15.08.0
 _ZN17IncidenceEditorNG17IncidenceDateTime20startDateTimeToggledEb@Base 4:15.08.0
 _ZN17IncidenceEditorNG17IncidenceDateTime22setTimeZonesVisibilityEb@Base 4:15.08.0
 _ZN17IncidenceEditorNG17IncidenceDateTime23setTimeZoneLabelEnabledEb@Base 4:15.08.0
 _ZN17IncidenceEditorNG17IncidenceDateTime24toggleTimeZoneVisibilityEv@Base 4:15.08.0
 _ZN17IncidenceEditorNG17IncidenceDateTime4loadERK14QSharedPointerIN8KCalCore4TodoEEbb@Base 4:15.08.0
 _ZN17IncidenceEditorNG17IncidenceDateTime4loadERK14QSharedPointerIN8KCalCore5EventEEbb@Base 4:15.08.0
 _ZN17IncidenceEditorNG17IncidenceDateTime4loadERK14QSharedPointerIN8KCalCore7JournalEEbb@Base 4:15.08.0
 _ZN17IncidenceEditorNG17IncidenceDateTime4loadERK14QSharedPointerIN8KCalCore9IncidenceEE@Base 4:15.08.0
 _ZN17IncidenceEditorNG17IncidenceDateTime4saveERK14QSharedPointerIN8KCalCore4TodoEE@Base 4:15.08.0
 _ZN17IncidenceEditorNG17IncidenceDateTime4saveERK14QSharedPointerIN8KCalCore5EventEE@Base 4:15.08.0
 _ZN17IncidenceEditorNG17IncidenceDateTime4saveERK14QSharedPointerIN8KCalCore7JournalEE@Base 4:15.08.0
 _ZN17IncidenceEditorNG17IncidenceDateTime4saveERK14QSharedPointerIN8KCalCore9IncidenceEE@Base 4:15.08.0
 _ZN17IncidenceEditorNG17IncidenceDateTime8setTimesERK9KDateTimeS3_@Base 4:15.08.0
 _ZN17IncidenceEditorNG17IncidenceDateTimeC1EPN2Ui18EventOrTodoDesktopE@Base 4:15.08.0
 _ZN17IncidenceEditorNG17IncidenceDateTimeC2EPN2Ui18EventOrTodoDesktopE@Base 4:15.08.0
 _ZN17IncidenceEditorNG17IncidenceDateTimeD0Ev@Base 4:15.08.0
 _ZN17IncidenceEditorNG17IncidenceDateTimeD1Ev@Base 4:15.08.0
 _ZN17IncidenceEditorNG17IncidenceDateTimeD2Ev@Base 4:15.08.0
 _ZN17IncidenceEditorNG17IncidenceDefaults12setAttendeesERK11QStringList@Base 4:15.08.0
 _ZN17IncidenceEditorNG17IncidenceDefaults13setFullEmailsERK11QStringList@Base 4:15.08.0
 _ZN17IncidenceEditorNG17IncidenceDefaults14setAttachmentsERK11QStringListS3_S3_b@Base 4:15.08.0
 _ZN17IncidenceEditorNG17IncidenceDefaults14setEndDateTimeERK9KDateTime@Base 4:15.08.0
 _ZN17IncidenceEditorNG17IncidenceDefaults16setStartDateTimeERK9KDateTime@Base 4:15.08.0
 _ZN17IncidenceEditorNG17IncidenceDefaults18setGroupWareDomainERK7QString@Base 4:15.08.0
 _ZN17IncidenceEditorNG17IncidenceDefaults19invalidEmailAddressEv@Base 4:15.08.0
 _ZN17IncidenceEditorNG17IncidenceDefaults19setRelatedIncidenceERK14QSharedPointerIN8KCalCore9IncidenceEE@Base 4:15.08.0
 _ZN17IncidenceEditorNG17IncidenceDefaults24minimalIncidenceDefaultsEb@Base 4:15.08.0
 _ZN17IncidenceEditorNG17IncidenceDefaultsC1ERKS0_@Base 4:15.08.0
 _ZN17IncidenceEditorNG17IncidenceDefaultsC1Eb@Base 4:15.08.0
 _ZN17IncidenceEditorNG17IncidenceDefaultsC2ERKS0_@Base 4:15.08.0
 _ZN17IncidenceEditorNG17IncidenceDefaultsC2Eb@Base 4:15.08.0
 _ZN17IncidenceEditorNG17IncidenceDefaultsD1Ev@Base 4:15.08.0
 _ZN17IncidenceEditorNG17IncidenceDefaultsD2Ev@Base 4:15.08.0
 _ZN17IncidenceEditorNG17IncidenceDefaultsaSERKS0_@Base 4:15.08.0
 _ZN17IncidenceEditorNG17IncidenceResource11qt_metacallEN11QMetaObject4CallEiPPv@Base 4:15.08.0
 _ZN17IncidenceEditorNG17IncidenceResource11qt_metacastEPKc@Base 4:15.08.0
 _ZN17IncidenceEditorNG17IncidenceResource11updateCountEv@Base 4:15.08.0
 _ZN17IncidenceEditorNG17IncidenceResource12bookResourceEv@Base 4:15.08.0
 _ZN17IncidenceEditorNG17IncidenceResource13findResourcesEv@Base 4:15.08.0
 _ZN17IncidenceEditorNG17IncidenceResource13layoutChangedEv@Base 4:15.08.0
 _ZN17IncidenceEditorNG17IncidenceResource15dialogOkPressedEv@Base 4:15.08.0
 _ZN17IncidenceEditorNG17IncidenceResource15slotDateChangedEv@Base 4:15.08.0
 _ZN17IncidenceEditorNG17IncidenceResource16staticMetaObjectE@Base 4:15.08.0
 _ZN17IncidenceEditorNG17IncidenceResource20resourceCountChangedEi@Base 4:15.08.0
 _ZN17IncidenceEditorNG17IncidenceResource4loadERK14QSharedPointerIN8KCalCore9IncidenceEE@Base 4:15.08.0
 _ZN17IncidenceEditorNG17IncidenceResource4saveERK14QSharedPointerIN8KCalCore9IncidenceEE@Base 4:15.08.0
 _ZN17IncidenceEditorNG17IncidenceResourceC1EPNS_17IncidenceAttendeeEPNS_17IncidenceDateTimeEPN2Ui15EventOrTodoMoreE@Base 4:15.08.0
 _ZN17IncidenceEditorNG17IncidenceResourceC2EPNS_17IncidenceAttendeeEPNS_17IncidenceDateTimeEPN2Ui15EventOrTodoMoreE@Base 4:15.08.0
 _ZN17IncidenceEditorNG17KTimeZoneComboBox11qt_metacallEN11QMetaObject4CallEiPPv@Base 4:15.08.0
 _ZN17IncidenceEditorNG17KTimeZoneComboBox11qt_metacastEPKc@Base 4:15.08.0
 _ZN17IncidenceEditorNG17KTimeZoneComboBox11setFloatingEbRKN9KDateTime4SpecE@Base 4:15.08.0
 _ZN17IncidenceEditorNG17KTimeZoneComboBox14selectTimeSpecERKN9KDateTime4SpecE@Base 4:15.08.0
 _ZN17IncidenceEditorNG17KTimeZoneComboBox16staticMetaObjectE@Base 4:15.08.0
 _ZN17IncidenceEditorNG17KTimeZoneComboBox19selectLocalTimeSpecEv@Base 4:15.08.0
 _ZN17IncidenceEditorNG17KTimeZoneComboBox22setAdditionalTimeZonesEPKN8KCalCore13ICalTimeZonesE@Base 4:15.08.0
 _ZN17IncidenceEditorNG17KTimeZoneComboBox7Private12fillComboBoxEv@Base 4:15.08.0
 _ZN17IncidenceEditorNG17KTimeZoneComboBoxC1EP7QWidget@Base 4:15.08.0
 _ZN17IncidenceEditorNG17KTimeZoneComboBoxC1EPKN8KCalCore13ICalTimeZonesEP7QWidget@Base 4:15.08.0
 _ZN17IncidenceEditorNG17KTimeZoneComboBoxC2EP7QWidget@Base 4:15.08.0
 _ZN17IncidenceEditorNG17KTimeZoneComboBoxC2EPKN8KCalCore13ICalTimeZonesEP7QWidget@Base 4:15.08.0
 _ZN17IncidenceEditorNG17KTimeZoneComboBoxD0Ev@Base 4:15.08.0
 _ZN17IncidenceEditorNG17KTimeZoneComboBoxD1Ev@Base 4:15.08.0
 _ZN17IncidenceEditorNG17KTimeZoneComboBoxD2Ev@Base 4:15.08.0
 _ZN17IncidenceEditorNG18AttachmentIconItem11setMimeTypeERK7QString@Base 4:15.08.0
 _ZN17IncidenceEditorNG18AttachmentIconItem14readAttachmentEv@Base 4:15.08.0
 _ZN17IncidenceEditorNG18AttachmentIconItem4iconERK9QMimeTypeRK7QStringb@Base 4:15.08.0
 _ZN17IncidenceEditorNG18AttachmentIconItem6setUriERK7QString@Base 4:15.08.0
 _ZN17IncidenceEditorNG18AttachmentIconItem7setDataERK10QByteArray@Base 4:15.08.0
 _ZN17IncidenceEditorNG18AttachmentIconItem8setLabelERK7QString@Base 4:15.08.0
 _ZN17IncidenceEditorNG18AttachmentIconItemC1ERK14QSharedPointerIN8KCalCore10AttachmentEEP11QListWidget@Base 4:15.08.0
 _ZN17IncidenceEditorNG18AttachmentIconItemC2ERK14QSharedPointerIN8KCalCore10AttachmentEEP11QListWidget@Base 4:15.08.0
 _ZN17IncidenceEditorNG18AttachmentIconItemD0Ev@Base 4:15.08.0
 _ZN17IncidenceEditorNG18AttachmentIconItemD1Ev@Base 4:15.08.0
 _ZN17IncidenceEditorNG18AttachmentIconItemD2Ev@Base 4:15.08.0
 _ZN17IncidenceEditorNG18AttachmentIconView13keyPressEventEP9QKeyEvent@Base 4:15.08.0
 _ZN17IncidenceEditorNG18AttachmentIconView9startDragE6QFlagsIN2Qt10DropActionEE@Base 4:15.08.0
 _ZN17IncidenceEditorNG18AttachmentIconViewC1EP7QWidget@Base 4:15.08.0
 _ZN17IncidenceEditorNG18AttachmentIconViewC2EP7QWidget@Base 4:15.08.0
 _ZN17IncidenceEditorNG18CategoryEditDialog10deleteItemEP15QTreeWidgetItemR5QListIS2_E@Base 4:15.08.0
 _ZN17IncidenceEditorNG18CategoryEditDialog10slotCancelEv@Base 4:15.08.0
 _ZN17IncidenceEditorNG18CategoryEditDialog11qt_metacallEN11QMetaObject4CallEiPPv@Base 4:15.08.0
 _ZN17IncidenceEditorNG18CategoryEditDialog11qt_metacastEPKc@Base 4:15.08.0
 _ZN17IncidenceEditorNG18CategoryEditDialog14addSubcategoryEv@Base 4:15.08.0
 _ZN17IncidenceEditorNG18CategoryEditDialog15slotTextChangedERK7QString@Base 4:15.08.0
 _ZN17IncidenceEditorNG18CategoryEditDialog16expandIfToplevelEP15QTreeWidgetItem@Base 4:15.08.0
 _ZN17IncidenceEditorNG18CategoryEditDialog16staticMetaObjectE@Base 4:15.08.0
 _ZN17IncidenceEditorNG18CategoryEditDialog20slotSelectionChangedEv@Base 4:15.08.0
 _ZN17IncidenceEditorNG18CategoryEditDialog21categoryConfigChangedEv@Base 4:15.08.0
 _ZN17IncidenceEditorNG18CategoryEditDialog3addEv@Base 4:15.08.0
 _ZN17IncidenceEditorNG18CategoryEditDialog4showEv@Base 4:15.08.0
 _ZN17IncidenceEditorNG18CategoryEditDialog6reloadEv@Base 4:15.08.0
 _ZN17IncidenceEditorNG18CategoryEditDialog6removeEv@Base 4:15.08.0
 _ZN17IncidenceEditorNG18CategoryEditDialog6slotOkEv@Base 4:15.08.0
 _ZN17IncidenceEditorNG18CategoryEditDialog8editItemEv@Base 4:15.08.0
 _ZN17IncidenceEditorNG18CategoryEditDialog8fillListEv@Base 4:15.08.0
 _ZN17IncidenceEditorNG18CategoryEditDialog9slotApplyEv@Base 4:15.08.0
 _ZN17IncidenceEditorNG18CategoryEditDialogC1EPN15CalendarSupport14CategoryConfigEP7QWidget@Base 4:15.08.0
 _ZN17IncidenceEditorNG18CategoryEditDialogC2EPN15CalendarSupport14CategoryConfigEP7QWidget@Base 4:15.08.0
 _ZN17IncidenceEditorNG18CategoryEditDialogD0Ev@Base 4:15.08.0
 _ZN17IncidenceEditorNG18CategoryEditDialogD1Ev@Base 4:15.08.0
 _ZN17IncidenceEditorNG18CategoryEditDialogD2Ev@Base 4:15.08.0
 _ZN17IncidenceEditorNG18IncidenceWhatWhere11qt_metacallEN11QMetaObject4CallEiPPv@Base 4:15.08.0
 _ZN17IncidenceEditorNG18IncidenceWhatWhere11qt_metacastEPKc@Base 4:15.08.0
 _ZN17IncidenceEditorNG18IncidenceWhatWhere16staticMetaObjectE@Base 4:15.08.0
 _ZN17IncidenceEditorNG18IncidenceWhatWhere4loadERK14QSharedPointerIN8KCalCore9IncidenceEE@Base 4:15.08.0
 _ZN17IncidenceEditorNG18IncidenceWhatWhere4saveERK14QSharedPointerIN8KCalCore9IncidenceEE@Base 4:15.08.0
 _ZN17IncidenceEditorNG18IncidenceWhatWhere8validateEv@Base 4:15.08.0
 _ZN17IncidenceEditorNG18IncidenceWhatWhereC1EPN2Ui18EventOrTodoDesktopE@Base 4:15.08.0
 _ZN17IncidenceEditorNG18IncidenceWhatWhereC2EPN2Ui18EventOrTodoDesktopE@Base 4:15.08.0
 _ZN17IncidenceEditorNG18ResourceManagement11qt_metacallEN11QMetaObject4CallEiPPv@Base 4:15.08.0
 _ZN17IncidenceEditorNG18ResourceManagement11qt_metacastEPKc@Base 4:15.08.0
 _ZN17IncidenceEditorNG18ResourceManagement11showDetailsERKN5KLDAP10LdapObjectERKNS1_10LdapClientE@Base 4:15.08.0
 _ZN17IncidenceEditorNG18ResourceManagement15slotDateChangedERK5QDateS3_@Base 4:15.08.0
 _ZN17IncidenceEditorNG18ResourceManagement15slotShowDetailsERK11QModelIndex@Base 4:15.08.0
 _ZN17IncidenceEditorNG18ResourceManagement15slotStartSearchERK7QString@Base 4:15.08.0
 _ZN17IncidenceEditorNG18ResourceManagement16staticMetaObjectE@Base 4:15.08.0
 _ZN17IncidenceEditorNG18ResourceManagement17slotLayoutChangedEv@Base 4:15.08.0
 _ZN17IncidenceEditorNG18ResourceManagement23slotOwnerSearchFinishedEv@Base 4:15.08.0
 _ZN17IncidenceEditorNG18ResourceManagementC1EP7QWidget@Base 4:15.08.0
 _ZN17IncidenceEditorNG18ResourceManagementC2EP7QWidget@Base 4:15.08.0
 _ZN17IncidenceEditorNG18ResourceManagementD0Ev@Base 4:15.08.0
 _ZN17IncidenceEditorNG18ResourceManagementD1Ev@Base 4:15.08.0
 _ZN17IncidenceEditorNG18ResourceManagementD2Ev@Base 4:15.08.0
 _ZN17IncidenceEditorNG19AttendeeLineFactory11qt_metacallEN11QMetaObject4CallEiPPv@Base 4:15.08.0
 _ZN17IncidenceEditorNG19AttendeeLineFactory11qt_metacastEPKc@Base 4:15.08.0
 _ZN17IncidenceEditorNG19AttendeeLineFactory16staticMetaObjectE@Base 4:15.08.0
 _ZN17IncidenceEditorNG19AutoCheckTreeWidget11qt_metacallEN11QMetaObject4CallEiPPv@Base 4:15.08.0
 _ZN17IncidenceEditorNG19AutoCheckTreeWidget11qt_metacastEPKc@Base 4:15.08.0
 _ZN17IncidenceEditorNG19AutoCheckTreeWidget12setAutoCheckEb@Base 4:15.08.0
 _ZN17IncidenceEditorNG19AutoCheckTreeWidget15slotDataChangedERK11QModelIndexS3_@Base 4:15.08.0
 _ZN17IncidenceEditorNG19AutoCheckTreeWidget16slotRowsInsertedERK11QModelIndexii@Base 4:15.08.0
 _ZN17IncidenceEditorNG19AutoCheckTreeWidget16staticMetaObjectE@Base 4:15.08.0
 _ZN17IncidenceEditorNG19AutoCheckTreeWidget20setAutoCheckChildrenEb@Base 4:15.08.0
 _ZN17IncidenceEditorNG19AutoCheckTreeWidgetC1EP7QWidget@Base 4:15.08.0
 _ZN17IncidenceEditorNG19AutoCheckTreeWidgetC2EP7QWidget@Base 4:15.08.0
 _ZN17IncidenceEditorNG19AutoCheckTreeWidgetD0Ev@Base 4:15.08.0
 _ZN17IncidenceEditorNG19AutoCheckTreeWidgetD1Ev@Base 4:15.08.0
 _ZN17IncidenceEditorNG19AutoCheckTreeWidgetD2Ev@Base 4:15.08.0
 _ZN17IncidenceEditorNG19GroupwareUiDelegate11setCalendarERK14QSharedPointerIN7Akonadi11ETMCalendarEE@Base 4:15.08.0
 _ZN17IncidenceEditorNG19GroupwareUiDelegate14createCalendarEv@Base 4:15.08.0
 _ZN17IncidenceEditorNG19GroupwareUiDelegate22requestIncidenceEditorERKN7Akonadi4ItemE@Base 4:15.08.0
 _ZN17IncidenceEditorNG19IncidenceAttachment11qt_metacallEN11QMetaObject4CallEiPPv@Base 4:15.08.0
 _ZN17IncidenceEditorNG19IncidenceAttachment11qt_metacastEPKc@Base 4:15.08.0
 _ZN17IncidenceEditorNG19IncidenceAttachment12setupActionsEv@Base 4:15.08.0
 _ZN17IncidenceEditorNG19IncidenceAttachment13addAttachmentEv@Base 4:15.08.0
 _ZN17IncidenceEditorNG19IncidenceAttachment14cutToClipboardEv@Base 4:15.08.0
 _ZN17IncidenceEditorNG19IncidenceAttachment14saveAttachmentEP15QListWidgetItem@Base 4:15.08.0
 _ZN17IncidenceEditorNG19IncidenceAttachment14showAttachmentEP15QListWidgetItem@Base 4:15.08.0
 _ZN17IncidenceEditorNG19IncidenceAttachment15copyToClipboardEv@Base 4:15.08.0
 _ZN17IncidenceEditorNG19IncidenceAttachment15showContextMenuERK6QPoint@Base 4:15.08.0
 _ZN17IncidenceEditorNG19IncidenceAttachment15slotItemRenamedEP15QListWidgetItem@Base 4:15.08.0
 _ZN17IncidenceEditorNG19IncidenceAttachment16addUriAttachmentERK7QStringS3_S3_b@Base 4:15.08.0
 _ZN17IncidenceEditorNG19IncidenceAttachment16downloadCompleteEP4KJob@Base 4:15.08.0
 _ZN17IncidenceEditorNG19IncidenceAttachment16staticMetaObjectE@Base 4:15.08.0
 _ZN17IncidenceEditorNG19IncidenceAttachment17addDataAttachmentERK10QByteArrayRK7QStringS6_@Base 4:15.08.0
 _ZN17IncidenceEditorNG19IncidenceAttachment17handlePasteOrDropEPK9QMimeData@Base 4:15.08.0
 _ZN17IncidenceEditorNG19IncidenceAttachment18pasteFromClipboardEv@Base 4:15.08.0
 _ZN17IncidenceEditorNG19IncidenceAttachment20slotSelectionChangedEv@Base 4:15.08.0
 _ZN17IncidenceEditorNG19IncidenceAttachment22attachmentCountChangedEi@Base 4:15.08.0
 _ZN17IncidenceEditorNG19IncidenceAttachment23editSelectedAttachmentsEv@Base 4:15.08.0
 _ZN17IncidenceEditorNG19IncidenceAttachment23saveSelectedAttachmentsEv@Base 4:15.08.0
 _ZN17IncidenceEditorNG19IncidenceAttachment23setupAttachmentIconViewEv@Base 4:15.08.0
 _ZN17IncidenceEditorNG19IncidenceAttachment23showSelectedAttachmentsEv@Base 4:15.08.0
 _ZN17IncidenceEditorNG19IncidenceAttachment25removeSelectedAttachmentsEv@Base 4:15.08.0
 _ZN17IncidenceEditorNG19IncidenceAttachment4loadERK14QSharedPointerIN8KCalCore9IncidenceEE@Base 4:15.08.0
 _ZN17IncidenceEditorNG19IncidenceAttachment4saveERK14QSharedPointerIN8KCalCore9IncidenceEE@Base 4:15.08.0
 _ZN17IncidenceEditorNG19IncidenceAttachment7openURLERK4QUrl@Base 4:15.08.0
 _ZN17IncidenceEditorNG19IncidenceAttachmentC1EPN2Ui15EventOrTodoMoreE@Base 4:15.08.0
 _ZN17IncidenceEditorNG19IncidenceAttachmentC2EPN2Ui15EventOrTodoMoreE@Base 4:15.08.0
 _ZN17IncidenceEditorNG19IncidenceAttachmentD0Ev@Base 4:15.08.0
 _ZN17IncidenceEditorNG19IncidenceAttachmentD1Ev@Base 4:15.08.0
 _ZN17IncidenceEditorNG19IncidenceAttachmentD2Ev@Base 4:15.08.0
 _ZN17IncidenceEditorNG19IncidenceCategories11qt_metacallEN11QMetaObject4CallEiPPv@Base 4:15.08.0
 _ZN17IncidenceEditorNG19IncidenceCategories11qt_metacastEPKc@Base 4:15.08.0
 _ZN17IncidenceEditorNG19IncidenceCategories16staticMetaObjectE@Base 4:15.08.0
 _ZN17IncidenceEditorNG19IncidenceCategories18onSelectionChangedERK5QListIN7Akonadi3TagEE@Base 4:15.08.0
 _ZN17IncidenceEditorNG19IncidenceCategories25checkForUnknownCategoriesERK11QStringList@Base 4:15.08.0
 _ZN17IncidenceEditorNG19IncidenceCategories4loadERK14QSharedPointerIN8KCalCore9IncidenceEE@Base 4:15.08.0
 _ZN17IncidenceEditorNG19IncidenceCategories4loadERKN7Akonadi4ItemE@Base 4:15.08.0
 _ZN17IncidenceEditorNG19IncidenceCategories4saveERK14QSharedPointerIN8KCalCore9IncidenceEE@Base 4:15.08.0
 _ZN17IncidenceEditorNG19IncidenceCategories4saveERN7Akonadi4ItemE@Base 4:15.08.0
 _ZN17IncidenceEditorNG19IncidenceCategoriesC1EPN2Ui15EventOrTodoMoreE@Base 4:15.08.0
 _ZN17IncidenceEditorNG19IncidenceCategoriesC2EPN2Ui15EventOrTodoMoreE@Base 4:15.08.0
 _ZN17IncidenceEditorNG19IncidenceRecurrence10fillCombosEv@Base 4:15.08.0
 _ZN17IncidenceEditorNG19IncidenceRecurrence11qt_metacallEN11QMetaObject4CallEiPPv@Base 4:15.08.0
 _ZN17IncidenceEditorNG19IncidenceRecurrence11qt_metacastEPKc@Base 4:15.08.0
 _ZN17IncidenceEditorNG19IncidenceRecurrence11setDefaultsEv@Base 4:15.08.0
 _ZN17IncidenceEditorNG19IncidenceRecurrence11setDurationEi@Base 4:15.08.0
 _ZN17IncidenceEditorNG19IncidenceRecurrence12addExceptionEv@Base 4:15.08.0
 _ZN17IncidenceEditorNG19IncidenceRecurrence12setFrequencyEi@Base 4:15.08.0
 _ZN17IncidenceEditorNG19IncidenceRecurrence14updateWeekDaysERK5QDate@Base 4:15.08.0
 _ZN17IncidenceEditorNG19IncidenceRecurrence16removeExceptionsEv@Base 4:15.08.0
 _ZN17IncidenceEditorNG19IncidenceRecurrence16selectYearlyItemEPN8KCalCore10RecurrenceEt@Base 4:15.08.0
 _ZN17IncidenceEditorNG19IncidenceRecurrence16staticMetaObjectE@Base 4:15.08.0
 _ZN17IncidenceEditorNG19IncidenceRecurrence17recurrenceChangedENS_14RecurrenceTypeE@Base 4:15.08.0
 _ZN17IncidenceEditorNG19IncidenceRecurrence17selectMonthlyItemEPN8KCalCore10RecurrenceEt@Base 4:15.08.0
 _ZN17IncidenceEditorNG19IncidenceRecurrence17setExceptionDatesERKN8KCalCore12SortableListI5QDateEE@Base 4:15.08.0
 _ZN17IncidenceEditorNG19IncidenceRecurrence20handleDateTimeToggleEv@Base 4:15.08.0
 _ZN17IncidenceEditorNG19IncidenceRecurrence21handleFrequencyChangeEv@Base 4:15.08.0
 _ZN17IncidenceEditorNG19IncidenceRecurrence21handleStartDateChangeERK5QDate@Base 4:15.08.0
 _ZN17IncidenceEditorNG19IncidenceRecurrence23toggleRecurrenceWidgetsEi@Base 4:15.08.0
 _ZN17IncidenceEditorNG19IncidenceRecurrence25handleExceptionDateChangeERK5QDate@Base 4:15.08.0
 _ZN17IncidenceEditorNG19IncidenceRecurrence26handleRecurrenceTypeChangeEi@Base 4:15.08.0
 _ZN17IncidenceEditorNG19IncidenceRecurrence27updateRemoveExceptionButtonEv@Base 4:15.08.0
 _ZN17IncidenceEditorNG19IncidenceRecurrence31handleEndAfterOccurrencesChangeEi@Base 4:15.08.0
 _ZN17IncidenceEditorNG19IncidenceRecurrence4loadERK14QSharedPointerIN8KCalCore9IncidenceEE@Base 4:15.08.0
 _ZN17IncidenceEditorNG19IncidenceRecurrence4saveERK14QSharedPointerIN8KCalCore9IncidenceEE@Base 4:15.08.0
 _ZN17IncidenceEditorNG19IncidenceRecurrenceC1EPNS_17IncidenceDateTimeEPN2Ui15EventOrTodoMoreE@Base 4:15.08.0
 _ZN17IncidenceEditorNG19IncidenceRecurrenceC2EPNS_17IncidenceDateTimeEPN2Ui15EventOrTodoMoreE@Base 4:15.08.0
 _ZN17IncidenceEditorNG20AttachmentEditDialog10urlChangedERK4QUrl@Base 4:15.08.0
 _ZN17IncidenceEditorNG20AttachmentEditDialog10urlChangedERK7QString@Base 4:15.08.0
 _ZN17IncidenceEditorNG20AttachmentEditDialog11qt_metacallEN11QMetaObject4CallEiPPv@Base 4:15.08.0
 _ZN17IncidenceEditorNG20AttachmentEditDialog11qt_metacastEPKc@Base 4:15.08.0
 _ZN17IncidenceEditorNG20AttachmentEditDialog13inlineChangedEi@Base 4:15.08.0
 _ZN17IncidenceEditorNG20AttachmentEditDialog16staticMetaObjectE@Base 4:15.08.0
 _ZN17IncidenceEditorNG20AttachmentEditDialog6acceptEv@Base 4:15.08.0
 _ZN17IncidenceEditorNG20AttachmentEditDialog9slotApplyEv@Base 4:15.08.0
 _ZN17IncidenceEditorNG20AttachmentEditDialogC1EPNS_18AttachmentIconItemEP7QWidgetb@Base 4:15.08.0
 _ZN17IncidenceEditorNG20AttachmentEditDialogC2EPNS_18AttachmentIconItemEP7QWidgetb@Base 4:15.08.0
 _ZN17IncidenceEditorNG20AttachmentEditDialogD0Ev@Base 4:15.08.0
 _ZN17IncidenceEditorNG20AttachmentEditDialogD1Ev@Base 4:15.08.0
 _ZN17IncidenceEditorNG20AttachmentEditDialogD2Ev@Base 4:15.08.0
 _ZN17IncidenceEditorNG20CategorySelectDialog11qt_metacallEN11QMetaObject4CallEiPPv@Base 4:15.08.0
 _ZN17IncidenceEditorNG20CategorySelectDialog11qt_metacastEPKc@Base 4:15.08.0
 _ZN17IncidenceEditorNG20CategorySelectDialog11setSelectedERK11QStringList@Base 4:15.08.0
 _ZN17IncidenceEditorNG20CategorySelectDialog14editCategoriesEv@Base 4:15.08.0
 _ZN17IncidenceEditorNG20CategorySelectDialog15setCategoryListERK11QStringList@Base 4:15.08.0
 _ZN17IncidenceEditorNG20CategorySelectDialog16staticMetaObjectE@Base 4:15.08.0
 _ZN17IncidenceEditorNG20CategorySelectDialog18categoriesSelectedERK11QStringList@Base 4:15.08.0
 _ZN17IncidenceEditorNG20CategorySelectDialog18categoriesSelectedERK7QString@Base 4:15.08.0
 _ZN17IncidenceEditorNG20CategorySelectDialog20updateCategoryConfigEv@Base 4:15.08.0
 _ZN17IncidenceEditorNG20CategorySelectDialog21setAutoselectChildrenEb@Base 4:15.08.0
 _ZN17IncidenceEditorNG20CategorySelectDialog6slotOkEv@Base 4:15.08.0
 _ZN17IncidenceEditorNG20CategorySelectDialog9slotApplyEv@Base 4:15.08.0
 _ZN17IncidenceEditorNG20CategorySelectDialogC1EPN15CalendarSupport14CategoryConfigEP7QWidget@Base 4:15.08.0
 _ZN17IncidenceEditorNG20CategorySelectDialogC2EPN15CalendarSupport14CategoryConfigEP7QWidget@Base 4:15.08.0
 _ZN17IncidenceEditorNG20CategorySelectDialogD0Ev@Base 4:15.08.0
 _ZN17IncidenceEditorNG20CategorySelectDialogD1Ev@Base 4:15.08.0
 _ZN17IncidenceEditorNG20CategorySelectDialogD2Ev@Base 4:15.08.0
 _ZN17IncidenceEditorNG20CategorySelectWidget10hideButtonEv@Base 4:15.08.0
 _ZN17IncidenceEditorNG20CategorySelectWidget10hideHeaderEv@Base 4:15.08.0
 _ZN17IncidenceEditorNG20CategorySelectWidget11qt_metacallEN11QMetaObject4CallEiPPv@Base 4:15.08.0
 _ZN17IncidenceEditorNG20CategorySelectWidget11qt_metacastEPKc@Base 4:15.08.0
 _ZN17IncidenceEditorNG20CategorySelectWidget11setSelectedERK11QStringList@Base 4:15.08.0
 _ZN17IncidenceEditorNG20CategorySelectWidget13setCategoriesERK11QStringList@Base 4:15.08.0
 _ZN17IncidenceEditorNG20CategorySelectWidget14editCategoriesEv@Base 4:15.08.0
 _ZN17IncidenceEditorNG20CategorySelectWidget15setCategoryListERK11QStringList@Base 4:15.08.0
 _ZN17IncidenceEditorNG20CategorySelectWidget16staticMetaObjectE@Base 4:15.08.0
 _ZN17IncidenceEditorNG20CategorySelectWidget18selectedCategoriesER7QString@Base 4:15.08.0
 _ZN17IncidenceEditorNG20CategorySelectWidget21setAutoselectChildrenEb@Base 4:15.08.0
 _ZN17IncidenceEditorNG20CategorySelectWidget5clearEv@Base 4:15.08.0
 _ZN17IncidenceEditorNG20CategorySelectWidgetC1EPN15CalendarSupport14CategoryConfigEP7QWidget@Base 4:15.08.0
 _ZN17IncidenceEditorNG20CategorySelectWidgetC2EPN15CalendarSupport14CategoryConfigEP7QWidget@Base 4:15.08.0
 _ZN17IncidenceEditorNG20CategorySelectWidgetD0Ev@Base 4:15.08.0
 _ZN17IncidenceEditorNG20CategorySelectWidgetD1Ev@Base 4:15.08.0
 _ZN17IncidenceEditorNG20CategorySelectWidgetD2Ev@Base 4:15.08.0
 _ZN17IncidenceEditorNG20IncidenceDescription11qt_metacallEN11QMetaObject4CallEiPPv@Base 4:15.08.0
 _ZN17IncidenceEditorNG20IncidenceDescription11qt_metacastEPKc@Base 4:15.08.0
 _ZN17IncidenceEditorNG20IncidenceDescription12setupToolBarEv@Base 4:15.08.0
 _ZN17IncidenceEditorNG20IncidenceDescription16staticMetaObjectE@Base 4:15.08.0
 _ZN17IncidenceEditorNG20IncidenceDescription25enableRichTextDescriptionEb@Base 4:15.08.0
 _ZN17IncidenceEditorNG20IncidenceDescription25toggleRichTextDescriptionEv@Base 4:15.08.0
 _ZN17IncidenceEditorNG20IncidenceDescription4loadERK14QSharedPointerIN8KCalCore9IncidenceEE@Base 4:15.08.0
 _ZN17IncidenceEditorNG20IncidenceDescription4saveERK14QSharedPointerIN8KCalCore9IncidenceEE@Base 4:15.08.0
 _ZN17IncidenceEditorNG20IncidenceDescriptionC1EPN2Ui15EventOrTodoMoreE@Base 4:15.08.0
 _ZN17IncidenceEditorNG20IncidenceDescriptionC2EPN2Ui15EventOrTodoMoreE@Base 4:15.08.0
 _ZN17IncidenceEditorNG20IncidenceDescriptionD0Ev@Base 4:15.08.0
 _ZN17IncidenceEditorNG20IncidenceDescriptionD1Ev@Base 4:15.08.0
 _ZN17IncidenceEditorNG20IncidenceDescriptionD2Ev@Base 4:15.08.0
 _ZN17IncidenceEditorNG22KOrganizerEditorConfig9templatesEN8KCalCore13IncidenceBase13IncidenceTypeE@Base 4:15.08.0
 _ZN17IncidenceEditorNG22KOrganizerEditorConfigC1Ev@Base 4:15.08.0
 _ZN17IncidenceEditorNG22KOrganizerEditorConfigC2Ev@Base 4:15.08.0
 _ZN17IncidenceEditorNG22KOrganizerEditorConfigD0Ev@Base 4:15.08.0
 _ZN17IncidenceEditorNG22KOrganizerEditorConfigD1Ev@Base 4:15.08.0
 _ZN17IncidenceEditorNG22KOrganizerEditorConfigD2Ev@Base 4:15.08.0
 _ZN17IncidenceEditorNG23CombinedIncidenceEditor11qt_metacallEN11QMetaObject4CallEiPPv@Base 4:15.08.0
 _ZN17IncidenceEditorNG23CombinedIncidenceEditor11qt_metacastEPKc@Base 4:15.08.0
 _ZN17IncidenceEditorNG23CombinedIncidenceEditor16staticMetaObjectE@Base 4:15.08.0
 _ZN17IncidenceEditorNG23CombinedIncidenceEditor23handleDirtyStatusChangeEb@Base 4:15.08.0
 _ZN17IncidenceEditorNG23CombinedIncidenceEditor4loadERK14QSharedPointerIN8KCalCore9IncidenceEE@Base 4:15.08.0
 _ZN17IncidenceEditorNG23CombinedIncidenceEditor4loadERKN7Akonadi4ItemE@Base 4:15.08.0
 _ZN17IncidenceEditorNG23CombinedIncidenceEditor4saveERK14QSharedPointerIN8KCalCore9IncidenceEE@Base 4:15.08.0
 _ZN17IncidenceEditorNG23CombinedIncidenceEditor4saveERN7Akonadi4ItemE@Base 4:15.08.0
 _ZN17IncidenceEditorNG23CombinedIncidenceEditor7combineEPNS_15IncidenceEditorE@Base 4:15.08.0
 _ZN17IncidenceEditorNG23CombinedIncidenceEditorC1EP7QWidget@Base 4:15.08.0
 _ZN17IncidenceEditorNG23CombinedIncidenceEditorC2EP7QWidget@Base 4:15.08.0
 _ZN17IncidenceEditorNG23CombinedIncidenceEditorD0Ev@Base 4:15.08.0
 _ZN17IncidenceEditorNG23CombinedIncidenceEditorD1Ev@Base 4:15.08.0
 _ZN17IncidenceEditorNG23CombinedIncidenceEditorD2Ev@Base 4:15.08.0
 _ZN17IncidenceEditorNG23FreeBusyGanttProxyModelC1EP7QObject@Base 4:15.08.0
 _ZN17IncidenceEditorNG23FreeBusyGanttProxyModelC2EP7QObject@Base 4:15.08.0
 _ZN17IncidenceEditorNG27IncidenceCompletionPriority11qt_metacallEN11QMetaObject4CallEiPPv@Base 4:15.08.0
 _ZN17IncidenceEditorNG27IncidenceCompletionPriority11qt_metacastEPKc@Base 4:15.08.0
 _ZN17IncidenceEditorNG27IncidenceCompletionPriority16staticMetaObjectE@Base 4:15.08.0
 _ZN17IncidenceEditorNG27IncidenceCompletionPriority4loadERK14QSharedPointerIN8KCalCore9IncidenceEE@Base 4:15.08.0
 _ZN17IncidenceEditorNG27IncidenceCompletionPriority4saveERK14QSharedPointerIN8KCalCore9IncidenceEE@Base 4:15.08.0
 _ZN17IncidenceEditorNG27IncidenceCompletionPriority7Private18sliderValueChangedEi@Base 4:15.08.0
 _ZN17IncidenceEditorNG27IncidenceCompletionPriorityC1EPN2Ui18EventOrTodoDesktopE@Base 4:15.08.0
 _ZN17IncidenceEditorNG27IncidenceCompletionPriorityC2EPN2Ui18EventOrTodoDesktopE@Base 4:15.08.0
 _ZN17IncidenceEditorNG27IncidenceCompletionPriorityD0Ev@Base 4:15.08.0
 _ZN17IncidenceEditorNG27IncidenceCompletionPriorityD1Ev@Base 4:15.08.0
 _ZN17IncidenceEditorNG27IncidenceCompletionPriorityD2Ev@Base 4:15.08.0
 _ZN17IncidenceEditorNG30IndividualMailComponentFactory11onSetUpdateERK14QSharedPointerIN8KCalCore9IncidenceEERK7QVectorIS1_INS2_8AttendeeEEE@Base 4:15.08.0
 _ZN17IncidenceEditorNG30IndividualMailComponentFactory11qt_metacallEN11QMetaObject4CallEiPPv@Base 4:15.08.0
 _ZN17IncidenceEditorNG30IndividualMailComponentFactory11qt_metacastEPKc@Base 4:15.08.0
 _ZN17IncidenceEditorNG30IndividualMailComponentFactory16staticMetaObjectE@Base 4:15.08.0
 _ZN17IncidenceEditorNG30IndividualMailComponentFactory21createMessageQueueJobERK14QSharedPointerIN8KCalCore13IncidenceBaseEERKN19KIdentityManagement8IdentityEP7QObject@Base 4:15.08.0
 _ZN17IncidenceEditorNG30IndividualMailComponentFactory30createITIPHanderDialogDelegateERK14QSharedPointerIN8KCalCore9IncidenceEENS2_10iTIPMethodEP7QWidget@Base 4:15.08.0
 _ZN17IncidenceEditorNG30IndividualMailComponentFactory9onSetEditERK14QSharedPointerIN8KCalCore9IncidenceEERK7QVectorIS1_INS2_8AttendeeEEE@Base 4:15.08.0
 _ZN17IncidenceEditorNG30IndividualMailComponentFactoryC1EP7QObject@Base 4:15.08.0
 _ZN17IncidenceEditorNG30IndividualMailComponentFactoryC2EP7QObject@Base 4:15.08.0
 _ZNK17IncidenceEditorNG11AlarmDialog4saveERK14QSharedPointerIN8KCalCore5AlarmEE@Base 4:15.08.0
 _ZNK17IncidenceEditorNG12AttendeeData7isEmptyEv@Base 4:15.08.0
 _ZNK17IncidenceEditorNG12AttendeeData8attendeeEv@Base 4:15.08.0
 _ZNK17IncidenceEditorNG12AttendeeLine10isModifiedEv@Base 4:15.08.0
 _ZNK17IncidenceEditorNG12AttendeeLine10metaObjectEv@Base 4:15.08.0
 _ZNK17IncidenceEditorNG12AttendeeLine4dataEv@Base 4:15.08.0
 _ZNK17IncidenceEditorNG12AttendeeLine6tabOutEv@Base 4:15.08.0
 _ZNK17IncidenceEditorNG12AttendeeLine7isEmptyEv@Base 4:15.08.0
 _ZNK17IncidenceEditorNG12AttendeeLine8isActiveEv@Base 4:15.08.0
 _ZNK17IncidenceEditorNG12EditorConfig10fullEmailsEv@Base 4:15.08.0
 _ZNK17IncidenceEditorNG12EditorConfig37showTimeZoneSelectorInIncidenceEditorEv@Base 4:15.08.0
 _ZNK17IncidenceEditorNG12EditorConfig5emailEv@Base 4:15.08.0
 _ZNK17IncidenceEditorNG12EditorConfig8fullNameEv@Base 4:15.08.0
 _ZNK17IncidenceEditorNG12EditorConfig8thatIsMeERK7QString@Base 4:15.08.0
 _ZNK17IncidenceEditorNG12EditorConfig9allEmailsEv@Base 4:15.08.0
 _ZNK17IncidenceEditorNG12ItemEditorUi7isValidEv@Base 4:15.08.0
 _ZNK17IncidenceEditorNG14AttendeeEditor10metaObjectEv@Base 4:15.08.0
 _ZNK17IncidenceEditorNG14AttendeeEditor9attendeesEv@Base 4:15.08.0
 _ZNK17IncidenceEditorNG14CategoryDialog10metaObjectEv@Base 4:15.08.0
 _ZNK17IncidenceEditorNG14CategoryDialog18selectedCategoriesEv@Base 4:15.08.0
 _ZNK17IncidenceEditorNG14CategoryWidget10metaObjectEv@Base 4:15.08.0
 _ZNK17IncidenceEditorNG14CategoryWidget18selectedCategoriesEv@Base 4:15.08.0
 _ZNK17IncidenceEditorNG14CategoryWidget8listViewEv@Base 4:15.08.0
 _ZNK17IncidenceEditorNG14GlobalSettings10metaObjectEv@Base 4:15.08.0
 _ZNK17IncidenceEditorNG14IncidenceAlarm10metaObjectEv@Base 4:15.08.0
 _ZNK17IncidenceEditorNG14IncidenceAlarm7isDirtyEv@Base 4:15.08.0
 _ZNK17IncidenceEditorNG15IncidenceEditor10metaObjectEv@Base 4:15.08.0
 _ZNK17IncidenceEditorNG15IncidenceEditor14printDebugInfoEv@Base 4:15.08.0
 _ZNK17IncidenceEditorNG15IncidenceEditor15lastErrorStringEv@Base 4:15.08.0
 _ZNK17IncidenceEditorNG15IncidenceEditor4typeEv@Base 4:15.08.0
 _ZNK17IncidenceEditorNG15IncidenceEditor7isValidEv@Base 4:15.08.0
 _ZNK17IncidenceEditorNG16AttendeeComboBox10metaObjectEv@Base 4:15.08.0
 _ZNK17IncidenceEditorNG16AttendeeComboBox12currentIndexEv@Base 4:15.08.0
 _ZNK17IncidenceEditorNG16AttendeeLineEdit10metaObjectEv@Base 4:15.08.0
 _ZNK17IncidenceEditorNG16ConflictResolver10metaObjectEv@Base 4:15.08.0
 _ZNK17IncidenceEditorNG16ConflictResolver14availableSlotsEv@Base 4:15.08.0
 _ZNK17IncidenceEditorNG16ConflictResolver5modelEv@Base 4:15.08.0
 _ZNK17IncidenceEditorNG16IncidenceSecrecy10metaObjectEv@Base 4:15.08.0
 _ZNK17IncidenceEditorNG16IncidenceSecrecy7isDirtyEv@Base 4:15.08.0
 _ZNK17IncidenceEditorNG16SchedulingDialog10metaObjectEv@Base 4:15.08.0
 _ZNK17IncidenceEditorNG16SchedulingDialog17selectedStartDateEv@Base 4:15.08.0
 _ZNK17IncidenceEditorNG16SchedulingDialog17selectedStartTimeEv@Base 4:15.08.0
 _ZNK17IncidenceEditorNG17EditorItemManager10collectionEv@Base 4:15.08.0
 _ZNK17IncidenceEditorNG17EditorItemManager10metaObjectEv@Base 4:15.08.0
 _ZNK17IncidenceEditorNG17EditorItemManager4itemENS0_9ItemStateE@Base 4:15.08.0
 _ZNK17IncidenceEditorNG17FreeBusyUrlDialog10metaObjectEv@Base 4:15.08.0
 _ZNK17IncidenceEditorNG17FreeBusyUrlWidget10metaObjectEv@Base 4:15.08.0
 _ZNK17IncidenceEditorNG17IncidenceAttendee10metaObjectEv@Base 4:15.08.0
 _ZNK17IncidenceEditorNG17IncidenceAttendee12iAmOrganizerEv@Base 4:15.08.0
 _ZNK17IncidenceEditorNG17IncidenceAttendee12roleDelegateEv@Base 4:15.08.0
 _ZNK17IncidenceEditorNG17IncidenceAttendee13attendeeCountEv@Base 4:15.08.0
 _ZNK17IncidenceEditorNG17IncidenceAttendee13stateDelegateEv@Base 4:15.08.0
 _ZNK17IncidenceEditorNG17IncidenceAttendee14printDebugInfoEv@Base 4:15.08.0
 _ZNK17IncidenceEditorNG17IncidenceAttendee16attendeeDelegateEv@Base 4:15.08.0
 _ZNK17IncidenceEditorNG17IncidenceAttendee16responseDelegateEv@Base 4:15.08.0
 _ZNK17IncidenceEditorNG17IncidenceAttendee7isDirtyEv@Base 4:15.08.0
 _ZNK17IncidenceEditorNG17IncidenceAttendee9dataModelEv@Base 4:15.08.0
 _ZNK17IncidenceEditorNG17IncidenceDateTime10metaObjectEv@Base 4:15.08.0
 _ZNK17IncidenceEditorNG17IncidenceDateTime14printDebugInfoEv@Base 4:15.08.0
 _ZNK17IncidenceEditorNG17IncidenceDateTime18currentEndDateTimeEv@Base 4:15.08.0
 _ZNK17IncidenceEditorNG17IncidenceDateTime18endDateTimeEnabledEv@Base 4:15.08.0
 _ZNK17IncidenceEditorNG17IncidenceDateTime20currentStartDateTimeEv@Base 4:15.08.0
 _ZNK17IncidenceEditorNG17IncidenceDateTime20startDateTimeEnabledEv@Base 4:15.08.0
 _ZNK17IncidenceEditorNG17IncidenceDateTime7endDateEv@Base 4:15.08.0
 _ZNK17IncidenceEditorNG17IncidenceDateTime7endTimeEv@Base 4:15.08.0
 _ZNK17IncidenceEditorNG17IncidenceDateTime7isDirtyERK14QSharedPointerIN8KCalCore4TodoEE@Base 4:15.08.0
 _ZNK17IncidenceEditorNG17IncidenceDateTime7isDirtyERK14QSharedPointerIN8KCalCore5EventEE@Base 4:15.08.0
 _ZNK17IncidenceEditorNG17IncidenceDateTime7isDirtyERK14QSharedPointerIN8KCalCore7JournalEE@Base 4:15.08.0
 _ZNK17IncidenceEditorNG17IncidenceDateTime7isDirtyEv@Base 4:15.08.0
 _ZNK17IncidenceEditorNG17IncidenceDateTime7isValidEv@Base 4:15.08.0
 _ZNK17IncidenceEditorNG17IncidenceDateTime9startDateEv@Base 4:15.08.0
 _ZNK17IncidenceEditorNG17IncidenceDateTime9startTimeEv@Base 4:15.08.0
 _ZNK17IncidenceEditorNG17IncidenceDefaults11setDefaultsERK14QSharedPointerIN8KCalCore9IncidenceEE@Base 4:15.08.0
 _ZNK17IncidenceEditorNG17IncidenceResource10metaObjectEv@Base 4:15.08.0
 _ZNK17IncidenceEditorNG17IncidenceResource13resourceCountEv@Base 4:15.08.0
 _ZNK17IncidenceEditorNG17IncidenceResource7isDirtyEv@Base 4:15.08.0
 _ZNK17IncidenceEditorNG17KTimeZoneComboBox10metaObjectEv@Base 4:15.08.0
 _ZNK17IncidenceEditorNG17KTimeZoneComboBox16selectedTimeSpecEv@Base 4:15.08.0
 _ZNK17IncidenceEditorNG18AttachmentIconItem10attachmentEv@Base 4:15.08.0
 _ZNK17IncidenceEditorNG18AttachmentIconItem3uriEv@Base 4:15.08.0
 _ZNK17IncidenceEditorNG18AttachmentIconItem4iconEv@Base 4:15.08.0
 _ZNK17IncidenceEditorNG18AttachmentIconItem5labelEv@Base 4:15.08.0
 _ZNK17IncidenceEditorNG18AttachmentIconItem8isBinaryEv@Base 4:15.08.0
 _ZNK17IncidenceEditorNG18AttachmentIconItem8mimeTypeEv@Base 4:15.08.0
 _ZNK17IncidenceEditorNG18AttachmentIconItem8savedUriEv@Base 4:15.08.0
 _ZNK17IncidenceEditorNG18AttachmentIconView21tempFileForAttachmentERK14QSharedPointerIN8KCalCore10AttachmentEE@Base 4:15.08.0
 _ZNK17IncidenceEditorNG18AttachmentIconView8mimeDataE5QListIP15QListWidgetItemE@Base 4:15.08.0
 _ZNK17IncidenceEditorNG18AttachmentIconView8mimeDataEv@Base 4:15.08.0
 _ZNK17IncidenceEditorNG18CategoryEditDialog10metaObjectEv@Base 4:15.08.0
 _ZNK17IncidenceEditorNG18IncidenceWhatWhere10metaObjectEv@Base 4:15.08.0
 _ZNK17IncidenceEditorNG18IncidenceWhatWhere7isDirtyEv@Base 4:15.08.0
 _ZNK17IncidenceEditorNG18IncidenceWhatWhere7isValidEv@Base 4:15.08.0
 _ZNK17IncidenceEditorNG18ResourceManagement10metaObjectEv@Base 4:15.08.0
 _ZNK17IncidenceEditorNG18ResourceManagement12selectedItemEv@Base 4:15.08.0
 _ZNK17IncidenceEditorNG19AttendeeLineFactory10metaObjectEv@Base 4:15.08.0
 _ZNK17IncidenceEditorNG19AutoCheckTreeWidget10itemByPathERK11QStringList@Base 4:15.08.0
 _ZNK17IncidenceEditorNG19AutoCheckTreeWidget10metaObjectEv@Base 4:15.08.0
 _ZNK17IncidenceEditorNG19AutoCheckTreeWidget10pathByItemEP15QTreeWidgetItem@Base 4:15.08.0
 _ZNK17IncidenceEditorNG19AutoCheckTreeWidget17autoCheckChildrenEv@Base 4:15.08.0
 _ZNK17IncidenceEditorNG19AutoCheckTreeWidget8findItemEP15QTreeWidgetItemRK7QString@Base 4:15.08.0
 _ZNK17IncidenceEditorNG19AutoCheckTreeWidget9autoCheckEv@Base 4:15.08.0
 _ZNK17IncidenceEditorNG19IncidenceAttachment10metaObjectEv@Base 4:15.08.0
 _ZNK17IncidenceEditorNG19IncidenceAttachment15attachmentCountEv@Base 4:15.08.0
 _ZNK17IncidenceEditorNG19IncidenceAttachment7isDirtyEv@Base 4:15.08.0
 _ZNK17IncidenceEditorNG19IncidenceCategories10categoriesEv@Base 4:15.08.0
 _ZNK17IncidenceEditorNG19IncidenceCategories10metaObjectEv@Base 4:15.08.0
 _ZNK17IncidenceEditorNG19IncidenceCategories14printDebugInfoEv@Base 4:15.08.0
 _ZNK17IncidenceEditorNG19IncidenceCategories7isDirtyEv@Base 4:15.08.0
 _ZNK17IncidenceEditorNG19IncidenceRecurrence10metaObjectEv@Base 4:15.08.0
 _ZNK17IncidenceEditorNG19IncidenceRecurrence11currentDateEv@Base 4:15.08.0
 _ZNK17IncidenceEditorNG19IncidenceRecurrence11subsOrdinalERK16KLocalizedStringi@Base 4:15.08.0
 _ZNK17IncidenceEditorNG19IncidenceRecurrence14numberToStringEi@Base 4:15.08.0
 _ZNK17IncidenceEditorNG19IncidenceRecurrence16monthWeekFromEndEv@Base 4:15.08.0
 _ZNK17IncidenceEditorNG19IncidenceRecurrence16writeToIncidenceERK14QSharedPointerIN8KCalCore9IncidenceEE@Base 4:15.08.0
 _ZNK17IncidenceEditorNG19IncidenceRecurrence17dayOfMonthFromEndEv@Base 4:15.08.0
 _ZNK17IncidenceEditorNG19IncidenceRecurrence18dayOfYearFromStartEv@Base 4:15.08.0
 _ZNK17IncidenceEditorNG19IncidenceRecurrence18monthWeekFromStartEv@Base 4:15.08.0
 _ZNK17IncidenceEditorNG19IncidenceRecurrence19dayOfMonthFromStartEv@Base 4:15.08.0
 _ZNK17IncidenceEditorNG19IncidenceRecurrence20weekdayCountForMonthERK5QDate@Base 4:15.08.0
 _ZNK17IncidenceEditorNG19IncidenceRecurrence21currentRecurrenceTypeEv@Base 4:15.08.0
 _ZNK17IncidenceEditorNG19IncidenceRecurrence7isDirtyEv@Base 4:15.08.0
 _ZNK17IncidenceEditorNG19IncidenceRecurrence7isValidEv@Base 4:15.08.0
 _ZNK17IncidenceEditorNG19IncidenceRecurrence7weekdayEv@Base 4:15.08.0
 _ZNK17IncidenceEditorNG19IncidenceRecurrence8durationEv@Base 4:15.08.0
 _ZNK17IncidenceEditorNG20AttachmentEditDialog10metaObjectEv@Base 4:15.08.0
 _ZNK17IncidenceEditorNG20CategorySelectDialog10metaObjectEv@Base 4:15.08.0
 _ZNK17IncidenceEditorNG20CategorySelectDialog18selectedCategoriesEv@Base 4:15.08.0
 _ZNK17IncidenceEditorNG20CategorySelectWidget10metaObjectEv@Base 4:15.08.0
 _ZNK17IncidenceEditorNG20CategorySelectWidget18selectedCategoriesEv@Base 4:15.08.0
 _ZNK17IncidenceEditorNG20CategorySelectWidget8listViewEv@Base 4:15.08.0
 _ZNK17IncidenceEditorNG20IncidenceDescription10metaObjectEv@Base 4:15.08.0
 _ZNK17IncidenceEditorNG20IncidenceDescription14printDebugInfoEv@Base 4:15.08.0
 _ZNK17IncidenceEditorNG20IncidenceDescription7isDirtyEv@Base 4:15.08.0
 _ZNK17IncidenceEditorNG22KOrganizerEditorConfig10fullEmailsEv@Base 4:15.08.0
 _ZNK17IncidenceEditorNG22KOrganizerEditorConfig12reminderTimeEv@Base 4:15.08.0
 _ZNK17IncidenceEditorNG22KOrganizerEditorConfig13audioFilePathEv@Base 4:15.08.0
 _ZNK17IncidenceEditorNG22KOrganizerEditorConfig15defaultDurationEv@Base 4:15.08.0
 _ZNK17IncidenceEditorNG22KOrganizerEditorConfig17reminderTimeUnitsEv@Base 4:15.08.0
 _ZNK17IncidenceEditorNG22KOrganizerEditorConfig20activeDesignerFieldsEv@Base 4:15.08.0
 _ZNK17IncidenceEditorNG22KOrganizerEditorConfig20defaultTodoRemindersEv@Base 4:15.08.0
 _ZNK17IncidenceEditorNG22KOrganizerEditorConfig21defaultEventRemindersEv@Base 4:15.08.0
 _ZNK17IncidenceEditorNG22KOrganizerEditorConfig25defaultAudioFileRemindersEv@Base 4:15.08.0
 _ZNK17IncidenceEditorNG22KOrganizerEditorConfig37showTimeZoneSelectorInIncidenceEditorEv@Base 4:15.08.0
 _ZNK17IncidenceEditorNG22KOrganizerEditorConfig5emailEv@Base 4:15.08.0
 _ZNK17IncidenceEditorNG22KOrganizerEditorConfig6configEv@Base 4:15.08.0
 _ZNK17IncidenceEditorNG22KOrganizerEditorConfig8fullNameEv@Base 4:15.08.0
 _ZNK17IncidenceEditorNG22KOrganizerEditorConfig8thatIsMeERK7QString@Base 4:15.08.0
 _ZNK17IncidenceEditorNG22KOrganizerEditorConfig9allEmailsEv@Base 4:15.08.0
 _ZNK17IncidenceEditorNG22KOrganizerEditorConfig9startTimeEv@Base 4:15.08.0
 _ZNK17IncidenceEditorNG23CombinedIncidenceEditor10metaObjectEv@Base 4:15.08.0
 _ZNK17IncidenceEditorNG23CombinedIncidenceEditor11showMessageERK7QStringN14KMessageWidget11MessageTypeE@Base 4:15.08.0
 _ZNK17IncidenceEditorNG23CombinedIncidenceEditor7isDirtyEv@Base 4:15.08.0
 _ZNK17IncidenceEditorNG23CombinedIncidenceEditor7isValidEv@Base 4:15.08.0
 _ZNK17IncidenceEditorNG23FreeBusyGanttProxyModel10tooltipifyERKN8KCalCore14FreeBusyPeriodERKN9KDateTime4SpecE@Base 4:15.08.0
 _ZNK17IncidenceEditorNG23FreeBusyGanttProxyModel4dataERK11QModelIndexi@Base 4:15.08.0
 _ZNK17IncidenceEditorNG27IncidenceCompletionPriority10metaObjectEv@Base 4:15.08.0
 _ZNK17IncidenceEditorNG27IncidenceCompletionPriority7isDirtyEv@Base 4:15.08.0
 _ZNK17IncidenceEditorNG30IndividualMailComponentFactory10metaObjectEv@Base 4:15.08.0
 (optional=templinst)_ZNK7Akonadi4Item11payloadImplIN9KContacts12ContactGroupEEENSt9enable_ifIXntsrNS_8Internal12PayloadTraitIT_EE13isPolymorphicES7_E4typeEv@Base 4:15.08.0
 (optional=templinst)_ZNK7Akonadi4Item11payloadImplIN9KContacts9AddresseeEEENSt9enable_ifIXntsrNS_8Internal12PayloadTraitIT_EE13isPolymorphicES7_E4typeEv@Base 4:15.08.0
 _ZTIN17IncidenceEditorNG11AlarmDialogE@Base 4:15.08.0
 _ZTIN17IncidenceEditorNG12AttendeeDataE@Base 4:15.08.0
 _ZTIN17IncidenceEditorNG12AttendeeLineE@Base 4:15.08.0
 _ZTIN17IncidenceEditorNG12EditorConfigE@Base 4:15.08.0
 _ZTIN17IncidenceEditorNG12ItemEditorUiE@Base 4:15.08.0
 _ZTIN17IncidenceEditorNG14AttendeeEditorE@Base 4:15.08.0
 _ZTIN17IncidenceEditorNG14CategoryDialogE@Base 4:15.08.0
 _ZTIN17IncidenceEditorNG14CategoryWidgetE@Base 4:15.08.0
 _ZTIN17IncidenceEditorNG14GlobalSettingsE@Base 4:15.08.0
 _ZTIN17IncidenceEditorNG14IncidenceAlarmE@Base 4:15.08.0
 _ZTIN17IncidenceEditorNG15IncidenceEditorE@Base 4:15.08.0
 _ZTIN17IncidenceEditorNG16AttendeeComboBoxE@Base 4:15.08.0
 _ZTIN17IncidenceEditorNG16AttendeeLineEditE@Base 4:15.08.0
 _ZTIN17IncidenceEditorNG16ConflictResolverE@Base 4:15.08.0
 _ZTIN17IncidenceEditorNG16IncidenceSecrecyE@Base 4:15.08.0
 _ZTIN17IncidenceEditorNG16SchedulingDialogE@Base 4:15.08.0
 _ZTIN17IncidenceEditorNG17EditorItemManagerE@Base 4:15.08.0
 _ZTIN17IncidenceEditorNG17FreeBusyUrlDialogE@Base 4:15.08.0
 _ZTIN17IncidenceEditorNG17FreeBusyUrlWidgetE@Base 4:15.08.0
 _ZTIN17IncidenceEditorNG17IncidenceAttendeeE@Base 4:15.08.0
 _ZTIN17IncidenceEditorNG17IncidenceDateTimeE@Base 4:15.08.0
 _ZTIN17IncidenceEditorNG17IncidenceResourceE@Base 4:15.08.0
 _ZTIN17IncidenceEditorNG17KTimeZoneComboBoxE@Base 4:15.08.0
 _ZTIN17IncidenceEditorNG18AttachmentIconItemE@Base 4:15.08.0
 _ZTIN17IncidenceEditorNG18AttachmentIconViewE@Base 4:15.08.0
 _ZTIN17IncidenceEditorNG18CategoryEditDialogE@Base 4:15.08.0
 _ZTIN17IncidenceEditorNG18IncidenceWhatWhereE@Base 4:15.08.0
 _ZTIN17IncidenceEditorNG18ResourceManagementE@Base 4:15.08.0
 _ZTIN17IncidenceEditorNG19AttendeeLineFactoryE@Base 4:15.08.0
 _ZTIN17IncidenceEditorNG19AutoCheckTreeWidgetE@Base 4:15.08.0
 _ZTIN17IncidenceEditorNG19GroupwareUiDelegateE@Base 4:15.08.0
 _ZTIN17IncidenceEditorNG19IncidenceAttachmentE@Base 4:15.08.0
 _ZTIN17IncidenceEditorNG19IncidenceCategoriesE@Base 4:15.08.0
 _ZTIN17IncidenceEditorNG19IncidenceRecurrenceE@Base 4:15.08.0
 _ZTIN17IncidenceEditorNG20AttachmentEditDialogE@Base 4:15.08.0
 _ZTIN17IncidenceEditorNG20CategorySelectDialogE@Base 4:15.08.0
 _ZTIN17IncidenceEditorNG20CategorySelectWidgetE@Base 4:15.08.0
 _ZTIN17IncidenceEditorNG20IncidenceDescriptionE@Base 4:15.08.0
 _ZTIN17IncidenceEditorNG22KOrganizerEditorConfigE@Base 4:15.08.0
 _ZTIN17IncidenceEditorNG23CombinedIncidenceEditorE@Base 4:15.08.0
 _ZTIN17IncidenceEditorNG23FreeBusyGanttProxyModelE@Base 4:15.08.0
 _ZTIN17IncidenceEditorNG27IncidenceCompletionPriorityE@Base 4:15.08.0
 _ZTIN17IncidenceEditorNG30IndividualMailComponentFactoryE@Base 4:15.08.0
 _ZTIN4KPIM19MultiplyingLineDataE@Base 4:15.08.0
 _ZTSN17IncidenceEditorNG11AlarmDialogE@Base 4:15.08.0
 _ZTSN17IncidenceEditorNG12AttendeeDataE@Base 4:15.08.0
 _ZTSN17IncidenceEditorNG12AttendeeLineE@Base 4:15.08.0
 _ZTSN17IncidenceEditorNG12EditorConfigE@Base 4:15.08.0
 _ZTSN17IncidenceEditorNG12ItemEditorUiE@Base 4:15.08.0
 _ZTSN17IncidenceEditorNG14AttendeeEditorE@Base 4:15.08.0
 _ZTSN17IncidenceEditorNG14CategoryDialogE@Base 4:15.08.0
 _ZTSN17IncidenceEditorNG14CategoryWidgetE@Base 4:15.08.0
 _ZTSN17IncidenceEditorNG14GlobalSettingsE@Base 4:15.08.0
 _ZTSN17IncidenceEditorNG14IncidenceAlarmE@Base 4:15.08.0
 _ZTSN17IncidenceEditorNG15IncidenceEditorE@Base 4:15.08.0
 _ZTSN17IncidenceEditorNG16AttendeeComboBoxE@Base 4:15.08.0
 _ZTSN17IncidenceEditorNG16AttendeeLineEditE@Base 4:15.08.0
 _ZTSN17IncidenceEditorNG16ConflictResolverE@Base 4:15.08.0
 _ZTSN17IncidenceEditorNG16IncidenceSecrecyE@Base 4:15.08.0
 _ZTSN17IncidenceEditorNG16SchedulingDialogE@Base 4:15.08.0
 _ZTSN17IncidenceEditorNG17EditorItemManagerE@Base 4:15.08.0
 _ZTSN17IncidenceEditorNG17FreeBusyUrlDialogE@Base 4:15.08.0
 _ZTSN17IncidenceEditorNG17FreeBusyUrlWidgetE@Base 4:15.08.0
 _ZTSN17IncidenceEditorNG17IncidenceAttendeeE@Base 4:15.08.0
 _ZTSN17IncidenceEditorNG17IncidenceDateTimeE@Base 4:15.08.0
 _ZTSN17IncidenceEditorNG17IncidenceResourceE@Base 4:15.08.0
 _ZTSN17IncidenceEditorNG17KTimeZoneComboBoxE@Base 4:15.08.0
 _ZTSN17IncidenceEditorNG18AttachmentIconItemE@Base 4:15.08.0
 _ZTSN17IncidenceEditorNG18AttachmentIconViewE@Base 4:15.08.0
 _ZTSN17IncidenceEditorNG18CategoryEditDialogE@Base 4:15.08.0
 _ZTSN17IncidenceEditorNG18IncidenceWhatWhereE@Base 4:15.08.0
 _ZTSN17IncidenceEditorNG18ResourceManagementE@Base 4:15.08.0
 _ZTSN17IncidenceEditorNG19AttendeeLineFactoryE@Base 4:15.08.0
 _ZTSN17IncidenceEditorNG19AutoCheckTreeWidgetE@Base 4:15.08.0
 _ZTSN17IncidenceEditorNG19GroupwareUiDelegateE@Base 4:15.08.0
 _ZTSN17IncidenceEditorNG19IncidenceAttachmentE@Base 4:15.08.0
 _ZTSN17IncidenceEditorNG19IncidenceCategoriesE@Base 4:15.08.0
 _ZTSN17IncidenceEditorNG19IncidenceRecurrenceE@Base 4:15.08.0
 _ZTSN17IncidenceEditorNG20AttachmentEditDialogE@Base 4:15.08.0
 _ZTSN17IncidenceEditorNG20CategorySelectDialogE@Base 4:15.08.0
 _ZTSN17IncidenceEditorNG20CategorySelectWidgetE@Base 4:15.08.0
 _ZTSN17IncidenceEditorNG20IncidenceDescriptionE@Base 4:15.08.0
 _ZTSN17IncidenceEditorNG22KOrganizerEditorConfigE@Base 4:15.08.0
 _ZTSN17IncidenceEditorNG23CombinedIncidenceEditorE@Base 4:15.08.0
 _ZTSN17IncidenceEditorNG23FreeBusyGanttProxyModelE@Base 4:15.08.0
 _ZTSN17IncidenceEditorNG27IncidenceCompletionPriorityE@Base 4:15.08.0
 _ZTSN17IncidenceEditorNG30IndividualMailComponentFactoryE@Base 4:15.08.0
 _ZTSN4KPIM19MultiplyingLineDataE@Base 4:15.08.0
 _ZTVN17IncidenceEditorNG11AlarmDialogE@Base 4:15.08.0
 _ZTVN17IncidenceEditorNG12AttendeeDataE@Base 4:15.08.0
 _ZTVN17IncidenceEditorNG12AttendeeLineE@Base 4:15.08.0
 _ZTVN17IncidenceEditorNG12EditorConfigE@Base 4:15.08.0
 _ZTVN17IncidenceEditorNG12ItemEditorUiE@Base 4:15.08.0
 _ZTVN17IncidenceEditorNG14AttendeeEditorE@Base 4:15.08.0
 _ZTVN17IncidenceEditorNG14CategoryDialogE@Base 4:15.08.0
 _ZTVN17IncidenceEditorNG14CategoryWidgetE@Base 4:15.08.0
 _ZTVN17IncidenceEditorNG14GlobalSettingsE@Base 4:15.08.0
 _ZTVN17IncidenceEditorNG14IncidenceAlarmE@Base 4:15.08.0
 _ZTVN17IncidenceEditorNG15IncidenceEditorE@Base 4:15.08.0
 _ZTVN17IncidenceEditorNG16AttendeeComboBoxE@Base 4:15.08.0
 _ZTVN17IncidenceEditorNG16AttendeeLineEditE@Base 4:15.08.0
 _ZTVN17IncidenceEditorNG16ConflictResolverE@Base 4:15.08.0
 _ZTVN17IncidenceEditorNG16IncidenceSecrecyE@Base 4:15.08.0
 _ZTVN17IncidenceEditorNG16SchedulingDialogE@Base 4:15.08.0
 _ZTVN17IncidenceEditorNG17EditorItemManagerE@Base 4:15.08.0
 _ZTVN17IncidenceEditorNG17FreeBusyUrlDialogE@Base 4:15.08.0
 _ZTVN17IncidenceEditorNG17FreeBusyUrlWidgetE@Base 4:15.08.0
 _ZTVN17IncidenceEditorNG17IncidenceAttendeeE@Base 4:15.08.0
 _ZTVN17IncidenceEditorNG17IncidenceDateTimeE@Base 4:15.08.0
 _ZTVN17IncidenceEditorNG17IncidenceResourceE@Base 4:15.08.0
 _ZTVN17IncidenceEditorNG17KTimeZoneComboBoxE@Base 4:15.08.0
 _ZTVN17IncidenceEditorNG18AttachmentIconItemE@Base 4:15.08.0
 _ZTVN17IncidenceEditorNG18AttachmentIconViewE@Base 4:15.08.0
 _ZTVN17IncidenceEditorNG18CategoryEditDialogE@Base 4:15.08.0
 _ZTVN17IncidenceEditorNG18IncidenceWhatWhereE@Base 4:15.08.0
 _ZTVN17IncidenceEditorNG18ResourceManagementE@Base 4:15.08.0
 _ZTVN17IncidenceEditorNG19AttendeeLineFactoryE@Base 4:15.08.0
 _ZTVN17IncidenceEditorNG19AutoCheckTreeWidgetE@Base 4:15.08.0
 _ZTVN17IncidenceEditorNG19GroupwareUiDelegateE@Base 4:15.08.0
 _ZTVN17IncidenceEditorNG19IncidenceAttachmentE@Base 4:15.08.0
 _ZTVN17IncidenceEditorNG19IncidenceCategoriesE@Base 4:15.08.0
 _ZTVN17IncidenceEditorNG19IncidenceRecurrenceE@Base 4:15.08.0
 _ZTVN17IncidenceEditorNG20AttachmentEditDialogE@Base 4:15.08.0
 _ZTVN17IncidenceEditorNG20CategorySelectDialogE@Base 4:15.08.0
 _ZTVN17IncidenceEditorNG20CategorySelectWidgetE@Base 4:15.08.0
 _ZTVN17IncidenceEditorNG20IncidenceDescriptionE@Base 4:15.08.0
 _ZTVN17IncidenceEditorNG22KOrganizerEditorConfigE@Base 4:15.08.0
 _ZTVN17IncidenceEditorNG23CombinedIncidenceEditorE@Base 4:15.08.0
 _ZTVN17IncidenceEditorNG23FreeBusyGanttProxyModelE@Base 4:15.08.0
 _ZTVN17IncidenceEditorNG27IncidenceCompletionPriorityE@Base 4:15.08.0
 _ZTVN17IncidenceEditorNG30IndividualMailComponentFactoryE@Base 4:15.08.0
 _ZTVN4KPIM19MultiplyingLineDataE@Base 4:15.08.0
 (c++)"non-virtual thunk to IncidenceEditorNG::AlarmDialog::~AlarmDialog()@Base" 4:15.08.0
 (c++)"non-virtual thunk to IncidenceEditorNG::AttachmentEditDialog::~AttachmentEditDialog()@Base" 4:15.08.0
 (c++)"non-virtual thunk to IncidenceEditorNG::AutoCheckTreeWidget::~AutoCheckTreeWidget()@Base" 4:15.08.0
 (c++)"non-virtual thunk to IncidenceEditorNG::CategoryDialog::~CategoryDialog()@Base" 4:15.08.0
 (c++)"non-virtual thunk to IncidenceEditorNG::CategoryEditDialog::~CategoryEditDialog()@Base" 4:15.08.0
 (c++)"non-virtual thunk to IncidenceEditorNG::CategorySelectDialog::~CategorySelectDialog()@Base" 4:15.08.0
 (c++)"non-virtual thunk to IncidenceEditorNG::CategorySelectWidget::~CategorySelectWidget()@Base" 4:15.08.0
 (c++)"non-virtual thunk to IncidenceEditorNG::CategoryWidget::~CategoryWidget()@Base" 4:15.08.0
 (c++)"non-virtual thunk to IncidenceEditorNG::FreeBusyUrlWidget::~FreeBusyUrlWidget()@Base" 4:15.08.0
 (c++)"non-virtual thunk to IncidenceEditorNG::KTimeZoneComboBox::~KTimeZoneComboBox()@Base" 4:15.08.0
 (c++)"non-virtual thunk to IncidenceEditorNG::ResourceManagement::~ResourceManagement()@Base" 4:15.08.0
 (c++)"non-virtual thunk to IncidenceEditorNG::SchedulingDialog::~SchedulingDialog()@Base" 4:15.08.0
