# SymbolsHelper-Confirmed: 4:15.08.0 amd64
libkdgantt2.so.1 libkdgantt2-1 #MINVER#
 _ZN7KDGantt10Constraint7PrivateC1ERKS1_@Base 4:15.08.0
 _ZN7KDGantt10Constraint7PrivateC1Ev@Base 4:15.08.0
 _ZN7KDGantt10Constraint7PrivateC2ERKS1_@Base 4:15.08.0
 _ZN7KDGantt10Constraint7PrivateC2Ev@Base 4:15.08.0
 _ZN7KDGantt10Constraint7setDataEiRK8QVariant@Base 4:15.08.0
 _ZN7KDGantt10ConstraintC1ERK11QModelIndexS3_NS0_4TypeE@Base 4:15.08.0
 _ZN7KDGantt10ConstraintC1ERKS0_@Base 4:15.08.0
 _ZN7KDGantt10ConstraintC2ERK11QModelIndexS3_NS0_4TypeE@Base 4:15.08.0
 _ZN7KDGantt10ConstraintC2ERKS0_@Base 4:15.08.0
 _ZN7KDGantt10ConstraintD1Ev@Base 4:15.08.0
 _ZN7KDGantt10ConstraintD2Ev@Base 4:15.08.0
 _ZN7KDGantt10ConstraintaSERKS0_@Base 4:15.08.0
 _ZN7KDGantt10ProxyModel11qt_metacallEN11QMetaObject4CallEiPPv@Base 4:15.08.0
 _ZN7KDGantt10ProxyModel11qt_metacastEPKc@Base 4:15.08.0
 _ZN7KDGantt10ProxyModel16staticMetaObjectE@Base 4:15.08.0
 _ZN7KDGantt10ProxyModel4initEv@Base 4:15.08.0
 _ZN7KDGantt10ProxyModel7PrivateC1EPS0_@Base 4:15.08.0
 _ZN7KDGantt10ProxyModel7PrivateC2EPS0_@Base 4:15.08.0
 _ZN7KDGantt10ProxyModel7setDataERK11QModelIndexRK8QVarianti@Base 4:15.08.0
 _ZN7KDGantt10ProxyModel7setRoleEii@Base 4:15.08.0
 _ZN7KDGantt10ProxyModel9setColumnEii@Base 4:15.08.0
 _ZN7KDGantt10ProxyModelC1EP7QObject@Base 4:15.08.0
 _ZN7KDGantt10ProxyModelC2EP7QObject@Base 4:15.08.0
 _ZN7KDGantt10ProxyModelD0Ev@Base 4:15.08.0
 _ZN7KDGantt10ProxyModelD1Ev@Base 4:15.08.0
 _ZN7KDGantt10ProxyModelD2Ev@Base 4:15.08.0
 _ZN7KDGantt12AbstractGrid11gridChangedEv@Base 4:15.08.0
 _ZN7KDGantt12AbstractGrid11qt_metacallEN11QMetaObject4CallEiPPv@Base 4:15.08.0
 _ZN7KDGantt12AbstractGrid11qt_metacastEPKc@Base 4:15.08.0
 _ZN7KDGantt12AbstractGrid12setRootIndexERK11QModelIndex@Base 4:15.08.0
 _ZN7KDGantt12AbstractGrid16staticMetaObjectE@Base 4:15.08.0
 _ZN7KDGantt12AbstractGrid8setModelEP18QAbstractItemModel@Base 4:15.08.0
 _ZN7KDGantt12AbstractGridC1EP7QObject@Base 4:15.08.0
 _ZN7KDGantt12AbstractGridC2EP7QObject@Base 4:15.08.0
 _ZN7KDGantt12AbstractGridD0Ev@Base 4:15.08.0
 _ZN7KDGantt12AbstractGridD1Ev@Base 4:15.08.0
 _ZN7KDGantt12AbstractGridD2Ev@Base 4:15.08.0
 _ZN7KDGantt12DateTimeGrid11paintHeaderEP8QPainterRK6QRectFS5_dP7QWidget@Base 4:15.08.0
 _ZN7KDGantt12DateTimeGrid11qt_metacallEN11QMetaObject4CallEiPPv@Base 4:15.08.0
 _ZN7KDGantt12DateTimeGrid11qt_metacastEPKc@Base 4:15.08.0
 _ZN7KDGantt12DateTimeGrid11setDayWidthEd@Base 4:15.08.0
 _ZN7KDGantt12DateTimeGrid11setFreeDaysERK4QSetIN2Qt9DayOfWeekEE@Base 4:15.08.0
 _ZN7KDGantt12DateTimeGrid12setWeekStartEN2Qt9DayOfWeekE@Base 4:15.08.0
 _ZN7KDGantt12DateTimeGrid16setRowSeparatorsEb@Base 4:15.08.0
 _ZN7KDGantt12DateTimeGrid16setStartDateTimeERK9QDateTime@Base 4:15.08.0
 _ZN7KDGantt12DateTimeGrid16staticMetaObjectE@Base 4:15.08.0
 _ZN7KDGantt12DateTimeGrid19paintDayScaleHeaderEP8QPainterRK6QRectFS5_dP7QWidget@Base 4:15.08.0
 _ZN7KDGantt12DateTimeGrid20paintHourScaleHeaderEP8QPainterRK6QRectFS5_dP7QWidget@Base 4:15.08.0
 _ZN7KDGantt12DateTimeGrid21setNoInformationBrushERK6QBrush@Base 4:15.08.0
 _ZN7KDGantt12DateTimeGrid22paintUserDefinedHeaderEP8QPainterRK6QRectFS5_dPKNS_22DateTimeScaleFormatterEP7QWidget@Base 4:15.08.0
 _ZN7KDGantt12DateTimeGrid24setUserDefinedLowerScaleEPNS_22DateTimeScaleFormatterE@Base 4:15.08.0
 _ZN7KDGantt12DateTimeGrid24setUserDefinedUpperScaleEPNS_22DateTimeScaleFormatterE@Base 4:15.08.0
 _ZN7KDGantt12DateTimeGrid7Private21paintVerticalDayLinesEP8QPainterRK6QRectFS6_P7QWidget@Base 4:15.08.0
 _ZN7KDGantt12DateTimeGrid7Private22getAutomaticFormattersEPPNS_22DateTimeScaleFormatterES4_@Base 4:15.08.0
 _ZN7KDGantt12DateTimeGrid7Private22paintVerticalHourLinesEP8QPainterRK6QRectFS6_P7QWidget@Base 4:15.08.0
 _ZN7KDGantt12DateTimeGrid7Private29paintVerticalUserDefinedLinesEP8QPainterRK6QRectFS6_PKNS_22DateTimeScaleFormatterEP7QWidget@Base 4:15.08.0
 _ZN7KDGantt12DateTimeGrid8setScaleENS0_5ScaleE@Base 4:15.08.0
 _ZN7KDGantt12DateTimeGrid9paintGridEP8QPainterRK6QRectFS5_PNS_21AbstractRowControllerEP7QWidget@Base 4:15.08.0
 _ZN7KDGantt12DateTimeGridC1Ev@Base 4:15.08.0
 _ZN7KDGantt12DateTimeGridC2Ev@Base 4:15.08.0
 _ZN7KDGantt12DateTimeGridD0Ev@Base 4:15.08.0
 _ZN7KDGantt12DateTimeGridD1Ev@Base 4:15.08.0
 _ZN7KDGantt12DateTimeGridD2Ev@Base 4:15.08.0
 _ZN7KDGantt12GraphicsView10clearItemsEv@Base 4:15.08.0
 _ZN7KDGantt12GraphicsView11qt_metacallEN11QMetaObject4CallEiPPv@Base 4:15.08.0
 _ZN7KDGantt12GraphicsView11qt_metacastEPKc@Base 4:15.08.0
 _ZN7KDGantt12GraphicsView11resizeEventEP12QResizeEvent@Base 4:15.08.0
 _ZN7KDGantt12GraphicsView11setReadOnlyEb@Base 4:15.08.0
 _ZN7KDGantt12GraphicsView11updateSceneEv@Base 4:15.08.0
 _ZN7KDGantt12GraphicsView12setRootIndexERK11QModelIndex@Base 4:15.08.0
 _ZN7KDGantt12GraphicsView13addConstraintERK11QModelIndexS3_6QFlagsIN2Qt16KeyboardModifierEE@Base 4:15.08.0
 _ZN7KDGantt12GraphicsView13deleteSubtreeERK11QModelIndex@Base 4:15.08.0
 _ZN7KDGantt12GraphicsView13doubleClickedERK11QModelIndex@Base 4:15.08.0
 _ZN7KDGantt12GraphicsView15setItemDelegateEPNS_12ItemDelegateE@Base 4:15.08.0
 _ZN7KDGantt12GraphicsView15updateSceneRectEv@Base 4:15.08.0
 _ZN7KDGantt12GraphicsView16setRowControllerEPNS_21AbstractRowControllerE@Base 4:15.08.0
 _ZN7KDGantt12GraphicsView16staticMetaObjectE@Base 4:15.08.0
 _ZN7KDGantt12GraphicsView17setSelectionModelEP19QItemSelectionModel@Base 4:15.08.0
 _ZN7KDGantt12GraphicsView18setConstraintModelEPNS_15ConstraintModelE@Base 4:15.08.0
 _ZN7KDGantt12GraphicsView23setSummaryHandlingModelEP19QAbstractProxyModel@Base 4:15.08.0
 _ZN7KDGantt12GraphicsView26headerContextMenuRequestedERK6QPoint@Base 4:15.08.0
 _ZN7KDGantt12GraphicsView26setHeaderContextMenuPolicyEN2Qt17ContextMenuPolicyE@Base 4:15.08.0
 _ZN7KDGantt12GraphicsView5printEP8QPainterRK6QRectFb@Base 4:15.08.0
 _ZN7KDGantt12GraphicsView5printEP8QPainterddRK6QRectFb@Base 4:15.08.0
 _ZN7KDGantt12GraphicsView5printEP8QPrinterb@Base 4:15.08.0
 _ZN7KDGantt12GraphicsView5printEP8QPrinterddb@Base 4:15.08.0
 _ZN7KDGantt12GraphicsView7Private14slotModelResetEv@Base 4:15.08.0
 _ZN7KDGantt12GraphicsView7Private15slotDataChangedERK11QModelIndexS4_@Base 4:15.08.0
 _ZN7KDGantt12GraphicsView7Private15slotGridChangedEv@Base 4:15.08.0
 _ZN7KDGantt12GraphicsView7Private15slotItemClickedERK11QModelIndex@Base 4:15.08.0
 _ZN7KDGantt12GraphicsView7Private15slotRowsRemovedERK11QModelIndexii@Base 4:15.08.0
 _ZN7KDGantt12GraphicsView7Private16slotRowsInsertedERK11QModelIndexii@Base 4:15.08.0
 _ZN7KDGantt12GraphicsView7Private17slotLayoutChangedEv@Base 4:15.08.0
 _ZN7KDGantt12GraphicsView7Private18slotColumnsRemovedERK11QModelIndexii@Base 4:15.08.0
 _ZN7KDGantt12GraphicsView7Private19slotColumnsInsertedERK11QModelIndexii@Base 4:15.08.0
 _ZN7KDGantt12GraphicsView7Private20updateHeaderGeometryEv@Base 4:15.08.0
 _ZN7KDGantt12GraphicsView7Private21slotItemDoubleClickedERK11QModelIndex@Base 4:15.08.0
 _ZN7KDGantt12GraphicsView7Private24slotRowsAboutToBeRemovedERK11QModelIndexii@Base 4:15.08.0
 _ZN7KDGantt12GraphicsView7Private30slotHeaderContextMenuRequestedERK6QPoint@Base 4:15.08.0
 _ZN7KDGantt12GraphicsView7Private32slotHorizontalScrollValueChangedEi@Base 4:15.08.0
 _ZN7KDGantt12GraphicsView7PrivateC1EPS0_@Base 4:15.08.0
 _ZN7KDGantt12GraphicsView7PrivateC2EPS0_@Base 4:15.08.0
 _ZN7KDGantt12GraphicsView7clickedERK11QModelIndex@Base 4:15.08.0
 _ZN7KDGantt12GraphicsView7enteredERK11QModelIndex@Base 4:15.08.0
 _ZN7KDGantt12GraphicsView7pressedERK11QModelIndex@Base 4:15.08.0
 _ZN7KDGantt12GraphicsView7setGridEPNS_12AbstractGridE@Base 4:15.08.0
 _ZN7KDGantt12GraphicsView8setModelEP18QAbstractItemModel@Base 4:15.08.0
 _ZN7KDGantt12GraphicsView9activatedERK11QModelIndex@Base 4:15.08.0
 _ZN7KDGantt12GraphicsView9updateRowERK11QModelIndex@Base 4:15.08.0
 _ZN7KDGantt12GraphicsViewC1EP7QWidget@Base 4:15.08.0
 _ZN7KDGantt12GraphicsViewC2EP7QWidget@Base 4:15.08.0
 _ZN7KDGantt12GraphicsViewD0Ev@Base 4:15.08.0
 _ZN7KDGantt12GraphicsViewD1Ev@Base 4:15.08.0
 _ZN7KDGantt12GraphicsViewD2Ev@Base 4:15.08.0
 _ZN7KDGantt12ItemDelegate11qt_metacallEN11QMetaObject4CallEiPPv@Base 4:15.08.0
 _ZN7KDGantt12ItemDelegate11qt_metacastEPKc@Base 4:15.08.0
 _ZN7KDGantt12ItemDelegate13setDefaultPenENS_8ItemTypeERK4QPen@Base 4:15.08.0
 _ZN7KDGantt12ItemDelegate14paintGanttItemEP8QPainterRKNS_20StyleOptionGanttItemERK11QModelIndex@Base 4:15.08.0
 _ZN7KDGantt12ItemDelegate15setDefaultBrushENS_8ItemTypeERK6QBrush@Base 4:15.08.0
 _ZN7KDGantt12ItemDelegate16staticMetaObjectE@Base 4:15.08.0
 _ZN7KDGantt12ItemDelegate19paintConstraintItemEP8QPainterRK24QStyleOptionGraphicsItemRK7QPointFS8_RK4QPen@Base 4:15.08.0
 _ZN7KDGantt12ItemDelegate7PrivateC1Ev@Base 4:15.08.0
 _ZN7KDGantt12ItemDelegate7PrivateC2Ev@Base 4:15.08.0
 _ZN7KDGantt12ItemDelegateC1EP7QObject@Base 4:15.08.0
 _ZN7KDGantt12ItemDelegateC2EP7QObject@Base 4:15.08.0
 _ZN7KDGantt12ItemDelegateD0Ev@Base 4:15.08.0
 _ZN7KDGantt12ItemDelegateD1Ev@Base 4:15.08.0
 _ZN7KDGantt12ItemDelegateD2Ev@Base 4:15.08.0
 _ZN7KDGantt15ConstraintModel11qt_metacallEN11QMetaObject4CallEiPPv@Base 4:15.08.0
 _ZN7KDGantt15ConstraintModel11qt_metacastEPKc@Base 4:15.08.0
 _ZN7KDGantt15ConstraintModel13addConstraintERKNS_10ConstraintE@Base 4:15.08.0
 _ZN7KDGantt15ConstraintModel15constraintAddedERKNS_10ConstraintE@Base 4:15.08.0
 _ZN7KDGantt15ConstraintModel16removeConstraintERKNS_10ConstraintE@Base 4:15.08.0
 _ZN7KDGantt15ConstraintModel16staticMetaObjectE@Base 4:15.08.0
 _ZN7KDGantt15ConstraintModel17constraintRemovedERKNS_10ConstraintE@Base 4:15.08.0
 _ZN7KDGantt15ConstraintModel4initEv@Base 4:15.08.0
 _ZN7KDGantt15ConstraintModel5clearEv@Base 4:15.08.0
 _ZN7KDGantt15ConstraintModel7Private20addConstraintToIndexERK11QModelIndexRKNS_10ConstraintE@Base 4:15.08.0
 _ZN7KDGantt15ConstraintModel7Private25removeConstraintFromIndexERK11QModelIndexRKNS_10ConstraintE@Base 4:15.08.0
 _ZN7KDGantt15ConstraintModel7PrivateC1Ev@Base 4:15.08.0
 _ZN7KDGantt15ConstraintModel7PrivateC2Ev@Base 4:15.08.0
 _ZN7KDGantt15ConstraintModel7cleanupEv@Base 4:15.08.0
 _ZN7KDGantt15ConstraintModelC1EP7QObject@Base 4:15.08.0
 _ZN7KDGantt15ConstraintModelC2EP7QObject@Base 4:15.08.0
 _ZN7KDGantt15ConstraintModelD0Ev@Base 4:15.08.0
 _ZN7KDGantt15ConstraintModelD1Ev@Base 4:15.08.0
 _ZN7KDGantt15ConstraintModelD2Ev@Base 4:15.08.0
 _ZN7KDGantt20ForwardingProxyModel11qt_metacallEN11QMetaObject4CallEiPPv@Base 4:15.08.0
 _ZN7KDGantt20ForwardingProxyModel11qt_metacastEPKc@Base 4:15.08.0
 _ZN7KDGantt20ForwardingProxyModel14setSourceModelEP18QAbstractItemModel@Base 4:15.08.0
 _ZN7KDGantt20ForwardingProxyModel16sourceModelResetEv@Base 4:15.08.0
 _ZN7KDGantt20ForwardingProxyModel16staticMetaObjectE@Base 4:15.08.0
 _ZN7KDGantt20ForwardingProxyModel17sourceDataChangedERK11QModelIndexS3_@Base 4:15.08.0
 _ZN7KDGantt20ForwardingProxyModel17sourceRowsRemovedERK11QModelIndexii@Base 4:15.08.0
 _ZN7KDGantt20ForwardingProxyModel18sourceRowsInsertedERK11QModelIndexii@Base 4:15.08.0
 _ZN7KDGantt20ForwardingProxyModel19sourceLayoutChangedEv@Base 4:15.08.0
 _ZN7KDGantt20ForwardingProxyModel20sourceColumnsRemovedERK11QModelIndexii@Base 4:15.08.0
 _ZN7KDGantt20ForwardingProxyModel21sourceColumnsInsertedERK11QModelIndexii@Base 4:15.08.0
 _ZN7KDGantt20ForwardingProxyModel25sourceModelAboutToBeResetEv@Base 4:15.08.0
 _ZN7KDGantt20ForwardingProxyModel26sourceRowsAboutToBeRemovedERK11QModelIndexii@Base 4:15.08.0
 _ZN7KDGantt20ForwardingProxyModel27sourceRowsAboutToBeInsertedERK11QModelIndexii@Base 4:15.08.0
 _ZN7KDGantt20ForwardingProxyModel28sourceLayoutAboutToBeChangedEv@Base 4:15.08.0
 _ZN7KDGantt20ForwardingProxyModel29sourceColumnsAboutToBeRemovedERK11QModelIndexii@Base 4:15.08.0
 _ZN7KDGantt20ForwardingProxyModel30sourceColumnsAboutToBeInsertedERK11QModelIndexii@Base 4:15.08.0
 _ZN7KDGantt20ForwardingProxyModel7setDataERK11QModelIndexRK8QVarianti@Base 4:15.08.0
 _ZN7KDGantt20ForwardingProxyModelC1EP7QObject@Base 4:15.08.0
 _ZN7KDGantt20ForwardingProxyModelC2EP7QObject@Base 4:15.08.0
 _ZN7KDGantt20ForwardingProxyModelD0Ev@Base 4:15.08.0
 _ZN7KDGantt20ForwardingProxyModelD1Ev@Base 4:15.08.0
 _ZN7KDGantt20ForwardingProxyModelD2Ev@Base 4:15.08.0
 _ZN7KDGantt20StyleOptionGanttItemC1ERKS0_@Base 4:15.08.0
 _ZN7KDGantt20StyleOptionGanttItemC1Ev@Base 4:15.08.0
 _ZN7KDGantt20StyleOptionGanttItemC2ERKS0_@Base 4:15.08.0
 _ZN7KDGantt20StyleOptionGanttItemC2Ev@Base 4:15.08.0
 _ZN7KDGantt20StyleOptionGanttItemaSERKS0_@Base 4:15.08.0
 _ZN7KDGantt21AbstractRowControllerC1Ev@Base 4:15.08.0
 _ZN7KDGantt21AbstractRowControllerC2Ev@Base 4:15.08.0
 _ZN7KDGantt21AbstractRowControllerD0Ev@Base 4:15.08.0
 _ZN7KDGantt21AbstractRowControllerD1Ev@Base 4:15.08.0
 _ZN7KDGantt21AbstractRowControllerD2Ev@Base 4:15.08.0
 _ZN7KDGantt21ListViewRowControllerC1EP9QListViewP19QAbstractProxyModel@Base 4:15.08.0
 _ZN7KDGantt21ListViewRowControllerC2EP9QListViewP19QAbstractProxyModel@Base 4:15.08.0
 _ZN7KDGantt21ListViewRowControllerD0Ev@Base 4:15.08.0
 _ZN7KDGantt21ListViewRowControllerD1Ev@Base 4:15.08.0
 _ZN7KDGantt21ListViewRowControllerD2Ev@Base 4:15.08.0
 _ZN7KDGantt21TreeViewRowControllerC1EP9QTreeViewP19QAbstractProxyModel@Base 4:15.08.0
 _ZN7KDGantt21TreeViewRowControllerC2EP9QTreeViewP19QAbstractProxyModel@Base 4:15.08.0
 _ZN7KDGantt21TreeViewRowControllerD0Ev@Base 4:15.08.0
 _ZN7KDGantt21TreeViewRowControllerD1Ev@Base 4:15.08.0
 _ZN7KDGantt21TreeViewRowControllerD2Ev@Base 4:15.08.0
 _ZN7KDGantt22DateTimeScaleFormatterC1ENS0_5RangeERK7QString6QFlagsIN2Qt13AlignmentFlagEE@Base 4:15.08.0
 _ZN7KDGantt22DateTimeScaleFormatterC1ENS0_5RangeERK7QStringS4_6QFlagsIN2Qt13AlignmentFlagEE@Base 4:15.08.0
 _ZN7KDGantt22DateTimeScaleFormatterC1ERKS0_@Base 4:15.08.0
 _ZN7KDGantt22DateTimeScaleFormatterC2ENS0_5RangeERK7QString6QFlagsIN2Qt13AlignmentFlagEE@Base 4:15.08.0
 _ZN7KDGantt22DateTimeScaleFormatterC2ENS0_5RangeERK7QStringS4_6QFlagsIN2Qt13AlignmentFlagEE@Base 4:15.08.0
 _ZN7KDGantt22DateTimeScaleFormatterC2ERKS0_@Base 4:15.08.0
 _ZN7KDGantt22DateTimeScaleFormatterD0Ev@Base 4:15.08.0
 _ZN7KDGantt22DateTimeScaleFormatterD1Ev@Base 4:15.08.0
 _ZN7KDGantt22DateTimeScaleFormatterD2Ev@Base 4:15.08.0
 _ZN7KDGantt22DateTimeScaleFormatteraSERKS0_@Base 4:15.08.0
 _ZN7KDGantt25SummaryHandlingProxyModel11qt_metacallEN11QMetaObject4CallEiPPv@Base 4:15.08.0
 _ZN7KDGantt25SummaryHandlingProxyModel11qt_metacastEPKc@Base 4:15.08.0
 _ZN7KDGantt25SummaryHandlingProxyModel14setSourceModelEP18QAbstractItemModel@Base 4:15.08.0
 _ZN7KDGantt25SummaryHandlingProxyModel16sourceModelResetEv@Base 4:15.08.0
 _ZN7KDGantt25SummaryHandlingProxyModel16staticMetaObjectE@Base 4:15.08.0
 _ZN7KDGantt25SummaryHandlingProxyModel17sourceDataChangedERK11QModelIndexS3_@Base 4:15.08.0
 _ZN7KDGantt25SummaryHandlingProxyModel19sourceLayoutChangedEv@Base 4:15.08.0
 _ZN7KDGantt25SummaryHandlingProxyModel26sourceRowsAboutToBeRemovedERK11QModelIndexii@Base 4:15.08.0
 _ZN7KDGantt25SummaryHandlingProxyModel27sourceRowsAboutToBeInsertedERK11QModelIndexii@Base 4:15.08.0
 _ZN7KDGantt25SummaryHandlingProxyModel29sourceColumnsAboutToBeRemovedERK11QModelIndexii@Base 4:15.08.0
 _ZN7KDGantt25SummaryHandlingProxyModel30sourceColumnsAboutToBeInsertedERK11QModelIndexii@Base 4:15.08.0
 _ZN7KDGantt25SummaryHandlingProxyModel4initEv@Base 4:15.08.0
 _ZN7KDGantt25SummaryHandlingProxyModel7setDataERK11QModelIndexRK8QVarianti@Base 4:15.08.0
 _ZN7KDGantt25SummaryHandlingProxyModelC1EP7QObject@Base 4:15.08.0
 _ZN7KDGantt25SummaryHandlingProxyModelC2EP7QObject@Base 4:15.08.0
 _ZN7KDGantt25SummaryHandlingProxyModelD0Ev@Base 4:15.08.0
 _ZN7KDGantt25SummaryHandlingProxyModelD1Ev@Base 4:15.08.0
 _ZN7KDGantt25SummaryHandlingProxyModelD2Ev@Base 4:15.08.0
 _ZN7KDGantt4View11qt_metacallEN11QMetaObject4CallEiPPv@Base 4:15.08.0
 _ZN7KDGantt4View11qt_metacastEPKc@Base 4:15.08.0
 _ZN7KDGantt4View11resizeEventEP12QResizeEvent@Base 4:15.08.0
 _ZN7KDGantt4View11setLeftViewEP17QAbstractItemView@Base 4:15.08.0
 _ZN7KDGantt4View12graphicsViewEv@Base 4:15.08.0
 _ZN7KDGantt4View12setRootIndexERK11QModelIndex@Base 4:15.08.0
 _ZN7KDGantt4View13rowControllerEv@Base 4:15.08.0
 _ZN7KDGantt4View15ganttProxyModelEv@Base 4:15.08.0
 _ZN7KDGantt4View15setItemDelegateEPNS_12ItemDelegateE@Base 4:15.08.0
 _ZN7KDGantt4View16setRowControllerEPNS_21AbstractRowControllerE@Base 4:15.08.0
 _ZN7KDGantt4View16staticMetaObjectE@Base 4:15.08.0
 _ZN7KDGantt4View17setSelectionModelEP19QItemSelectionModel@Base 4:15.08.0
 _ZN7KDGantt4View18setConstraintModelEPNS_15ConstraintModelE@Base 4:15.08.0
 _ZN7KDGantt4View5printEP8QPainterRK6QRectFb@Base 4:15.08.0
 _ZN7KDGantt4View5printEP8QPainterddRK6QRectFb@Base 4:15.08.0
 _ZN7KDGantt4View5printEP8QPrinterb@Base 4:15.08.0
 _ZN7KDGantt4View5printEP8QPrinterddb@Base 4:15.08.0
 _ZN7KDGantt4View7Private11updateSceneEv@Base 4:15.08.0
 _ZN7KDGantt4View7Private12slotExpandedERK11QModelIndex@Base 4:15.08.0
 _ZN7KDGantt4View7Private13slotCollapsedERK11QModelIndex@Base 4:15.08.0
 _ZN7KDGantt4View7Private30slotVerticalScrollValueChangedEi@Base 4:15.08.0
 _ZN7KDGantt4View7Private31slotGfxViewVerticalRangeChangedEii@Base 4:15.08.0
 _ZN7KDGantt4View7Private34slotLeftWidgetVerticalRangeChangedEii@Base 4:15.08.0
 _ZN7KDGantt4View7Private4initEv@Base 4:15.08.0
 _ZN7KDGantt4View7PrivateC1EPS0_@Base 4:15.08.0
 _ZN7KDGantt4View7PrivateC2EPS0_@Base 4:15.08.0
 _ZN7KDGantt4View7PrivateD0Ev@Base 4:15.08.0
 _ZN7KDGantt4View7PrivateD1Ev@Base 4:15.08.0
 _ZN7KDGantt4View7PrivateD2Ev@Base 4:15.08.0
 _ZN7KDGantt4View7setGridEPNS_12AbstractGridE@Base 4:15.08.0
 _ZN7KDGantt4View8leftViewEv@Base 4:15.08.0
 _ZN7KDGantt4View8setModelEP18QAbstractItemModel@Base 4:15.08.0
 _ZN7KDGantt4View8splitterEv@Base 4:15.08.0
 _ZN7KDGantt4ViewC1EP7QWidget@Base 4:15.08.0
 _ZN7KDGantt4ViewC2EP7QWidget@Base 4:15.08.0
 _ZN7KDGantt4ViewD0Ev@Base 4:15.08.0
 _ZN7KDGantt4ViewD1Ev@Base 4:15.08.0
 _ZN7KDGantt4ViewD2Ev@Base 4:15.08.0
 _ZN7KDGantt6Legend10paintEventEP11QPaintEvent@Base 4:15.08.0
 _ZN7KDGantt6Legend11qt_metacallEN11QMetaObject4CallEiPPv@Base 4:15.08.0
 _ZN7KDGantt6Legend11qt_metacastEPKc@Base 4:15.08.0
 _ZN7KDGantt6Legend16modelDataChangedEv@Base 4:15.08.0
 _ZN7KDGantt6Legend16staticMetaObjectE@Base 4:15.08.0
 _ZN7KDGantt6Legend8setModelEP18QAbstractItemModel@Base 4:15.08.0
 _ZN7KDGantt6LegendC1EP7QWidget@Base 4:15.08.0
 _ZN7KDGantt6LegendC2EP7QWidget@Base 4:15.08.0
 _ZN7KDGantt6LegendD0Ev@Base 4:15.08.0
 _ZN7KDGantt6LegendD1Ev@Base 4:15.08.0
 _ZN7KDGantt6LegendD2Ev@Base 4:15.08.0
 _ZNK7KDGantt10Constraint10startIndexEv@Base 4:15.08.0
 _ZNK7KDGantt10Constraint4dataEi@Base 4:15.08.0
 _ZNK7KDGantt10Constraint4hashEv@Base 4:15.08.0
 _ZNK7KDGantt10Constraint4typeEv@Base 4:15.08.0
 _ZNK7KDGantt10Constraint5debugE6QDebug@Base 4:15.08.0
 _ZNK7KDGantt10Constraint8endIndexEv@Base 4:15.08.0
 _ZNK7KDGantt10ConstrainteqERKS0_@Base 4:15.08.0
 _ZNK7KDGantt10ProxyModel10metaObjectEv@Base 4:15.08.0
 _ZNK7KDGantt10ProxyModel11columnCountERK11QModelIndex@Base 4:15.08.0
 _ZNK7KDGantt10ProxyModel11mapToSourceERK11QModelIndex@Base 4:15.08.0
 _ZNK7KDGantt10ProxyModel13mapFromSourceERK11QModelIndex@Base 4:15.08.0
 _ZNK7KDGantt10ProxyModel4dataERK11QModelIndexi@Base 4:15.08.0
 _ZNK7KDGantt10ProxyModel4roleEi@Base 4:15.08.0
 _ZNK7KDGantt10ProxyModel6columnEi@Base 4:15.08.0
 _ZNK7KDGantt10ProxyModel8rowCountERK11QModelIndex@Base 4:15.08.0
 _ZNK7KDGantt12AbstractGrid10metaObjectEv@Base 4:15.08.0
 _ZNK7KDGantt12AbstractGrid21isSatisfiedConstraintERKNS_10ConstraintE@Base 4:15.08.0
 _ZNK7KDGantt12AbstractGrid5modelEv@Base 4:15.08.0
 _ZNK7KDGantt12AbstractGrid9rootIndexEv@Base 4:15.08.0
 _ZNK7KDGantt12DateTimeGrid10mapToChartERK11QModelIndex@Base 4:15.08.0
 _ZNK7KDGantt12DateTimeGrid10metaObjectEv@Base 4:15.08.0
 _ZNK7KDGantt12DateTimeGrid12mapFromChartERKNS_4SpanERK11QModelIndexRK5QListINS_10ConstraintEE@Base 4:15.08.0
 _ZNK7KDGantt12DateTimeGrid13mapToDateTimeEd@Base 4:15.08.0
 _ZNK7KDGantt12DateTimeGrid13rowSeparatorsEv@Base 4:15.08.0
 _ZNK7KDGantt12DateTimeGrid13startDateTimeEv@Base 4:15.08.0
 _ZNK7KDGantt12DateTimeGrid15mapFromDateTimeERK9QDateTime@Base 4:15.08.0
 _ZNK7KDGantt12DateTimeGrid18noInformationBrushEv@Base 4:15.08.0
 _ZNK7KDGantt12DateTimeGrid21userDefinedLowerScaleEv@Base 4:15.08.0
 _ZNK7KDGantt12DateTimeGrid21userDefinedUpperScaleEv@Base 4:15.08.0
 _ZNK7KDGantt12DateTimeGrid5scaleEv@Base 4:15.08.0
 _ZNK7KDGantt12DateTimeGrid7Private16chartXtoDateTimeEd@Base 4:15.08.0
 _ZNK7KDGantt12DateTimeGrid7Private16dateTimeToChartXERK9QDateTime@Base 4:15.08.0
 _ZNK7KDGantt12DateTimeGrid7Private9tabHeightERK7QStringP7QWidget@Base 4:15.08.0
 _ZNK7KDGantt12DateTimeGrid8dayWidthEv@Base 4:15.08.0
 _ZNK7KDGantt12DateTimeGrid8freeDaysEv@Base 4:15.08.0
 _ZNK7KDGantt12DateTimeGrid9weekStartEv@Base 4:15.08.0
 _ZNK7KDGantt12GraphicsView10createItemENS_8ItemTypeE@Base 4:15.08.0
 _ZNK7KDGantt12GraphicsView10isReadOnlyEv@Base 4:15.08.0
 _ZNK7KDGantt12GraphicsView10metaObjectEv@Base 4:15.08.0
 _ZNK7KDGantt12GraphicsView12itemDelegateEv@Base 4:15.08.0
 _ZNK7KDGantt12GraphicsView13rowControllerEv@Base 4:15.08.0
 _ZNK7KDGantt12GraphicsView14selectionModelEv@Base 4:15.08.0
 _ZNK7KDGantt12GraphicsView15constraintModelEv@Base 4:15.08.0
 _ZNK7KDGantt12GraphicsView20summaryHandlingModelEv@Base 4:15.08.0
 _ZNK7KDGantt12GraphicsView23headerContextMenuPolicyEv@Base 4:15.08.0
 _ZNK7KDGantt12GraphicsView4gridEv@Base 4:15.08.0
 _ZNK7KDGantt12GraphicsView5modelEv@Base 4:15.08.0
 _ZNK7KDGantt12GraphicsView7indexAtERK6QPoint@Base 4:15.08.0
 _ZNK7KDGantt12GraphicsView9rootIndexEv@Base 4:15.08.0
 _ZNK7KDGantt12ItemDelegate10defaultPenENS_8ItemTypeE@Base 4:15.08.0
 _ZNK7KDGantt12ItemDelegate10metaObjectEv@Base 4:15.08.0
 _ZNK7KDGantt12ItemDelegate12defaultBrushENS_8ItemTypeE@Base 4:15.08.0
 _ZNK7KDGantt12ItemDelegate16itemBoundingSpanERKNS_20StyleOptionGanttItemERK11QModelIndex@Base 4:15.08.0
 _ZNK7KDGantt12ItemDelegate19interactionStateForERK7QPointFRKNS_20StyleOptionGanttItemERK11QModelIndex@Base 4:15.08.0
 _ZNK7KDGantt12ItemDelegate22constraintBoundingRectERK7QPointFS3_@Base 4:15.08.0
 _ZNK7KDGantt15ConstraintModel10metaObjectEv@Base 4:15.08.0
 _ZNK7KDGantt15ConstraintModel11constraintsEv@Base 4:15.08.0
 _ZNK7KDGantt15ConstraintModel13hasConstraintERKNS_10ConstraintE@Base 4:15.08.0
 _ZNK7KDGantt15ConstraintModel19constraintsForIndexERK11QModelIndex@Base 4:15.08.0
 _ZNK7KDGantt20ForwardingProxyModel10metaObjectEv@Base 4:15.08.0
 _ZNK7KDGantt20ForwardingProxyModel11columnCountERK11QModelIndex@Base 4:15.08.0
 _ZNK7KDGantt20ForwardingProxyModel11mapToSourceERK11QModelIndex@Base 4:15.08.0
 _ZNK7KDGantt20ForwardingProxyModel13mapFromSourceERK11QModelIndex@Base 4:15.08.0
 _ZNK7KDGantt20ForwardingProxyModel5indexEiiRK11QModelIndex@Base 4:15.08.0
 _ZNK7KDGantt20ForwardingProxyModel6parentERK11QModelIndex@Base 4:15.08.0
 _ZNK7KDGantt20ForwardingProxyModel8rowCountERK11QModelIndex@Base 4:15.08.0
 _ZNK7KDGantt21ListViewRowController10indexAboveERK11QModelIndex@Base 4:15.08.0
 _ZNK7KDGantt21ListViewRowController10indexBelowERK11QModelIndex@Base 4:15.08.0
 _ZNK7KDGantt21ListViewRowController11rowGeometryERK11QModelIndex@Base 4:15.08.0
 _ZNK7KDGantt21ListViewRowController11totalHeightEv@Base 4:15.08.0
 _ZNK7KDGantt21ListViewRowController12headerHeightEv@Base 4:15.08.0
 _ZNK7KDGantt21ListViewRowController12isRowVisibleERK11QModelIndex@Base 4:15.08.0
 _ZNK7KDGantt21ListViewRowController13isRowExpandedERK11QModelIndex@Base 4:15.08.0
 _ZNK7KDGantt21ListViewRowController17maximumItemHeightEv@Base 4:15.08.0
 _ZNK7KDGantt21ListViewRowController7indexAtEi@Base 4:15.08.0
 _ZNK7KDGantt21TreeViewRowController10indexAboveERK11QModelIndex@Base 4:15.08.0
 _ZNK7KDGantt21TreeViewRowController10indexBelowERK11QModelIndex@Base 4:15.08.0
 _ZNK7KDGantt21TreeViewRowController11rowGeometryERK11QModelIndex@Base 4:15.08.0
 _ZNK7KDGantt21TreeViewRowController11totalHeightEv@Base 4:15.08.0
 _ZNK7KDGantt21TreeViewRowController12headerHeightEv@Base 4:15.08.0
 _ZNK7KDGantt21TreeViewRowController12isRowVisibleERK11QModelIndex@Base 4:15.08.0
 _ZNK7KDGantt21TreeViewRowController13isRowExpandedERK11QModelIndex@Base 4:15.08.0
 _ZNK7KDGantt21TreeViewRowController17maximumItemHeightEv@Base 4:15.08.0
 _ZNK7KDGantt21TreeViewRowController7indexAtEi@Base 4:15.08.0
 _ZNK7KDGantt22DateTimeScaleFormatter14nextRangeBeginERK9QDateTime@Base 4:15.08.0
 _ZNK7KDGantt22DateTimeScaleFormatter17currentRangeBeginERK9QDateTime@Base 4:15.08.0
 _ZNK7KDGantt22DateTimeScaleFormatter4textERK9QDateTime@Base 4:15.08.0
 _ZNK7KDGantt22DateTimeScaleFormatter5rangeEv@Base 4:15.08.0
 _ZNK7KDGantt22DateTimeScaleFormatter6formatERK9QDateTime@Base 4:15.08.0
 _ZNK7KDGantt22DateTimeScaleFormatter6formatEv@Base 4:15.08.0
 _ZNK7KDGantt22DateTimeScaleFormatter9alignmentEv@Base 4:15.08.0
 _ZNK7KDGantt25SummaryHandlingProxyModel10metaObjectEv@Base 4:15.08.0
 _ZNK7KDGantt25SummaryHandlingProxyModel4dataERK11QModelIndexi@Base 4:15.08.0
 _ZNK7KDGantt25SummaryHandlingProxyModel5flagsERK11QModelIndex@Base 4:15.08.0
 _ZNK7KDGantt25SummaryHandlingProxyModel7Private10clearCacheEv@Base 4:15.08.0
 _ZNK7KDGantt25SummaryHandlingProxyModel7Private11cacheLookupERK11QModelIndexP5QPairI9QDateTimeS6_E@Base 4:15.08.0
 _ZNK7KDGantt25SummaryHandlingProxyModel7Private13insertInCacheEPKS0_RK11QModelIndex@Base 4:15.08.0
 _ZNK7KDGantt25SummaryHandlingProxyModel7Private15removeFromCacheERK11QModelIndex@Base 4:15.08.0
 _ZNK7KDGantt4View10metaObjectEv@Base 4:15.08.0
 _ZNK7KDGantt4View12graphicsViewEv@Base 4:15.08.0
 _ZNK7KDGantt4View12itemDelegateEv@Base 4:15.08.0
 _ZNK7KDGantt4View13rowControllerEv@Base 4:15.08.0
 _ZNK7KDGantt4View14selectionModelEv@Base 4:15.08.0
 _ZNK7KDGantt4View15constraintModelEv@Base 4:15.08.0
 _ZNK7KDGantt4View15ganttProxyModelEv@Base 4:15.08.0
 _ZNK7KDGantt4View4gridEv@Base 4:15.08.0
 _ZNK7KDGantt4View5modelEv@Base 4:15.08.0
 _ZNK7KDGantt4View7indexAtERK6QPoint@Base 4:15.08.0
 _ZNK7KDGantt4View8leftViewEv@Base 4:15.08.0
 _ZNK7KDGantt4View8splitterEv@Base 4:15.08.0
 _ZNK7KDGantt4View9rootIndexEv@Base 4:15.08.0
 _ZNK7KDGantt6Legend10metaObjectEv@Base 4:15.08.0
 _ZNK7KDGantt6Legend10visualRectERK11QModelIndex@Base 4:15.08.0
 _ZNK7KDGantt6Legend11measureItemERK11QModelIndexb@Base 4:15.08.0
 _ZNK7KDGantt6Legend14getStyleOptionERK11QModelIndex@Base 4:15.08.0
 _ZNK7KDGantt6Legend15minimumSizeHintEv@Base 4:15.08.0
 _ZNK7KDGantt6Legend7indexAtERK6QPoint@Base 4:15.08.0
 _ZNK7KDGantt6Legend8drawItemEP8QPainterRK11QModelIndexRK6QPoint@Base 4:15.08.0
 _ZNK7KDGantt6Legend8sizeHintEv@Base 4:15.08.0
 _ZTIN7KDGantt10ProxyModelE@Base 4:15.08.0
 _ZTIN7KDGantt12AbstractGridE@Base 4:15.08.0
 _ZTIN7KDGantt12DateTimeGridE@Base 4:15.08.0
 _ZTIN7KDGantt12GraphicsViewE@Base 4:15.08.0
 _ZTIN7KDGantt12ItemDelegateE@Base 4:15.08.0
 _ZTIN7KDGantt15ConstraintModelE@Base 4:15.08.0
 _ZTIN7KDGantt20ForwardingProxyModelE@Base 4:15.08.0
 _ZTIN7KDGantt21AbstractRowControllerE@Base 4:15.08.0
 _ZTIN7KDGantt21ListViewRowControllerE@Base 4:15.08.0
 _ZTIN7KDGantt21TreeViewRowControllerE@Base 4:15.08.0
 _ZTIN7KDGantt22DateTimeScaleFormatterE@Base 4:15.08.0
 _ZTIN7KDGantt25SummaryHandlingProxyModelE@Base 4:15.08.0
 _ZTIN7KDGantt4View7PrivateE@Base 4:15.08.0
 _ZTIN7KDGantt4ViewE@Base 4:15.08.0
 _ZTIN7KDGantt6LegendE@Base 4:15.08.0
 _ZTSN7KDGantt10ProxyModelE@Base 4:15.08.0
 _ZTSN7KDGantt12AbstractGridE@Base 4:15.08.0
 _ZTSN7KDGantt12DateTimeGridE@Base 4:15.08.0
 _ZTSN7KDGantt12GraphicsViewE@Base 4:15.08.0
 _ZTSN7KDGantt12ItemDelegateE@Base 4:15.08.0
 _ZTSN7KDGantt15ConstraintModelE@Base 4:15.08.0
 _ZTSN7KDGantt20ForwardingProxyModelE@Base 4:15.08.0
 _ZTSN7KDGantt21AbstractRowControllerE@Base 4:15.08.0
 _ZTSN7KDGantt21ListViewRowControllerE@Base 4:15.08.0
 _ZTSN7KDGantt21TreeViewRowControllerE@Base 4:15.08.0
 _ZTSN7KDGantt22DateTimeScaleFormatterE@Base 4:15.08.0
 _ZTSN7KDGantt25SummaryHandlingProxyModelE@Base 4:15.08.0
 _ZTSN7KDGantt4View7PrivateE@Base 4:15.08.0
 _ZTSN7KDGantt4ViewE@Base 4:15.08.0
 _ZTSN7KDGantt6LegendE@Base 4:15.08.0
 _ZTVN7KDGantt10ProxyModelE@Base 4:15.08.0
 _ZTVN7KDGantt12AbstractGridE@Base 4:15.08.0
 _ZTVN7KDGantt12DateTimeGridE@Base 4:15.08.0
 _ZTVN7KDGantt12GraphicsViewE@Base 4:15.08.0
 _ZTVN7KDGantt12ItemDelegateE@Base 4:15.08.0
 _ZTVN7KDGantt15ConstraintModelE@Base 4:15.08.0
 _ZTVN7KDGantt20ForwardingProxyModelE@Base 4:15.08.0
 _ZTVN7KDGantt21AbstractRowControllerE@Base 4:15.08.0
 _ZTVN7KDGantt21ListViewRowControllerE@Base 4:15.08.0
 _ZTVN7KDGantt21TreeViewRowControllerE@Base 4:15.08.0
 _ZTVN7KDGantt22DateTimeScaleFormatterE@Base 4:15.08.0
 _ZTVN7KDGantt25SummaryHandlingProxyModelE@Base 4:15.08.0
 _ZTVN7KDGantt4View7PrivateE@Base 4:15.08.0
 _ZTVN7KDGantt4ViewE@Base 4:15.08.0
 _ZTVN7KDGantt6LegendE@Base 4:15.08.0
 _Zls6QDebugN7KDGantt12ItemDataRoleE@Base 4:15.08.0
 _Zls6QDebugN7KDGantt22DateTimeScaleFormatter5RangeE@Base 4:15.08.0
 _Zls6QDebugN7KDGantt8ItemTypeE@Base 4:15.08.0
 _Zls6QDebugRKN7KDGantt12DateTimeSpanE@Base 4:15.08.0
 _Zls6QDebugRKN7KDGantt4SpanE@Base 4:15.08.0
 (c++)"non-virtual thunk to KDGantt::GraphicsView::~GraphicsView()@Base" 4:15.08.0
 (c++)"non-virtual thunk to KDGantt::Legend::~Legend()@Base" 4:15.08.0
 (c++)"non-virtual thunk to KDGantt::View::~View()@Base" 4:15.08.0
