# SymbolsHelper-Confirmed: 4:15.08.0 amd64
libkleo.so.5 libkleo5 #MINVER#
 _ZN16KDHorizontalLine10indentHintEv@Base 4:15.08.0
 _ZN16KDHorizontalLine10paintEventEP11QPaintEvent@Base 4:15.08.0
 _ZN16KDHorizontalLine11qt_metacallEN11QMetaObject4CallEiPPv@Base 4:15.08.0
 _ZN16KDHorizontalLine11qt_metacastEPKc@Base 4:15.08.0
 _ZN16KDHorizontalLine13setFrameStyleEi@Base 4:15.08.0
 _ZN16KDHorizontalLine14calculateFrameEv@Base 4:15.08.0
 _ZN16KDHorizontalLine16staticMetaObjectE@Base 4:15.08.0
 _ZN16KDHorizontalLine8setTitleERK7QString@Base 4:15.08.0
 _ZN16KDHorizontalLineC1EP7QWidgetPKc6QFlagsIN2Qt10WindowTypeEE@Base 4:15.08.0
 _ZN16KDHorizontalLineC1ERK7QStringP7QWidgetPKc6QFlagsIN2Qt10WindowTypeEE@Base 4:15.08.0
 _ZN16KDHorizontalLineC2EP7QWidgetPKc6QFlagsIN2Qt10WindowTypeEE@Base 4:15.08.0
 _ZN16KDHorizontalLineC2ERK7QStringP7QWidgetPKc6QFlagsIN2Qt10WindowTypeEE@Base 4:15.08.0
 _ZN16KDHorizontalLineD0Ev@Base 4:15.08.0
 _ZN16KDHorizontalLineD1Ev@Base 4:15.08.0
 _ZN16KDHorizontalLineD2Ev@Base 4:15.08.0
 _ZN18QGpgMECryptoConfig10runGpgConfEb@Base 4:15.08.0
 _ZN18QGpgMECryptoConfig11gpgConfPathEv@Base 4:15.08.0
 _ZN18QGpgMECryptoConfig11qt_metacallEN11QMetaObject4CallEiPPv@Base 4:15.08.0
 _ZN18QGpgMECryptoConfig11qt_metacastEPKc@Base 4:15.08.0
 _ZN18QGpgMECryptoConfig16staticMetaObjectE@Base 4:15.08.0
 _ZN18QGpgMECryptoConfig17slotCollectStdOutEv@Base 4:15.08.0
 _ZN18QGpgMECryptoConfig4syncEb@Base 4:15.08.0
 _ZN18QGpgMECryptoConfig5clearEv@Base 4:15.08.0
 _ZN18QGpgMECryptoConfigC1Ev@Base 4:15.08.0
 _ZN18QGpgMECryptoConfigC2Ev@Base 4:15.08.0
 _ZN18QGpgMECryptoConfigD0Ev@Base 4:15.08.0
 _ZN18QGpgMECryptoConfigD1Ev@Base 4:15.08.0
 _ZN18QGpgMECryptoConfigD2Ev@Base 4:15.08.0
 _ZN21QGpgMENewCryptoConfig19reloadConfigurationEb@Base 4:15.08.0
 _ZN21QGpgMENewCryptoConfig4syncEb@Base 4:15.08.0
 _ZN21QGpgMENewCryptoConfig5clearEv@Base 4:15.08.0
 _ZN21QGpgMENewCryptoConfigC1Ev@Base 4:15.08.0
 _ZN21QGpgMENewCryptoConfigC2Ev@Base 4:15.08.0
 _ZN21QGpgMENewCryptoConfigD0Ev@Base 4:15.08.0
 _ZN21QGpgMENewCryptoConfigD1Ev@Base 4:15.08.0
 _ZN21QGpgMENewCryptoConfigD2Ev@Base 4:15.08.0
 _ZN4Kleo10DecryptJob11qt_metacallEN11QMetaObject4CallEiPPv@Base 4:15.08.0
 _ZN4Kleo10DecryptJob11qt_metacastEPKc@Base 4:15.08.0
 _ZN4Kleo10DecryptJob16staticMetaObjectE@Base 4:15.08.0
 _ZN4Kleo10DecryptJob6resultERKN5GpgME16DecryptionResultERK10QByteArrayRK7QStringRKNS1_5ErrorE@Base 4:15.08.0
 _ZN4Kleo10DecryptJobC1EP7QObject@Base 4:15.08.0
 _ZN4Kleo10DecryptJobC2EP7QObject@Base 4:15.08.0
 _ZN4Kleo10DecryptJobD0Ev@Base 4:15.08.0
 _ZN4Kleo10DecryptJobD1Ev@Base 4:15.08.0
 _ZN4Kleo10DecryptJobD2Ev@Base 4:15.08.0
 _ZN4Kleo10EncryptJob11qt_metacallEN11QMetaObject4CallEiPPv@Base 4:15.08.0
 _ZN4Kleo10EncryptJob11qt_metacastEPKc@Base 4:15.08.0
 _ZN4Kleo10EncryptJob16staticMetaObjectE@Base 4:15.08.0
 _ZN4Kleo10EncryptJob6resultERKN5GpgME16EncryptionResultERK10QByteArrayRK7QStringRKNS1_5ErrorE@Base 4:15.08.0
 _ZN4Kleo10EncryptJobC1EP7QObject@Base 4:15.08.0
 _ZN4Kleo10EncryptJobC2EP7QObject@Base 4:15.08.0
 _ZN4Kleo10EncryptJobD0Ev@Base 4:15.08.0
 _ZN4Kleo10EncryptJobD1Ev@Base 4:15.08.0
 _ZN4Kleo10EncryptJobD2Ev@Base 4:15.08.0
 _ZN4Kleo10MessageBox11informationEP7QWidgetRKN5GpgME13SigningResultEPKNS_3JobE6QFlagsIN11KMessageBox6OptionEE@Base 4:15.08.0
 _ZN4Kleo10MessageBox11informationEP7QWidgetRKN5GpgME13SigningResultEPKNS_3JobERK7QString6QFlagsIN11KMessageBox6OptionEE@Base 4:15.08.0
 _ZN4Kleo10MessageBox11informationEP7QWidgetRKN5GpgME13SigningResultERKNS3_16EncryptionResultEPKNS_3JobE6QFlagsIN11KMessageBox6OptionEE@Base 4:15.08.0
 _ZN4Kleo10MessageBox11informationEP7QWidgetRKN5GpgME13SigningResultERKNS3_16EncryptionResultEPKNS_3JobERK7QString6QFlagsIN11KMessageBox6OptionEE@Base 4:15.08.0
 _ZN4Kleo10MessageBox11informationEP7QWidgetRKN5GpgME16EncryptionResultEPKNS_3JobE6QFlagsIN11KMessageBox6OptionEE@Base 4:15.08.0
 _ZN4Kleo10MessageBox11informationEP7QWidgetRKN5GpgME16EncryptionResultEPKNS_3JobERK7QString6QFlagsIN11KMessageBox6OptionEE@Base 4:15.08.0
 _ZN4Kleo10MessageBox18showAuditLogButtonEPKNS_3JobE@Base 4:15.08.0
 _ZN4Kleo10MessageBox4makeEP7QWidgetN11QMessageBox4IconERK7QStringPKNS_3JobES7_6QFlagsIN11KMessageBox6OptionEE@Base 4:15.08.0
 _ZN4Kleo10MessageBox5errorEP7QWidgetRKN5GpgME13SigningResultEPKNS_3JobE6QFlagsIN11KMessageBox6OptionEE@Base 4:15.08.0
 _ZN4Kleo10MessageBox5errorEP7QWidgetRKN5GpgME13SigningResultEPKNS_3JobERK7QString6QFlagsIN11KMessageBox6OptionEE@Base 4:15.08.0
 _ZN4Kleo10MessageBox5errorEP7QWidgetRKN5GpgME13SigningResultERKNS3_16EncryptionResultEPKNS_3JobE6QFlagsIN11KMessageBox6OptionEE@Base 4:15.08.0
 _ZN4Kleo10MessageBox5errorEP7QWidgetRKN5GpgME13SigningResultERKNS3_16EncryptionResultEPKNS_3JobERK7QString6QFlagsIN11KMessageBox6OptionEE@Base 4:15.08.0
 _ZN4Kleo10MessageBox5errorEP7QWidgetRKN5GpgME16EncryptionResultEPKNS_3JobE6QFlagsIN11KMessageBox6OptionEE@Base 4:15.08.0
 _ZN4Kleo10MessageBox5errorEP7QWidgetRKN5GpgME16EncryptionResultEPKNS_3JobERK7QString6QFlagsIN11KMessageBox6OptionEE@Base 4:15.08.0
 _ZN4Kleo10MessageBox8auditLogEP7QWidgetPKNS_3JobE@Base 4:15.08.0
 _ZN4Kleo10MessageBox8auditLogEP7QWidgetPKNS_3JobERK7QString@Base 4:15.08.0
 _ZN4Kleo10MessageBox8auditLogEP7QWidgetRK7QString@Base 4:15.08.0
 _ZN4Kleo10MessageBox8auditLogEP7QWidgetRK7QStringS5_@Base 4:15.08.0
 _ZN4Kleo10SignKeyJob11qt_metacallEN11QMetaObject4CallEiPPv@Base 4:15.08.0
 _ZN4Kleo10SignKeyJob11qt_metacastEPKc@Base 4:15.08.0
 _ZN4Kleo10SignKeyJob16staticMetaObjectE@Base 4:15.08.0
 _ZN4Kleo10SignKeyJob6resultERKN5GpgME5ErrorERK7QStringS4_@Base 4:15.08.0
 _ZN4Kleo10SignKeyJobC1EP7QObject@Base 4:15.08.0
 _ZN4Kleo10SignKeyJobC2EP7QObject@Base 4:15.08.0
 _ZN4Kleo10SignKeyJobD0Ev@Base 4:15.08.0
 _ZN4Kleo10SignKeyJobD1Ev@Base 4:15.08.0
 _ZN4Kleo10SignKeyJobD2Ev@Base 4:15.08.0
 _ZN4Kleo11DownloadJob11qt_metacallEN11QMetaObject4CallEiPPv@Base 4:15.08.0
 _ZN4Kleo11DownloadJob11qt_metacastEPKc@Base 4:15.08.0
 _ZN4Kleo11DownloadJob16staticMetaObjectE@Base 4:15.08.0
 _ZN4Kleo11DownloadJob6resultERKN5GpgME5ErrorERK10QByteArrayRK7QStringS4_@Base 4:15.08.0
 _ZN4Kleo11DownloadJobC1EP7QObject@Base 4:15.08.0
 _ZN4Kleo11DownloadJobC2EP7QObject@Base 4:15.08.0
 _ZN4Kleo11DownloadJobD0Ev@Base 4:15.08.0
 _ZN4Kleo11DownloadJobD1Ev@Base 4:15.08.0
 _ZN4Kleo11DownloadJobD2Ev@Base 4:15.08.0
 _ZN4Kleo11KeyListView10slotAddKeyERKN5GpgME3KeyE@Base 4:15.08.0
 _ZN4Kleo11KeyListView11contextMenuEPNS_15KeyListViewItemERK6QPoint@Base 4:15.08.0
 _ZN4Kleo11KeyListView11qt_metacallEN11QMetaObject4CallEiPPv@Base 4:15.08.0
 _ZN4Kleo11KeyListView11qt_metacastEPKc@Base 4:15.08.0
 _ZN4Kleo11KeyListView12registerItemEPNS_15KeyListViewItemE@Base 4:15.08.0
 _ZN4Kleo11KeyListView13doubleClickedEPNS_15KeyListViewItemEi@Base 4:15.08.0
 _ZN4Kleo11KeyListView13keyPressEventEP9QKeyEvent@Base 4:15.08.0
 _ZN4Kleo11KeyListView13returnPressedEPNS_15KeyListViewItemE@Base 4:15.08.0
 _ZN4Kleo11KeyListView14ColumnStrategyD0Ev@Base 4:15.08.0
 _ZN4Kleo11KeyListView14ColumnStrategyD1Ev@Base 4:15.08.0
 _ZN4Kleo11KeyListView14ColumnStrategyD2Ev@Base 4:15.08.0
 _ZN4Kleo11KeyListView14deregisterItemEPKNS_15KeyListViewItemE@Base 4:15.08.0
 _ZN4Kleo11KeyListView14slotRefreshKeyERKN5GpgME3KeyE@Base 4:15.08.0
 _ZN4Kleo11KeyListView15DisplayStrategyD0Ev@Base 4:15.08.0
 _ZN4Kleo11KeyListView15DisplayStrategyD1Ev@Base 4:15.08.0
 _ZN4Kleo11KeyListView15DisplayStrategyD2Ev@Base 4:15.08.0
 _ZN4Kleo11KeyListView15gatherScatteredEv@Base 4:15.08.0
 _ZN4Kleo11KeyListView15scatterGatheredEPNS_15KeyListViewItemE@Base 4:15.08.0
 _ZN4Kleo11KeyListView15setHierarchicalEb@Base 4:15.08.0
 _ZN4Kleo11KeyListView16selectionChangedEPNS_15KeyListViewItemE@Base 4:15.08.0
 _ZN4Kleo11KeyListView16staticMetaObjectE@Base 4:15.08.0
 _ZN4Kleo11KeyListView17slotUpdateTimeoutEv@Base 4:15.08.0
 _ZN4Kleo11KeyListView19slotEmitContextMenuERK6QPoint@Base 4:15.08.0
 _ZN4Kleo11KeyListView20doHierarchicalInsertERKN5GpgME3KeyE@Base 4:15.08.0
 _ZN4Kleo11KeyListView21slotEmitDoubleClickedEP15QTreeWidgetItemi@Base 4:15.08.0
 _ZN4Kleo11KeyListView21slotEmitReturnPressedEP15QTreeWidgetItem@Base 4:15.08.0
 _ZN4Kleo11KeyListView24slotEmitSelectionChangedEv@Base 4:15.08.0
 _ZN4Kleo11KeyListView5clearEv@Base 4:15.08.0
 _ZN4Kleo11KeyListView8takeItemEP15QTreeWidgetItem@Base 4:15.08.0
 _ZN4Kleo11KeyListViewC1EPKNS0_14ColumnStrategyEPKNS0_15DisplayStrategyEP7QWidget6QFlagsIN2Qt10WindowTypeEE@Base 4:15.08.0
 _ZN4Kleo11KeyListViewC2EPKNS0_14ColumnStrategyEPKNS0_15DisplayStrategyEP7QWidget6QFlagsIN2Qt10WindowTypeEE@Base 4:15.08.0
 _ZN4Kleo11KeyListViewD0Ev@Base 4:15.08.0
 _ZN4Kleo11KeyListViewD1Ev@Base 4:15.08.0
 _ZN4Kleo11KeyListViewD2Ev@Base 4:15.08.0
 _ZN4Kleo11ProgressBar10setMaximumEi@Base 4:15.08.0
 _ZN4Kleo11ProgressBar11qt_metacallEN11QMetaObject4CallEiPPv@Base 4:15.08.0
 _ZN4Kleo11ProgressBar11qt_metacastEPKc@Base 4:15.08.0
 _ZN4Kleo11ProgressBar12slotProgressERK7QStringii@Base 4:15.08.0
 _ZN4Kleo11ProgressBar12slotProgressERK7QStringiii@Base 4:15.08.0
 _ZN4Kleo11ProgressBar16staticMetaObjectE@Base 4:15.08.0
 _ZN4Kleo11ProgressBar17slotBusyTimerTickEv@Base 4:15.08.0
 _ZN4Kleo11ProgressBar5fixupEb@Base 4:15.08.0
 _ZN4Kleo11ProgressBar5resetEv@Base 4:15.08.0
 _ZN4Kleo11ProgressBar8setValueEi@Base 4:15.08.0
 _ZN4Kleo11ProgressBarC1EP7QWidget@Base 4:15.08.0
 _ZN4Kleo11ProgressBarC2EP7QWidget@Base 4:15.08.0
 _ZN4Kleo12AddUserIDJob11qt_metacallEN11QMetaObject4CallEiPPv@Base 4:15.08.0
 _ZN4Kleo12AddUserIDJob11qt_metacastEPKc@Base 4:15.08.0
 _ZN4Kleo12AddUserIDJob16staticMetaObjectE@Base 4:15.08.0
 _ZN4Kleo12AddUserIDJob6resultERKN5GpgME5ErrorERK7QStringS4_@Base 4:15.08.0
 _ZN4Kleo12AddUserIDJobC1EP7QObject@Base 4:15.08.0
 _ZN4Kleo12AddUserIDJobC2EP7QObject@Base 4:15.08.0
 _ZN4Kleo12AddUserIDJobD0Ev@Base 4:15.08.0
 _ZN4Kleo12AddUserIDJobD1Ev@Base 4:15.08.0
 _ZN4Kleo12AddUserIDJobD2Ev@Base 4:15.08.0
 _ZN4Kleo12KeyRequester10updateKeysEv@Base 4:15.08.0
 _ZN4Kleo12KeyRequester11eraseButtonEv@Base 4:15.08.0
 _ZN4Kleo12KeyRequester11qt_metacallEN11QMetaObject4CallEiPPv@Base 4:15.08.0
 _ZN4Kleo12KeyRequester11qt_metacastEPKc@Base 4:15.08.0
 _ZN4Kleo12KeyRequester11slotNextKeyERKN5GpgME3KeyE@Base 4:15.08.0
 _ZN4Kleo12KeyRequester12dialogButtonEv@Base 4:15.08.0
 _ZN4Kleo12KeyRequester12virtual_hookEiPv@Base 4:15.08.0
 _ZN4Kleo12KeyRequester14setAllowedKeysEj@Base 4:15.08.0
 _ZN4Kleo12KeyRequester14setFingerprintERK7QString@Base 4:15.08.0
 _ZN4Kleo12KeyRequester15setFingerprintsERK11QStringList@Base 4:15.08.0
 _ZN4Kleo12KeyRequester15startKeyListJobERK11QStringList@Base 4:15.08.0
 _ZN4Kleo12KeyRequester16setDialogCaptionERK7QString@Base 4:15.08.0
 _ZN4Kleo12KeyRequester16setDialogMessageERK7QString@Base 4:15.08.0
 _ZN4Kleo12KeyRequester16staticMetaObjectE@Base 4:15.08.0
 _ZN4Kleo12KeyRequester17slotKeyListResultERKN5GpgME13KeyListResultE@Base 4:15.08.0
 _ZN4Kleo12KeyRequester22setMultipleKeysEnabledEb@Base 4:15.08.0
 _ZN4Kleo12KeyRequester22slotEraseButtonClickedEv@Base 4:15.08.0
 _ZN4Kleo12KeyRequester23slotDialogButtonClickedEv@Base 4:15.08.0
 _ZN4Kleo12KeyRequester4initEv@Base 4:15.08.0
 _ZN4Kleo12KeyRequester6setKeyERKN5GpgME3KeyE@Base 4:15.08.0
 _ZN4Kleo12KeyRequester7changedEv@Base 4:15.08.0
 _ZN4Kleo12KeyRequester7setKeysERKSt6vectorIN5GpgME3KeyESaIS3_EE@Base 4:15.08.0
 _ZN4Kleo12KeyRequesterC1EP7QWidget@Base 4:15.08.0
 _ZN4Kleo12KeyRequesterC1EjbP7QWidget@Base 4:15.08.0
 _ZN4Kleo12KeyRequesterC2EP7QWidget@Base 4:15.08.0
 _ZN4Kleo12KeyRequesterC2EjbP7QWidget@Base 4:15.08.0
 _ZN4Kleo12KeyRequesterD0Ev@Base 4:15.08.0
 _ZN4Kleo12KeyRequesterD1Ev@Base 4:15.08.0
 _ZN4Kleo12KeyRequesterD2Ev@Base 4:15.08.0
 _ZN4Kleo14MultiDeleteJob10slotCancelEv@Base 4:15.08.0
 _ZN4Kleo14MultiDeleteJob10slotResultERKN5GpgME5ErrorE@Base 4:15.08.0
 _ZN4Kleo14MultiDeleteJob11qt_metacallEN11QMetaObject4CallEiPPv@Base 4:15.08.0
 _ZN4Kleo14MultiDeleteJob11qt_metacastEPKc@Base 4:15.08.0
 _ZN4Kleo14MultiDeleteJob16staticMetaObjectE@Base 4:15.08.0
 _ZN4Kleo14MultiDeleteJob5startERKSt6vectorIN5GpgME3KeyESaIS3_EEb@Base 4:15.08.0
 _ZN4Kleo14MultiDeleteJob6resultERKN5GpgME5ErrorERKNS1_3KeyE@Base 4:15.08.0
 _ZN4Kleo14MultiDeleteJob9startAJobEv@Base 4:15.08.0
 _ZN4Kleo14MultiDeleteJobC1EPKNS_13CryptoBackend8ProtocolE@Base 4:15.08.0
 _ZN4Kleo14MultiDeleteJobC2EPKNS_13CryptoBackend8ProtocolE@Base 4:15.08.0
 _ZN4Kleo14MultiDeleteJobD0Ev@Base 4:15.08.0
 _ZN4Kleo14MultiDeleteJobD1Ev@Base 4:15.08.0
 _ZN4Kleo14MultiDeleteJobD2Ev@Base 4:15.08.0
 _ZN4Kleo14ProgressDialog11qt_metacallEN11QMetaObject4CallEiPPv@Base 4:15.08.0
 _ZN4Kleo14ProgressDialog11qt_metacastEPKc@Base 4:15.08.0
 _ZN4Kleo14ProgressDialog12slotProgressERK7QStringii@Base 4:15.08.0
 _ZN4Kleo14ProgressDialog16staticMetaObjectE@Base 4:15.08.0
 _ZN4Kleo14ProgressDialog18setMinimumDurationEi@Base 4:15.08.0
 _ZN4Kleo14ProgressDialog8slotDoneEv@Base 4:15.08.0
 _ZN4Kleo14ProgressDialogC1EPNS_3JobERK7QStringP7QWidget6QFlagsIN2Qt10WindowTypeEE@Base 4:15.08.0
 _ZN4Kleo14ProgressDialogC2EPNS_3JobERK7QStringP7QWidget6QFlagsIN2Qt10WindowTypeEE@Base 4:15.08.0
 _ZN4Kleo14ProgressDialogD0Ev@Base 4:15.08.0
 _ZN4Kleo14ProgressDialogD1Ev@Base 4:15.08.0
 _ZN4Kleo14ProgressDialogD2Ev@Base 4:15.08.0
 _ZN4Kleo14parseKeyserverERK7QString@Base 4:15.08.0
 _ZN4Kleo15ChangeExpiryJob11qt_metacallEN11QMetaObject4CallEiPPv@Base 4:15.08.0
 _ZN4Kleo15ChangeExpiryJob11qt_metacastEPKc@Base 4:15.08.0
 _ZN4Kleo15ChangeExpiryJob16staticMetaObjectE@Base 4:15.08.0
 _ZN4Kleo15ChangeExpiryJob6resultERKN5GpgME5ErrorERK7QStringS4_@Base 4:15.08.0
 _ZN4Kleo15ChangeExpiryJobC1EP7QObject@Base 4:15.08.0
 _ZN4Kleo15ChangeExpiryJobC2EP7QObject@Base 4:15.08.0
 _ZN4Kleo15ChangeExpiryJobD0Ev@Base 4:15.08.0
 _ZN4Kleo15ChangeExpiryJobD1Ev@Base 4:15.08.0
 _ZN4Kleo15ChangeExpiryJobD2Ev@Base 4:15.08.0
 _ZN4Kleo15ChangePasswdJob11qt_metacallEN11QMetaObject4CallEiPPv@Base 4:15.08.0
 _ZN4Kleo15ChangePasswdJob11qt_metacastEPKc@Base 4:15.08.0
 _ZN4Kleo15ChangePasswdJob16staticMetaObjectE@Base 4:15.08.0
 _ZN4Kleo15ChangePasswdJob6resultERKN5GpgME5ErrorERK7QStringS4_@Base 4:15.08.0
 _ZN4Kleo15ChangePasswdJobC1EP7QObject@Base 4:15.08.0
 _ZN4Kleo15ChangePasswdJobC2EP7QObject@Base 4:15.08.0
 _ZN4Kleo15ChangePasswdJobD0Ev@Base 4:15.08.0
 _ZN4Kleo15ChangePasswdJobD1Ev@Base 4:15.08.0
 _ZN4Kleo15ChangePasswdJobD2Ev@Base 4:15.08.0
 _ZN4Kleo15KeyListViewItem6setKeyERKN5GpgME3KeyE@Base 4:15.08.0
 _ZN4Kleo15KeyListViewItem8takeItemEP15QTreeWidgetItem@Base 4:15.08.0
 _ZN4Kleo15KeyListViewItemC1EPNS_11KeyListViewEPS0_RKN5GpgME3KeyE@Base 4:15.08.0
 _ZN4Kleo15KeyListViewItemC1EPNS_11KeyListViewERKN5GpgME3KeyE@Base 4:15.08.0
 _ZN4Kleo15KeyListViewItemC1EPS0_RKN5GpgME3KeyE@Base 4:15.08.0
 _ZN4Kleo15KeyListViewItemC1EPS0_S1_RKN5GpgME3KeyE@Base 4:15.08.0
 _ZN4Kleo15KeyListViewItemC2EPNS_11KeyListViewEPS0_RKN5GpgME3KeyE@Base 4:15.08.0
 _ZN4Kleo15KeyListViewItemC2EPNS_11KeyListViewERKN5GpgME3KeyE@Base 4:15.08.0
 _ZN4Kleo15KeyListViewItemC2EPS0_RKN5GpgME3KeyE@Base 4:15.08.0
 _ZN4Kleo15KeyListViewItemC2EPS0_S1_RKN5GpgME3KeyE@Base 4:15.08.0
 _ZN4Kleo15KeyListViewItemD0Ev@Base 4:15.08.0
 _ZN4Kleo15KeyListViewItemD1Ev@Base 4:15.08.0
 _ZN4Kleo15KeyListViewItemD2Ev@Base 4:15.08.0
 _ZN4Kleo15VerifyOpaqueJob11qt_metacallEN11QMetaObject4CallEiPPv@Base 4:15.08.0
 _ZN4Kleo15VerifyOpaqueJob11qt_metacastEPKc@Base 4:15.08.0
 _ZN4Kleo15VerifyOpaqueJob16staticMetaObjectE@Base 4:15.08.0
 _ZN4Kleo15VerifyOpaqueJob6resultERKN5GpgME18VerificationResultERK10QByteArrayRK7QStringRKNS1_5ErrorE@Base 4:15.08.0
 _ZN4Kleo15VerifyOpaqueJobC1EP7QObject@Base 4:15.08.0
 _ZN4Kleo15VerifyOpaqueJobC2EP7QObject@Base 4:15.08.0
 _ZN4Kleo15VerifyOpaqueJobD0Ev@Base 4:15.08.0
 _ZN4Kleo15VerifyOpaqueJobD1Ev@Base 4:15.08.0
 _ZN4Kleo15VerifyOpaqueJobD2Ev@Base 4:15.08.0
 _ZN4Kleo16DecryptVerifyJob11qt_metacallEN11QMetaObject4CallEiPPv@Base 4:15.08.0
 _ZN4Kleo16DecryptVerifyJob11qt_metacastEPKc@Base 4:15.08.0
 _ZN4Kleo16DecryptVerifyJob16staticMetaObjectE@Base 4:15.08.0
 _ZN4Kleo16DecryptVerifyJob6resultERKN5GpgME16DecryptionResultERKNS1_18VerificationResultERK10QByteArrayRK7QStringRKNS1_5ErrorE@Base 4:15.08.0
 _ZN4Kleo16DecryptVerifyJobC1EP7QObject@Base 4:15.08.0
 _ZN4Kleo16DecryptVerifyJobC2EP7QObject@Base 4:15.08.0
 _ZN4Kleo16DecryptVerifyJobD0Ev@Base 4:15.08.0
 _ZN4Kleo16DecryptVerifyJobD1Ev@Base 4:15.08.0
 _ZN4Kleo16DecryptVerifyJobD2Ev@Base 4:15.08.0
 _ZN4Kleo16GnuPGProcessBase11qt_metacallEN11QMetaObject4CallEiPPv@Base 4:15.08.0
 _ZN4Kleo16GnuPGProcessBase11qt_metacastEPKc@Base 4:15.08.0
 _ZN4Kleo16GnuPGProcessBase14setUseStatusFDEb@Base 4:15.08.0
 _ZN4Kleo16GnuPGProcessBase16staticMetaObjectE@Base 4:15.08.0
 _ZN4Kleo16GnuPGProcessBase6statusEPS0_RK7QStringRK11QStringList@Base 4:15.08.0
 _ZN4Kleo16GnuPGProcessBaseC1EP7QObject@Base 4:15.08.0
 _ZN4Kleo16GnuPGProcessBaseC2EP7QObject@Base 4:15.08.0
 _ZN4Kleo16GnuPGProcessBaseD0Ev@Base 4:15.08.0
 _ZN4Kleo16GnuPGProcessBaseD1Ev@Base 4:15.08.0
 _ZN4Kleo16GnuPGProcessBaseD2Ev@Base 4:15.08.0
 _ZN4Kleo16KeyFilterManager11qt_metacallEN11QMetaObject4CallEiPPv@Base 4:15.08.0
 _ZN4Kleo16KeyFilterManager11qt_metacastEPKc@Base 4:15.08.0
 _ZN4Kleo16KeyFilterManager16staticMetaObjectE@Base 4:15.08.0
 _ZN4Kleo16KeyFilterManager5mSelfE@Base 4:15.08.0
 _ZN4Kleo16KeyFilterManager6reloadEv@Base 4:15.08.0
 _ZN4Kleo16KeyFilterManager8instanceEv@Base 4:15.08.0
 _ZN4Kleo16KeyFilterManagerC1EP7QObject@Base 4:15.08.0
 _ZN4Kleo16KeyFilterManagerC2EP7QObject@Base 4:15.08.0
 _ZN4Kleo16KeyFilterManagerD0Ev@Base 4:15.08.0
 _ZN4Kleo16KeyFilterManagerD1Ev@Base 4:15.08.0
 _ZN4Kleo16KeyFilterManagerD2Ev@Base 4:15.08.0
 _ZN4Kleo17DNAttributeMapper17setAttributeOrderERK11QStringList@Base 4:15.08.0
 _ZN4Kleo17DNAttributeMapper5mSelfE@Base 4:15.08.0
 _ZN4Kleo17DNAttributeMapper7PrivateC1Ev@Base 4:15.08.0
 _ZN4Kleo17DNAttributeMapper7PrivateC2Ev@Base 4:15.08.0
 _ZN4Kleo17DNAttributeMapper8instanceEv@Base 4:15.08.0
 _ZN4Kleo17DNAttributeMapperC1Ev@Base 4:15.08.0
 _ZN4Kleo17DNAttributeMapperC2Ev@Base 4:15.08.0
 _ZN4Kleo17DNAttributeMapperD1Ev@Base 4:15.08.0
 _ZN4Kleo17DNAttributeMapperD2Ev@Base 4:15.08.0
 _ZN4Kleo17FileNameRequester11qt_metacallEN11QMetaObject4CallEiPPv@Base 4:15.08.0
 _ZN4Kleo17FileNameRequester11qt_metacastEPKc@Base 4:15.08.0
 _ZN4Kleo17FileNameRequester11setFileNameERK7QString@Base 4:15.08.0
 _ZN4Kleo17FileNameRequester13setNameFilterERK7QString@Base 4:15.08.0
 _ZN4Kleo17FileNameRequester15fileNameChangedERK7QString@Base 4:15.08.0
 _ZN4Kleo17FileNameRequester15requestFileNameEv@Base 4:15.08.0
 _ZN4Kleo17FileNameRequester15setExistingOnlyEb@Base 4:15.08.0
 _ZN4Kleo17FileNameRequester16staticMetaObjectE@Base 4:15.08.0
 _ZN4Kleo17FileNameRequester7Private17slotButtonClickedEv@Base 4:15.08.0
 _ZN4Kleo17FileNameRequester7PrivateC1EPS0_@Base 4:15.08.0
 _ZN4Kleo17FileNameRequester7PrivateC2EPS0_@Base 4:15.08.0
 _ZN4Kleo17FileNameRequester7PrivateD1Ev@Base 4:15.08.0
 _ZN4Kleo17FileNameRequester7PrivateD2Ev@Base 4:15.08.0
 _ZN4Kleo17FileNameRequester9setFilterE6QFlagsIN4QDir6FilterEE@Base 4:15.08.0
 _ZN4Kleo17FileNameRequesterC1E6QFlagsIN4QDir6FilterEEP7QWidget@Base 4:15.08.0
 _ZN4Kleo17FileNameRequesterC1EP7QWidget@Base 4:15.08.0
 _ZN4Kleo17FileNameRequesterC2E6QFlagsIN4QDir6FilterEEP7QWidget@Base 4:15.08.0
 _ZN4Kleo17FileNameRequesterC2EP7QWidget@Base 4:15.08.0
 _ZN4Kleo17FileNameRequesterD0Ev@Base 4:15.08.0
 _ZN4Kleo17FileNameRequesterD1Ev@Base 4:15.08.0
 _ZN4Kleo17FileNameRequesterD2Ev@Base 4:15.08.0
 _ZN4Kleo17KeyApprovalDialog11qt_metacallEN11QMetaObject4CallEiPPv@Base 4:15.08.0
 _ZN4Kleo17KeyApprovalDialog11qt_metacastEPKc@Base 4:15.08.0
 _ZN4Kleo17KeyApprovalDialog16slotPrefsChangedEv@Base 4:15.08.0
 _ZN4Kleo17KeyApprovalDialog16staticMetaObjectE@Base 4:15.08.0
 _ZN4Kleo17KeyApprovalDialogC1ERKSt6vectorINS0_4ItemESaIS2_EERKS1_IN5GpgME3KeyESaIS8_EEP7QWidget@Base 4:15.08.0
 _ZN4Kleo17KeyApprovalDialogC2ERKSt6vectorINS0_4ItemESaIS2_EERKS1_IN5GpgME3KeyESaIS8_EEP7QWidget@Base 4:15.08.0
 _ZN4Kleo17KeyApprovalDialogD0Ev@Base 4:15.08.0
 _ZN4Kleo17KeyApprovalDialogD1Ev@Base 4:15.08.0
 _ZN4Kleo17KeyApprovalDialogD2Ev@Base 4:15.08.0
 _ZN4Kleo17assembleKeyserverERKNS_15ParsedKeyserverE@Base 4:15.08.0
 _ZN4Kleo18ChecksumDefinition11installPathEv@Base 4:15.08.0
 _ZN4Kleo18ChecksumDefinition14setInstallPathERK7QString@Base 4:15.08.0
 _ZN4Kleo18ChecksumDefinition22getChecksumDefinitionsER11QStringList@Base 4:15.08.0
 _ZN4Kleo18ChecksumDefinition22getChecksumDefinitionsEv@Base 4:15.08.0
 _ZN4Kleo18ChecksumDefinition28getDefaultChecksumDefinitionERKSt6vectorIN5boost10shared_ptrIS0_EESaIS4_EE@Base 4:15.08.0
 _ZN4Kleo18ChecksumDefinition28setDefaultChecksumDefinitionERKN5boost10shared_ptrIS0_EE@Base 4:15.08.0
 _ZN4Kleo18ChecksumDefinitionC1ERK7QStringS3_S3_RK11QStringList@Base 4:15.08.0
 _ZN4Kleo18ChecksumDefinitionC2ERK7QStringS3_S3_RK11QStringList@Base 4:15.08.0
 _ZN4Kleo18ChecksumDefinitionD0Ev@Base 4:15.08.0
 _ZN4Kleo18ChecksumDefinitionD1Ev@Base 4:15.08.0
 _ZN4Kleo18ChecksumDefinitionD2Ev@Base 4:15.08.0
 _ZN4Kleo18CryptoConfigDialog10slotCancelEv@Base 4:15.08.0
 _ZN4Kleo18CryptoConfigDialog11qt_metacallEN11QMetaObject4CallEiPPv@Base 4:15.08.0
 _ZN4Kleo18CryptoConfigDialog11qt_metacastEPKc@Base 4:15.08.0
 _ZN4Kleo18CryptoConfigDialog11slotChangedEv@Base 4:15.08.0
 _ZN4Kleo18CryptoConfigDialog11slotDefaultEv@Base 4:15.08.0
 _ZN4Kleo18CryptoConfigDialog16staticMetaObjectE@Base 4:15.08.0
 _ZN4Kleo18CryptoConfigDialog6slotOkEv@Base 4:15.08.0
 _ZN4Kleo18CryptoConfigDialog9slotApplyEv@Base 4:15.08.0
 _ZN4Kleo18CryptoConfigDialog9slotUser1Ev@Base 4:15.08.0
 _ZN4Kleo18CryptoConfigDialogC1EPNS_12CryptoConfigEP7QWidget@Base 4:15.08.0
 _ZN4Kleo18CryptoConfigDialogC2EPNS_12CryptoConfigEP7QWidget@Base 4:15.08.0
 _ZN4Kleo18CryptoConfigModule11qt_metacallEN11QMetaObject4CallEiPPv@Base 4:15.08.0
 _ZN4Kleo18CryptoConfigModule11qt_metacastEPKc@Base 4:15.08.0
 _ZN4Kleo18CryptoConfigModule16staticMetaObjectE@Base 4:15.08.0
 _ZN4Kleo18CryptoConfigModule4initENS0_6LayoutE@Base 4:15.08.0
 _ZN4Kleo18CryptoConfigModule4saveEv@Base 4:15.08.0
 _ZN4Kleo18CryptoConfigModule5resetEv@Base 4:15.08.0
 _ZN4Kleo18CryptoConfigModule6cancelEv@Base 4:15.08.0
 _ZN4Kleo18CryptoConfigModule7changedEv@Base 4:15.08.0
 _ZN4Kleo18CryptoConfigModule8defaultsEv@Base 4:15.08.0
 _ZN4Kleo18CryptoConfigModuleC1EPNS_12CryptoConfigENS0_6LayoutEP7QWidget@Base 4:15.08.0
 _ZN4Kleo18CryptoConfigModuleC1EPNS_12CryptoConfigEP7QWidget@Base 4:15.08.0
 _ZN4Kleo18CryptoConfigModuleC2EPNS_12CryptoConfigENS0_6LayoutEP7QWidget@Base 4:15.08.0
 _ZN4Kleo18CryptoConfigModuleC2EPNS_12CryptoConfigEP7QWidget@Base 4:15.08.0
 _ZN4Kleo18KeySelectionDialog10slotCancelEv@Base 4:15.08.0
 _ZN4Kleo18KeySelectionDialog10slotFilterEv@Base 4:15.08.0
 _ZN4Kleo18KeySelectionDialog10slotSearchERK7QString@Base 4:15.08.0
 _ZN4Kleo18KeySelectionDialog10slotSearchEv@Base 4:15.08.0
 _ZN4Kleo18KeySelectionDialog11filterByUIDERK7QString@Base 4:15.08.0
 _ZN4Kleo18KeySelectionDialog11qt_metacallEN11QMetaObject4CallEiPPv@Base 4:15.08.0
 _ZN4Kleo18KeySelectionDialog11qt_metacastEPKc@Base 4:15.08.0
 _ZN4Kleo18KeySelectionDialog12showAllItemsEv@Base 4:15.08.0
 _ZN4Kleo18KeySelectionDialog13filterByKeyIDERK7QString@Base 4:15.08.0
 _ZN4Kleo18KeySelectionDialog14connectSignalsEv@Base 4:15.08.0
 _ZN4Kleo18KeySelectionDialog14slotRecheckKeyEv@Base 4:15.08.0
 _ZN4Kleo18KeySelectionDialog14slotRereadKeysEv@Base 4:15.08.0
 _ZN4Kleo18KeySelectionDialog16staticMetaObjectE@Base 4:15.08.0
 _ZN4Kleo18KeySelectionDialog17disconnectSignalsEv@Base 4:15.08.0
 _ZN4Kleo18KeySelectionDialog17slotKeyListResultERKN5GpgME13KeyListResultE@Base 4:15.08.0
 _ZN4Kleo18KeySelectionDialog18filterByKeyIDOrUIDERK7QString@Base 4:15.08.0
 _ZN4Kleo18KeySelectionDialog18slotCheckSelectionEPNS_15KeyListViewItemE@Base 4:15.08.0
 _ZN4Kleo18KeySelectionDialog20slotSelectionChangedEv@Base 4:15.08.0
 _ZN4Kleo18KeySelectionDialog25startKeyListJobForBackendEPKNS_13CryptoBackend8ProtocolERKSt6vectorIN5GpgME3KeyESaIS7_EEb@Base 4:15.08.0
 _ZN4Kleo18KeySelectionDialog25startValidatingKeyListingEv@Base 4:15.08.0
 _ZN4Kleo18KeySelectionDialog27slotStartCertificateManagerERK7QString@Base 4:15.08.0
 _ZN4Kleo18KeySelectionDialog4initEbbRK7QStringS3_@Base 4:15.08.0
 _ZN4Kleo18KeySelectionDialog6slotOkEv@Base 4:15.08.0
 _ZN4Kleo18KeySelectionDialog7slotRMBEPNS_15KeyListViewItemERK6QPoint@Base 4:15.08.0
 _ZN4Kleo18KeySelectionDialog9slotTryOkEv@Base 4:15.08.0
 _ZN4Kleo18KeySelectionDialogC1ERK7QStringS3_RKSt6vectorIN5GpgME3KeyESaIS6_EEjbbP7QWidgetb@Base 4:15.08.0
 _ZN4Kleo18KeySelectionDialogC1ERK7QStringS3_S3_RKSt6vectorIN5GpgME3KeyESaIS6_EEjbbP7QWidgetb@Base 4:15.08.0
 _ZN4Kleo18KeySelectionDialogC1ERK7QStringS3_S3_jbbP7QWidgetb@Base 4:15.08.0
 _ZN4Kleo18KeySelectionDialogC2ERK7QStringS3_RKSt6vectorIN5GpgME3KeyESaIS6_EEjbbP7QWidgetb@Base 4:15.08.0
 _ZN4Kleo18KeySelectionDialogC2ERK7QStringS3_S3_RKSt6vectorIN5GpgME3KeyESaIS6_EEjbbP7QWidgetb@Base 4:15.08.0
 _ZN4Kleo18KeySelectionDialogC2ERK7QStringS3_S3_jbbP7QWidgetb@Base 4:15.08.0
 _ZN4Kleo18KeySelectionDialogD0Ev@Base 4:15.08.0
 _ZN4Kleo18KeySelectionDialogD1Ev@Base 4:15.08.0
 _ZN4Kleo18KeySelectionDialogD2Ev@Base 4:15.08.0
 _ZN4Kleo19ChangeOwnerTrustJob11qt_metacallEN11QMetaObject4CallEiPPv@Base 4:15.08.0
 _ZN4Kleo19ChangeOwnerTrustJob11qt_metacastEPKc@Base 4:15.08.0
 _ZN4Kleo19ChangeOwnerTrustJob16staticMetaObjectE@Base 4:15.08.0
 _ZN4Kleo19ChangeOwnerTrustJob6resultERKN5GpgME5ErrorERK7QStringS4_@Base 4:15.08.0
 _ZN4Kleo19ChangeOwnerTrustJobC1EP7QObject@Base 4:15.08.0
 _ZN4Kleo19ChangeOwnerTrustJobC2EP7QObject@Base 4:15.08.0
 _ZN4Kleo19ChangeOwnerTrustJobD0Ev@Base 4:15.08.0
 _ZN4Kleo19ChangeOwnerTrustJobD1Ev@Base 4:15.08.0
 _ZN4Kleo19ChangeOwnerTrustJobD2Ev@Base 4:15.08.0
 _ZN4Kleo19SigningKeyRequester11qt_metacallEN11QMetaObject4CallEiPPv@Base 4:15.08.0
 _ZN4Kleo19SigningKeyRequester11qt_metacastEPKc@Base 4:15.08.0
 _ZN4Kleo19SigningKeyRequester12virtual_hookEiPv@Base 4:15.08.0
 _ZN4Kleo19SigningKeyRequester14setAllowedKeysEjbb@Base 4:15.08.0
 _ZN4Kleo19SigningKeyRequester16staticMetaObjectE@Base 4:15.08.0
 _ZN4Kleo19SigningKeyRequesterC1EP7QWidget@Base 4:15.08.0
 _ZN4Kleo19SigningKeyRequesterC1EbjP7QWidgetbb@Base 4:15.08.0
 _ZN4Kleo19SigningKeyRequesterC2EP7QWidget@Base 4:15.08.0
 _ZN4Kleo19SigningKeyRequesterC2EbjP7QWidgetbb@Base 4:15.08.0
 _ZN4Kleo19SigningKeyRequesterD0Ev@Base 4:15.08.0
 _ZN4Kleo19SigningKeyRequesterD1Ev@Base 4:15.08.0
 _ZN4Kleo19SigningKeyRequesterD2Ev@Base 4:15.08.0
 _ZN4Kleo20CryptoBackendFactory10readConfigEv@Base 4:15.08.0
 _ZN4Kleo20CryptoBackendFactory11qt_metacallEN11QMetaObject4CallEiPPv@Base 4:15.08.0
 _ZN4Kleo20CryptoBackendFactory11qt_metacastEPKc@Base 4:15.08.0
 _ZN4Kleo20CryptoBackendFactory15scanForBackendsEP11QStringList@Base 4:15.08.0
 _ZN4Kleo20CryptoBackendFactory15setSMIMEBackendEPKNS_13CryptoBackendE@Base 4:15.08.0
 _ZN4Kleo20CryptoBackendFactory16staticMetaObjectE@Base 4:15.08.0
 _ZN4Kleo20CryptoBackendFactory17setOpenPGPBackendEPKNS_13CryptoBackendE@Base 4:15.08.0
 _ZN4Kleo20CryptoBackendFactory18setProtocolBackendEPKcPKNS_13CryptoBackendE@Base 4:15.08.0
 _ZN4Kleo20CryptoBackendFactory5mSelfE@Base 4:15.08.0
 _ZN4Kleo20CryptoBackendFactory8instanceEv@Base 4:15.08.0
 _ZN4Kleo20CryptoBackendFactoryC1Ev@Base 4:15.08.0
 _ZN4Kleo20CryptoBackendFactoryC2Ev@Base 4:15.08.0
 _ZN4Kleo20CryptoBackendFactoryD0Ev@Base 4:15.08.0
 _ZN4Kleo20CryptoBackendFactoryD1Ev@Base 4:15.08.0
 _ZN4Kleo20CryptoBackendFactoryD2Ev@Base 4:15.08.0
 _ZN4Kleo22EncryptionKeyRequester11qt_metacallEN11QMetaObject4CallEiPPv@Base 4:15.08.0
 _ZN4Kleo22EncryptionKeyRequester11qt_metacastEPKc@Base 4:15.08.0
 _ZN4Kleo22EncryptionKeyRequester12virtual_hookEiPv@Base 4:15.08.0
 _ZN4Kleo22EncryptionKeyRequester14setAllowedKeysEjbb@Base 4:15.08.0
 _ZN4Kleo22EncryptionKeyRequester16staticMetaObjectE@Base 4:15.08.0
 _ZN4Kleo22EncryptionKeyRequesterC1EP7QWidget@Base 4:15.08.0
 _ZN4Kleo22EncryptionKeyRequesterC1EbjP7QWidgetbb@Base 4:15.08.0
 _ZN4Kleo22EncryptionKeyRequesterC2EP7QWidget@Base 4:15.08.0
 _ZN4Kleo22EncryptionKeyRequesterC2EbjP7QWidgetbb@Base 4:15.08.0
 _ZN4Kleo22EncryptionKeyRequesterD0Ev@Base 4:15.08.0
 _ZN4Kleo22EncryptionKeyRequesterD1Ev@Base 4:15.08.0
 _ZN4Kleo22EncryptionKeyRequesterD2Ev@Base 4:15.08.0
 _ZN4Kleo22HierarchicalKeyListJob10slotCancelEv@Base 4:15.08.0
 _ZN4Kleo22HierarchicalKeyListJob10slotResultERKN5GpgME13KeyListResultE@Base 4:15.08.0
 _ZN4Kleo22HierarchicalKeyListJob11qt_metacallEN11QMetaObject4CallEiPPv@Base 4:15.08.0
 _ZN4Kleo22HierarchicalKeyListJob11qt_metacastEPKc@Base 4:15.08.0
 _ZN4Kleo22HierarchicalKeyListJob11slotNextKeyERKN5GpgME3KeyE@Base 4:15.08.0
 _ZN4Kleo22HierarchicalKeyListJob16staticMetaObjectE@Base 4:15.08.0
 _ZN4Kleo22HierarchicalKeyListJob4execERK11QStringListbRSt6vectorIN5GpgME3KeyESaIS6_EE@Base 4:15.08.0
 _ZN4Kleo22HierarchicalKeyListJob5startERK11QStringListb@Base 4:15.08.0
 _ZN4Kleo22HierarchicalKeyListJob9startAJobEv@Base 4:15.08.0
 _ZN4Kleo22HierarchicalKeyListJobC1EPKNS_13CryptoBackend8ProtocolEbbb@Base 4:15.08.0
 _ZN4Kleo22HierarchicalKeyListJobC2EPKNS_13CryptoBackend8ProtocolEbbb@Base 4:15.08.0
 _ZN4Kleo22HierarchicalKeyListJobD0Ev@Base 4:15.08.0
 _ZN4Kleo22HierarchicalKeyListJobD1Ev@Base 4:15.08.0
 _ZN4Kleo22HierarchicalKeyListJobD2Ev@Base 4:15.08.0
 _ZN4Kleo23DirectoryServicesWidget11qt_metacallEN11QMetaObject4CallEiPPv@Base 4:15.08.0
 _ZN4Kleo23DirectoryServicesWidget11qt_metacastEPKc@Base 4:15.08.0
 _ZN4Kleo23DirectoryServicesWidget15addX509ServicesERKN4KUrl4ListE@Base 4:15.08.0
 _ZN4Kleo23DirectoryServicesWidget16staticMetaObjectE@Base 4:15.08.0
 _ZN4Kleo23DirectoryServicesWidget17setAllowedSchemesE6QFlagsINS0_6SchemeEE@Base 4:15.08.0
 _ZN4Kleo23DirectoryServicesWidget18addOpenPGPServicesERKN4KUrl4ListE@Base 4:15.08.0
 _ZN4Kleo23DirectoryServicesWidget19setAllowedProtocolsE6QFlagsINS0_8ProtocolEE@Base 4:15.08.0
 _ZN4Kleo23DirectoryServicesWidget20setReadOnlyProtocolsE6QFlagsINS0_8ProtocolEE@Base 4:15.08.0
 _ZN4Kleo23DirectoryServicesWidget5clearEv@Base 4:15.08.0
 _ZN4Kleo23DirectoryServicesWidget7Private15showHideColumnsEv@Base 4:15.08.0
 _ZN4Kleo23DirectoryServicesWidget7changedEv@Base 4:15.08.0
 _ZN4Kleo23DirectoryServicesWidgetC1EP7QWidget6QFlagsIN2Qt10WindowTypeEE@Base 4:15.08.0
 _ZN4Kleo23DirectoryServicesWidgetC2EP7QWidget6QFlagsIN2Qt10WindowTypeEE@Base 4:15.08.0
 _ZN4Kleo23DirectoryServicesWidgetD0Ev@Base 4:15.08.0
 _ZN4Kleo23DirectoryServicesWidgetD1Ev@Base 4:15.08.0
 _ZN4Kleo23DirectoryServicesWidgetD2Ev@Base 4:15.08.0
 _ZN4Kleo24signingPreferenceToLabelENS_17SigningPreferenceE@Base 4:15.08.0
 _ZN4Kleo25signingPreferenceToStringENS_17SigningPreferenceE@Base 4:15.08.0
 _ZN4Kleo25stringToSigningPreferenceERK7QString@Base 4:15.08.0
 _ZN4Kleo26cryptoMessageFormatToLabelENS_19CryptoMessageFormatE@Base 4:15.08.0
 _ZN4Kleo27cryptoMessageFormatToStringENS_19CryptoMessageFormatE@Base 4:15.08.0
 _ZN4Kleo27encryptionPreferenceToLabelENS_20EncryptionPreferenceE@Base 4:15.08.0
 _ZN4Kleo27stringToCryptoMessageFormatERK7QString@Base 4:15.08.0
 _ZN4Kleo28DNAttributeOrderConfigWidget11qt_metacallEN11QMetaObject4CallEiPPv@Base 4:15.08.0
 _ZN4Kleo28DNAttributeOrderConfigWidget11qt_metacastEPKc@Base 4:15.08.0
 _ZN4Kleo28DNAttributeOrderConfigWidget12virtual_hookEiPv@Base 4:15.08.0
 _ZN4Kleo28DNAttributeOrderConfigWidget16staticMetaObjectE@Base 4:15.08.0
 _ZN4Kleo28DNAttributeOrderConfigWidget19slotUpButtonClickedEv@Base 4:15.08.0
 _ZN4Kleo28DNAttributeOrderConfigWidget19takePlaceHolderItemEv@Base 4:15.08.0
 _ZN4Kleo28DNAttributeOrderConfigWidget20enableDisableButtonsEP15QTreeWidgetItem@Base 4:15.08.0
 _ZN4Kleo28DNAttributeOrderConfigWidget21slotDownButtonClickedEv@Base 4:15.08.0
 _ZN4Kleo28DNAttributeOrderConfigWidget21slotLeftButtonClickedEv@Base 4:15.08.0
 _ZN4Kleo28DNAttributeOrderConfigWidget22slotRightButtonClickedEv@Base 4:15.08.0
 _ZN4Kleo28DNAttributeOrderConfigWidget25slotDoubleUpButtonClickedEv@Base 4:15.08.0
 _ZN4Kleo28DNAttributeOrderConfigWidget27slotDoubleDownButtonClickedEv@Base 4:15.08.0
 _ZN4Kleo28DNAttributeOrderConfigWidget29slotAvailableSelectionChangedEP15QTreeWidgetItem@Base 4:15.08.0
 _ZN4Kleo28DNAttributeOrderConfigWidget32slotCurrentOrderSelectionChangedEP15QTreeWidgetItem@Base 4:15.08.0
 _ZN4Kleo28DNAttributeOrderConfigWidget4loadEv@Base 4:15.08.0
 _ZN4Kleo28DNAttributeOrderConfigWidget7changedEv@Base 4:15.08.0
 _ZN4Kleo28DNAttributeOrderConfigWidget8defaultsEv@Base 4:15.08.0
 _ZN4Kleo28DNAttributeOrderConfigWidgetC1EPNS_17DNAttributeMapperEP7QWidget6QFlagsIN2Qt10WindowTypeEE@Base 4:15.08.0
 _ZN4Kleo28DNAttributeOrderConfigWidgetC2EPNS_17DNAttributeMapperEP7QWidget6QFlagsIN2Qt10WindowTypeEE@Base 4:15.08.0
 _ZN4Kleo28DNAttributeOrderConfigWidgetD0Ev@Base 4:15.08.0
 _ZN4Kleo28DNAttributeOrderConfigWidgetD1Ev@Base 4:15.08.0
 _ZN4Kleo28DNAttributeOrderConfigWidgetD2Ev@Base 4:15.08.0
 _ZN4Kleo28encryptionPreferenceToStringENS_20EncryptionPreferenceE@Base 4:15.08.0
 _ZN4Kleo28stringToEncryptionPreferenceERK7QString@Base 4:15.08.0
 _ZN4Kleo2DN6appendERKNS0_9AttributeE@Base 4:15.08.0
 _ZN4Kleo2DN6detachEv@Base 4:15.08.0
 _ZN4Kleo2DN6escapeERK7QString@Base 4:15.08.0
 _ZN4Kleo2DNC1EPKc@Base 4:15.08.0
 _ZN4Kleo2DNC1ERK7QString@Base 4:15.08.0
 _ZN4Kleo2DNC1ERKS0_@Base 4:15.08.0
 _ZN4Kleo2DNC1Ev@Base 4:15.08.0
 _ZN4Kleo2DNC2EPKc@Base 4:15.08.0
 _ZN4Kleo2DNC2ERK7QString@Base 4:15.08.0
 _ZN4Kleo2DNC2ERKS0_@Base 4:15.08.0
 _ZN4Kleo2DNC2Ev@Base 4:15.08.0
 _ZN4Kleo2DND1Ev@Base 4:15.08.0
 _ZN4Kleo2DND2Ev@Base 4:15.08.0
 _ZN4Kleo2DNaSERKS0_@Base 4:15.08.0
 _ZN4Kleo32cryptoMessageFormatsToStringListEj@Base 4:15.08.0
 _ZN4Kleo32stringListToCryptoMessageFormatsERK11QStringList@Base 4:15.08.0
 _ZN4Kleo3Job11qt_metacallEN11QMetaObject4CallEiPPv@Base 4:15.08.0
 _ZN4Kleo3Job11qt_metacastEPKc@Base 4:15.08.0
 _ZN4Kleo3Job16staticMetaObjectE@Base 4:15.08.0
 _ZN4Kleo3Job4doneEv@Base 4:15.08.0
 _ZN4Kleo3Job8progressERK7QStringii@Base 4:15.08.0
 _ZN4Kleo3JobC1EP7QObject@Base 4:15.08.0
 _ZN4Kleo3JobC2EP7QObject@Base 4:15.08.0
 _ZN4Kleo3JobD0Ev@Base 4:15.08.0
 _ZN4Kleo3JobD1Ev@Base 4:15.08.0
 _ZN4Kleo3JobD2Ev@Base 4:15.08.0
 _ZN4Kleo7SignJob11qt_metacallEN11QMetaObject4CallEiPPv@Base 4:15.08.0
 _ZN4Kleo7SignJob11qt_metacastEPKc@Base 4:15.08.0
 _ZN4Kleo7SignJob16staticMetaObjectE@Base 4:15.08.0
 _ZN4Kleo7SignJob6resultERKN5GpgME13SigningResultERK10QByteArrayRK7QStringRKNS1_5ErrorE@Base 4:15.08.0
 _ZN4Kleo7SignJobC1EP7QObject@Base 4:15.08.0
 _ZN4Kleo7SignJobC2EP7QObject@Base 4:15.08.0
 _ZN4Kleo7SignJobD0Ev@Base 4:15.08.0
 _ZN4Kleo7SignJobD1Ev@Base 4:15.08.0
 _ZN4Kleo7SignJobD2Ev@Base 4:15.08.0
 _ZN4Kleo9ExceptionD0Ev@Base 4:15.08.0
 _ZN4Kleo9ExceptionD1Ev@Base 4:15.08.0
 _ZN4Kleo9ExceptionD2Ev@Base 4:15.08.0
 (optional=templinst)_ZNK12KConfigGroup9readEntryI10QByteArrayEET_PKcRKS2_@Base 4:15.08.0
 (optional=templinst)_ZNK12KConfigGroup9readEntryI5QSizeEET_PKcRKS2_@Base 4:15.08.0
 (optional=templinst)_ZNK12KConfigGroup9readEntryI6QColorEET_PKcRKS2_@Base 4:15.08.0
 (optional=templinst)_ZNK12KConfigGroup9readEntryIbEET_PKcRKS1_@Base 4:15.08.0
 _ZNK16KDHorizontalLine10metaObjectEv@Base 4:15.08.0
 _ZNK16KDHorizontalLine10sizePolicyEv@Base 4:15.08.0
 _ZNK16KDHorizontalLine15minimumSizeHintEv@Base 4:15.08.0
 _ZNK16KDHorizontalLine8sizeHintEv@Base 4:15.08.0
 _ZNK18QGpgMECryptoConfig10metaObjectEv@Base 4:15.08.0
 _ZNK18QGpgMECryptoConfig13componentListEv@Base 4:15.08.0
 _ZNK18QGpgMECryptoConfig9componentERK7QString@Base 4:15.08.0
 _ZNK21QGpgMENewCryptoConfig13componentListEv@Base 4:15.08.0
 _ZNK21QGpgMENewCryptoConfig9componentERK7QString@Base 4:15.08.0
 _ZNK4Kleo10DecryptJob10metaObjectEv@Base 4:15.08.0
 _ZNK4Kleo10EncryptJob10metaObjectEv@Base 4:15.08.0
 _ZNK4Kleo10SignKeyJob10metaObjectEv@Base 4:15.08.0
 _ZNK4Kleo11DownloadJob10metaObjectEv@Base 4:15.08.0
 _ZNK4Kleo11KeyListView10firstChildEv@Base 4:15.08.0
 _ZNK4Kleo11KeyListView10metaObjectEv@Base 4:15.08.0
 _ZNK4Kleo11KeyListView12selectedItemEv@Base 4:15.08.0
 _ZNK4Kleo11KeyListView13selectedItemsEv@Base 4:15.08.0
 _ZNK4Kleo11KeyListView14ColumnStrategy5widthEiRK12QFontMetrics@Base 4:15.08.0
 _ZNK4Kleo11KeyListView14ColumnStrategy7compareERKN5GpgME3KeyES5_i@Base 4:15.08.0
 _ZNK4Kleo11KeyListView14ColumnStrategy7toolTipERKN5GpgME3KeyEi@Base 4:15.08.0
 _ZNK4Kleo11KeyListView15DisplayStrategy13keyBackgroundERKN5GpgME3KeyERK6QColor@Base 4:15.08.0
 _ZNK4Kleo11KeyListView15DisplayStrategy13keyForegroundERKN5GpgME3KeyERK6QColor@Base 4:15.08.0
 _ZNK4Kleo11KeyListView15DisplayStrategy7keyFontERKN5GpgME3KeyERK5QFont@Base 4:15.08.0
 _ZNK4Kleo11KeyListView16isMultiSelectionEv@Base 4:15.08.0
 _ZNK4Kleo11KeyListView17itemByFingerprintERK10QByteArray@Base 4:15.08.0
 _ZNK4Kleo11ProgressBar10metaObjectEv@Base 4:15.08.0
 _ZNK4Kleo12AddUserIDJob10metaObjectEv@Base 4:15.08.0
 _ZNK4Kleo12KeyRequester10metaObjectEv@Base 4:15.08.0
 _ZNK4Kleo12KeyRequester11allowedKeysEv@Base 4:15.08.0
 _ZNK4Kleo12KeyRequester11fingerprintEv@Base 4:15.08.0
 _ZNK4Kleo12KeyRequester12fingerprintsEv@Base 4:15.08.0
 _ZNK4Kleo12KeyRequester21isMultipleKeysEnabledEv@Base 4:15.08.0
 _ZNK4Kleo12KeyRequester3keyEv@Base 4:15.08.0
 _ZNK4Kleo12KeyRequester4keysEv@Base 4:15.08.0
 _ZNK4Kleo14MultiDeleteJob10metaObjectEv@Base 4:15.08.0
 _ZNK4Kleo14ProgressDialog10metaObjectEv@Base 4:15.08.0
 _ZNK4Kleo15ChangeExpiryJob10metaObjectEv@Base 4:15.08.0
 _ZNK4Kleo15ChangePasswdJob10metaObjectEv@Base 4:15.08.0
 _ZNK4Kleo15KeyListViewItem11nextSiblingEv@Base 4:15.08.0
 _ZNK4Kleo15KeyListViewItem7toolTipEi@Base 4:15.08.0
 _ZNK4Kleo15KeyListViewItem8listViewEv@Base 4:15.08.0
 _ZNK4Kleo15KeyListViewItemltERK15QTreeWidgetItem@Base 4:15.08.0
 _ZNK4Kleo15VerifyOpaqueJob10metaObjectEv@Base 4:15.08.0
 _ZNK4Kleo16DecryptVerifyJob10metaObjectEv@Base 4:15.08.0
 _ZNK4Kleo16GnuPGProcessBase10metaObjectEv@Base 4:15.08.0
 _ZNK4Kleo16KeyFilterManager10metaObjectEv@Base 4:15.08.0
 _ZNK4Kleo16KeyFilterManager12toModelIndexERKN5boost10shared_ptrINS_9KeyFilterEEE@Base 4:15.08.0
 _ZNK4Kleo16KeyFilterManager13keyFilterByIDERK7QString@Base 4:15.08.0
 _ZNK4Kleo16KeyFilterManager14filterMatchingERKN5GpgME3KeyE6QFlagsINS_9KeyFilter12MatchContextEE@Base 4:15.08.0
 _ZNK4Kleo16KeyFilterManager14fromModelIndexERK11QModelIndex@Base 4:15.08.0
 _ZNK4Kleo16KeyFilterManager15filtersMatchingERKN5GpgME3KeyE6QFlagsINS_9KeyFilter12MatchContextEE@Base 4:15.08.0
 _ZNK4Kleo16KeyFilterManager4fontERKN5GpgME3KeyERK5QFont@Base 4:15.08.0
 _ZNK4Kleo16KeyFilterManager4iconERKN5GpgME3KeyE@Base 4:15.08.0
 _ZNK4Kleo16KeyFilterManager5modelEv@Base 4:15.08.0
 _ZNK4Kleo16KeyFilterManager7bgColorERKN5GpgME3KeyE@Base 4:15.08.0
 _ZNK4Kleo16KeyFilterManager7fgColorERKN5GpgME3KeyE@Base 4:15.08.0
 _ZNK4Kleo17DNAttributeMapper10name2labelERK7QString@Base 4:15.08.0
 _ZNK4Kleo17DNAttributeMapper12configWidgetEP7QWidget@Base 4:15.08.0
 _ZNK4Kleo17DNAttributeMapper14attributeOrderEv@Base 4:15.08.0
 _ZNK4Kleo17DNAttributeMapper5namesEv@Base 4:15.08.0
 _ZNK4Kleo17FileNameRequester10metaObjectEv@Base 4:15.08.0
 _ZNK4Kleo17FileNameRequester10nameFilterEv@Base 4:15.08.0
 _ZNK4Kleo17FileNameRequester12existingOnlyEv@Base 4:15.08.0
 _ZNK4Kleo17FileNameRequester6filterEv@Base 4:15.08.0
 _ZNK4Kleo17FileNameRequester8fileNameEv@Base 4:15.08.0
 _ZNK4Kleo17KeyApprovalDialog10metaObjectEv@Base 4:15.08.0
 _ZNK4Kleo17KeyApprovalDialog10senderKeysEv@Base 4:15.08.0
 _ZNK4Kleo17KeyApprovalDialog18preferencesChangedEv@Base 4:15.08.0
 _ZNK4Kleo17KeyApprovalDialog5itemsEv@Base 4:15.08.0
 _ZNK4Kleo18ChecksumDefinition13createCommandEv@Base 4:15.08.0
 _ZNK4Kleo18ChecksumDefinition13verifyCommandEv@Base 4:15.08.0
 _ZNK4Kleo18ChecksumDefinition18startCreateCommandEP8QProcessRK11QStringList@Base 4:15.08.0
 _ZNK4Kleo18ChecksumDefinition18startVerifyCommandEP8QProcessRK11QStringList@Base 4:15.08.0
 _ZNK4Kleo18CryptoConfigDialog10metaObjectEv@Base 4:15.08.0
 _ZNK4Kleo18CryptoConfigModule10metaObjectEv@Base 4:15.08.0
 _ZNK4Kleo18CryptoConfigModule8hasErrorEv@Base 4:15.08.0
 _ZNK4Kleo18KeySelectionDialog10metaObjectEv@Base 4:15.08.0
 _ZNK4Kleo18KeySelectionDialog11fingerprintEv@Base 4:15.08.0
 _ZNK4Kleo18KeySelectionDialog11selectedKeyEv@Base 4:15.08.0
 _ZNK4Kleo18KeySelectionDialog12fingerprintsEv@Base 4:15.08.0
 _ZNK4Kleo18KeySelectionDialog17rememberSelectionEv@Base 4:15.08.0
 _ZNK4Kleo18KeySelectionDialog17smimeFingerprintsEv@Base 4:15.08.0
 _ZNK4Kleo18KeySelectionDialog18pgpKeyFingerprintsEv@Base 4:15.08.0
 _ZNK4Kleo19ChangeOwnerTrustJob10metaObjectEv@Base 4:15.08.0
 _ZNK4Kleo19SigningKeyRequester10metaObjectEv@Base 4:15.08.0
 _ZNK4Kleo20CryptoBackendFactory10metaObjectEv@Base 4:15.08.0
 _ZNK4Kleo20CryptoBackendFactory11hasBackendsEv@Base 4:15.08.0
 _ZNK4Kleo20CryptoBackendFactory12configObjectEv@Base 4:15.08.0
 _ZNK4Kleo20CryptoBackendFactory13backendByNameERK7QString@Base 4:15.08.0
 _ZNK4Kleo20CryptoBackendFactory18enumerateProtocolsEi@Base 4:15.08.0
 _ZNK4Kleo20CryptoBackendFactory18knowsAboutProtocolEPKc@Base 4:15.08.0
 _ZNK4Kleo20CryptoBackendFactory5smimeEv@Base 4:15.08.0
 _ZNK4Kleo20CryptoBackendFactory6configEv@Base 4:15.08.0
 _ZNK4Kleo20CryptoBackendFactory7backendEj@Base 4:15.08.0
 _ZNK4Kleo20CryptoBackendFactory7openpgpEv@Base 4:15.08.0
 _ZNK4Kleo20CryptoBackendFactory8protocolEN5GpgME8ProtocolE@Base 4:15.08.0
 _ZNK4Kleo20CryptoBackendFactory8protocolEPKc@Base 4:15.08.0
 _ZNK4Kleo22EncryptionKeyRequester10metaObjectEv@Base 4:15.08.0
 _ZNK4Kleo22HierarchicalKeyListJob10metaObjectEv@Base 4:15.08.0
 _ZNK4Kleo23DirectoryServicesWidget10metaObjectEv@Base 4:15.08.0
 _ZNK4Kleo23DirectoryServicesWidget12x509ServicesEv@Base 4:15.08.0
 _ZNK4Kleo23DirectoryServicesWidget14allowedSchemesEv@Base 4:15.08.0
 _ZNK4Kleo23DirectoryServicesWidget15openPGPServicesEv@Base 4:15.08.0
 _ZNK4Kleo23DirectoryServicesWidget16allowedProtocolsEv@Base 4:15.08.0
 _ZNK4Kleo23DirectoryServicesWidget17readOnlyProtocolsEv@Base 4:15.08.0
 _ZNK4Kleo28DNAttributeOrderConfigWidget10metaObjectEv@Base 4:15.08.0
 _ZNK4Kleo28DNAttributeOrderConfigWidget4saveEv@Base 4:15.08.0
 _ZNK4Kleo2DN2dnERK7QString@Base 4:15.08.0
 _ZNK4Kleo2DN2dnEv@Base 4:15.08.0
 _ZNK4Kleo2DN3endEv@Base 4:15.08.0
 _ZNK4Kleo2DN5beginEv@Base 4:15.08.0
 _ZNK4Kleo2DN8prettyDNEv@Base 4:15.08.0
 _ZNK4Kleo2DNixERK7QString@Base 4:15.08.0
 _ZNK4Kleo3Job10metaObjectEv@Base 4:15.08.0
 _ZNK4Kleo3Job13auditLogErrorEv@Base 4:15.08.0
 _ZNK4Kleo3Job14auditLogAsHtmlEv@Base 4:15.08.0
 _ZNK4Kleo3Job15showErrorDialogEP7QWidgetRK7QString@Base 4:15.08.0
 _ZNK4Kleo3Job19isAuditLogSupportedEv@Base 4:15.08.0
 _ZNK4Kleo7SignJob10metaObjectEv@Base 4:15.08.0
 _ZNK6QColor7isValidEv@Base 4:15.08.0
 (optional=templinst)_ZNSt6vectorIN4Kleo17KeyApprovalDialog4ItemESaIS2_EE19_M_emplace_back_auxIIS2_EEEvDpOT_@Base 4:15.08.0
 (optional=templinst)_ZNSt6vectorIN4Kleo17KeyApprovalDialog4ItemESaIS2_EE19_M_emplace_back_auxIJS2_EEEvDpOT_@Base 4:15.08.0
 (optional=templinst)_ZNSt6vectorIN4Kleo17KeyApprovalDialog4ItemESaIS2_EE7reserveEm@Base 4:15.08.0
 (optional=templinst)_ZNSt6vectorIN4Kleo17KeyApprovalDialog4ItemESaIS2_EED1Ev@Base 4:15.08.0
 (optional=templinst)_ZNSt6vectorIN4Kleo17KeyApprovalDialog4ItemESaIS2_EED2Ev@Base 4:15.08.0
 (optional=templinst)_ZNSt6vectorIN5GpgME13Configuration9ComponentESaIS2_EED1Ev@Base 4:15.08.0
 (optional=templinst)_ZNSt6vectorIN5GpgME13Configuration9ComponentESaIS2_EED2Ev@Base 4:15.08.0
 (optional=templinst)_ZNSt6vectorIN5GpgME3KeyESaIS1_EE19_M_emplace_back_auxIIS1_EEEvDpOT_@Base 4:15.08.0
 (optional=templinst)_ZNSt6vectorIN5GpgME3KeyESaIS1_EE19_M_emplace_back_auxIJS1_EEEvDpOT_@Base 4:15.08.0
 (optional=templinst)_ZNSt6vectorIN5GpgME3KeyESaIS1_EEC1ERKS3_@Base 4:15.08.0
 (optional=templinst)_ZNSt6vectorIN5GpgME3KeyESaIS1_EEC2ERKS3_@Base 4:15.08.0
 (optional=templinst)_ZNSt6vectorIN5GpgME6SubkeyESaIS1_EED1Ev@Base 4:15.08.0
 (optional=templinst)_ZNSt6vectorIN5GpgME6SubkeyESaIS1_EED2Ev@Base 4:15.08.0
 (optional=templinst)_ZNSt6vectorIN5GpgME6UserIDESaIS1_EED1Ev@Base 4:15.08.0
 (optional=templinst)_ZNSt6vectorIN5GpgME6UserIDESaIS1_EED2Ev@Base 4:15.08.0
 (optional=templinst)_ZNSt6vectorINSt7__cxx1112basic_stringIcSt11char_traitsIcESaIcEEESaIS5_EE12emplace_backIIS5_EEEvDpOT_@Base 4:15.08.0
 (optional=templinst)_ZNSt6vectorINSt7__cxx1112basic_stringIcSt11char_traitsIcESaIcEEESaIS5_EE12emplace_backIJS5_EEEvDpOT_@Base 4:15.08.0
 (optional=templinst)_ZNSt6vectorINSt7__cxx1112basic_stringIcSt11char_traitsIcESaIcEEESaIS5_EE19_M_emplace_back_auxIIS5_EEEvDpOT_@Base 4:15.08.0
 (optional=templinst)_ZNSt6vectorINSt7__cxx1112basic_stringIcSt11char_traitsIcESaIcEEESaIS5_EE19_M_emplace_back_auxIJS5_EEEvDpOT_@Base 4:15.08.0
 (optional=templinst)_ZNSt6vectorINSt7__cxx1112basic_stringIcSt11char_traitsIcESaIcEEESaIS5_EE7reserveEm@Base 4:15.08.0
 (optional=templinst)_ZNSt6vectorINSt7__cxx1112basic_stringIcSt11char_traitsIcESaIcEEESaIS5_EED1Ev@Base 4:15.08.0
 (optional=templinst)_ZNSt6vectorINSt7__cxx1112basic_stringIcSt11char_traitsIcESaIcEEESaIS5_EED2Ev@Base 4:15.08.0
 (optional=templinst)_ZNSt6vectorIP9QComboBoxSaIS1_EE19_M_emplace_back_auxIIRKS1_EEEvDpOT_@Base 4:15.08.0
 (optional=templinst)_ZNSt6vectorIP9QComboBoxSaIS1_EE19_M_emplace_back_auxIJRKS1_EEEvDpOT_@Base 4:15.08.0
 (optional=templinst)_ZNSt6vectorIPN4Kleo12KeyRequesterESaIS2_EE19_M_emplace_back_auxIIRKS2_EEEvDpOT_@Base 4:15.08.0
 (optional=templinst)_ZNSt6vectorIPN4Kleo12KeyRequesterESaIS2_EE19_M_emplace_back_auxIJRKS2_EEEvDpOT_@Base 4:15.08.0
 (optional=templinst)_ZNSt6vectorIjSaIjEEaSERKS1_@Base 4:15.08.0
 (optional=templinst)_ZNSt8_Rb_treeI10QByteArraySt4pairIKS0_PN4Kleo15KeyListViewItemEESt10_Select1stIS6_ESt4lessIS0_ESaIS6_EE16_M_insert_uniqueIS1_IS0_S5_EEES1_ISt17_Rb_tree_iteratorIS6_EbEOT_@Base 4:15.08.0
 (optional=templinst)_ZNSt8_Rb_treeI10QByteArraySt4pairIKS0_PN4Kleo15KeyListViewItemEESt10_Select1stIS6_ESt4lessIS0_ESaIS6_EE4findERS2_@Base 4:15.08.0
 (optional=templinst)_ZNSt8_Rb_treeI10QByteArraySt4pairIKS0_PN4Kleo15KeyListViewItemEESt10_Select1stIS6_ESt4lessIS0_ESaIS6_EE8_M_eraseEPSt13_Rb_tree_nodeIS6_E@Base 4:15.08.0
 (optional=templinst)_ZNSt8_Rb_treeI7QStringS0_St9_IdentityIS0_ESt4lessIS0_ESaIS0_EE16_M_insert_uniqueIS0_EESt4pairISt17_Rb_tree_iteratorIS0_EbEOT_@Base 4:15.08.0
 (optional=templinst)_ZNSt8_Rb_treeI7QStringS0_St9_IdentityIS0_ESt4lessIS0_ESaIS0_EE17_M_insert_unique_IRKS0_NS6_11_Alloc_nodeEEESt17_Rb_tree_iteratorIS0_ESt23_Rb_tree_const_iteratorIS0_EOT_RT0_@Base 4:15.08.0
 (optional=templinst)_ZNSt8_Rb_treeI7QStringS0_St9_IdentityIS0_ESt4lessIS0_ESaIS0_EE24_M_get_insert_unique_posERKS0_@Base 4:15.08.0
 (optional=templinst)_ZNSt8_Rb_treeI7QStringS0_St9_IdentityIS0_ESt4lessIS0_ESaIS0_EE29_M_get_insert_hint_unique_posESt23_Rb_tree_const_iteratorIS0_ERKS0_@Base 4:15.08.0
 (optional=templinst)_ZNSt8_Rb_treeI7QStringS0_St9_IdentityIS0_ESt4lessIS0_ESaIS0_EE8_M_eraseEPSt13_Rb_tree_nodeIS0_E@Base 4:15.08.0
 _ZTI16KDHorizontalLine@Base 4:15.08.0
 _ZTI18QGpgMECryptoConfig@Base 4:15.08.0
 _ZTI21QGpgMENewCryptoConfig@Base 4:15.08.0
 _ZTIN4Kleo10DecryptJobE@Base 4:15.08.0
 _ZTIN4Kleo10EncryptJobE@Base 4:15.08.0
 _ZTIN4Kleo10SignKeyJobE@Base 4:15.08.0
 _ZTIN4Kleo11DownloadJobE@Base 4:15.08.0
 _ZTIN4Kleo11KeyListView14ColumnStrategyE@Base 4:15.08.0
 _ZTIN4Kleo11KeyListView15DisplayStrategyE@Base 4:15.08.0
 _ZTIN4Kleo11KeyListViewE@Base 4:15.08.0
 _ZTIN4Kleo11ProgressBarE@Base 4:15.08.0
 _ZTIN4Kleo12AddUserIDJobE@Base 4:15.08.0
 _ZTIN4Kleo12KeyRequesterE@Base 4:15.08.0
 _ZTIN4Kleo14MultiDeleteJobE@Base 4:15.08.0
 _ZTIN4Kleo14ProgressDialogE@Base 4:15.08.0
 _ZTIN4Kleo15ChangeExpiryJobE@Base 4:15.08.0
 _ZTIN4Kleo15ChangePasswdJobE@Base 4:15.08.0
 _ZTIN4Kleo15KeyListViewItemE@Base 4:15.08.0
 _ZTIN4Kleo15VerifyOpaqueJobE@Base 4:15.08.0
 _ZTIN4Kleo16DecryptVerifyJobE@Base 4:15.08.0
 _ZTIN4Kleo16GnuPGProcessBaseE@Base 4:15.08.0
 _ZTIN4Kleo16KeyFilterManagerE@Base 4:15.08.0
 _ZTIN4Kleo17FileNameRequesterE@Base 4:15.08.0
 _ZTIN4Kleo17KeyApprovalDialogE@Base 4:15.08.0
 _ZTIN4Kleo18ChecksumDefinitionE@Base 4:15.08.0
 _ZTIN4Kleo18CryptoConfigDialogE@Base 4:15.08.0
 _ZTIN4Kleo18CryptoConfigModuleE@Base 4:15.08.0
 _ZTIN4Kleo18KeySelectionDialogE@Base 4:15.08.0
 _ZTIN4Kleo19ChangeOwnerTrustJobE@Base 4:15.08.0
 _ZTIN4Kleo19SigningKeyRequesterE@Base 4:15.08.0
 _ZTIN4Kleo20CryptoBackendFactoryE@Base 4:15.08.0
 _ZTIN4Kleo22EncryptionKeyRequesterE@Base 4:15.08.0
 _ZTIN4Kleo22HierarchicalKeyListJobE@Base 4:15.08.0
 _ZTIN4Kleo23DirectoryServicesWidgetE@Base 4:15.08.0
 _ZTIN4Kleo28DNAttributeOrderConfigWidgetE@Base 4:15.08.0
 _ZTIN4Kleo3JobE@Base 4:15.08.0
 _ZTIN4Kleo7SignJobE@Base 4:15.08.0
 _ZTIN4Kleo9ExceptionE@Base 4:15.08.0
 _ZTIN5boost16exception_detail10clone_baseE@Base 4:15.08.0
 _ZTIN5boost9exceptionE@Base 4:15.08.0
 _ZTS16KDHorizontalLine@Base 4:15.08.0
 _ZTS18QGpgMECryptoConfig@Base 4:15.08.0
 _ZTS21QGpgMENewCryptoConfig@Base 4:15.08.0
 _ZTSN4Kleo10DecryptJobE@Base 4:15.08.0
 _ZTSN4Kleo10EncryptJobE@Base 4:15.08.0
 _ZTSN4Kleo10SignKeyJobE@Base 4:15.08.0
 _ZTSN4Kleo11DownloadJobE@Base 4:15.08.0
 _ZTSN4Kleo11KeyListView14ColumnStrategyE@Base 4:15.08.0
 _ZTSN4Kleo11KeyListView15DisplayStrategyE@Base 4:15.08.0
 _ZTSN4Kleo11KeyListViewE@Base 4:15.08.0
 _ZTSN4Kleo11ProgressBarE@Base 4:15.08.0
 _ZTSN4Kleo12AddUserIDJobE@Base 4:15.08.0
 _ZTSN4Kleo12KeyRequesterE@Base 4:15.08.0
 _ZTSN4Kleo14MultiDeleteJobE@Base 4:15.08.0
 _ZTSN4Kleo14ProgressDialogE@Base 4:15.08.0
 _ZTSN4Kleo15ChangeExpiryJobE@Base 4:15.08.0
 _ZTSN4Kleo15ChangePasswdJobE@Base 4:15.08.0
 _ZTSN4Kleo15KeyListViewItemE@Base 4:15.08.0
 _ZTSN4Kleo15VerifyOpaqueJobE@Base 4:15.08.0
 _ZTSN4Kleo16DecryptVerifyJobE@Base 4:15.08.0
 _ZTSN4Kleo16GnuPGProcessBaseE@Base 4:15.08.0
 _ZTSN4Kleo16KeyFilterManagerE@Base 4:15.08.0
 _ZTSN4Kleo17FileNameRequesterE@Base 4:15.08.0
 _ZTSN4Kleo17KeyApprovalDialogE@Base 4:15.08.0
 _ZTSN4Kleo18ChecksumDefinitionE@Base 4:15.08.0
 _ZTSN4Kleo18CryptoConfigDialogE@Base 4:15.08.0
 _ZTSN4Kleo18CryptoConfigModuleE@Base 4:15.08.0
 _ZTSN4Kleo18KeySelectionDialogE@Base 4:15.08.0
 _ZTSN4Kleo19ChangeOwnerTrustJobE@Base 4:15.08.0
 _ZTSN4Kleo19SigningKeyRequesterE@Base 4:15.08.0
 _ZTSN4Kleo20CryptoBackendFactoryE@Base 4:15.08.0
 _ZTSN4Kleo22EncryptionKeyRequesterE@Base 4:15.08.0
 _ZTSN4Kleo22HierarchicalKeyListJobE@Base 4:15.08.0
 _ZTSN4Kleo23DirectoryServicesWidgetE@Base 4:15.08.0
 _ZTSN4Kleo28DNAttributeOrderConfigWidgetE@Base 4:15.08.0
 _ZTSN4Kleo3JobE@Base 4:15.08.0
 _ZTSN4Kleo7SignJobE@Base 4:15.08.0
 _ZTSN4Kleo9ExceptionE@Base 4:15.08.0
 _ZTSN5boost16exception_detail10clone_baseE@Base 4:15.08.0
 _ZTSN5boost9exceptionE@Base 4:15.08.0
 _ZTV16KDHorizontalLine@Base 4:15.08.0
 _ZTV18QGpgMECryptoConfig@Base 4:15.08.0
 _ZTV21QGpgMENewCryptoConfig@Base 4:15.08.0
 _ZTVN4Kleo10DecryptJobE@Base 4:15.08.0
 _ZTVN4Kleo10EncryptJobE@Base 4:15.08.0
 _ZTVN4Kleo10SignKeyJobE@Base 4:15.08.0
 _ZTVN4Kleo11DownloadJobE@Base 4:15.08.0
 _ZTVN4Kleo11KeyListView14ColumnStrategyE@Base 4:15.08.0
 _ZTVN4Kleo11KeyListView15DisplayStrategyE@Base 4:15.08.0
 _ZTVN4Kleo11KeyListViewE@Base 4:15.08.0
 _ZTVN4Kleo11ProgressBarE@Base 4:15.08.0
 _ZTVN4Kleo12AddUserIDJobE@Base 4:15.08.0
 _ZTVN4Kleo12KeyRequesterE@Base 4:15.08.0
 _ZTVN4Kleo14MultiDeleteJobE@Base 4:15.08.0
 _ZTVN4Kleo14ProgressDialogE@Base 4:15.08.0
 _ZTVN4Kleo15ChangeExpiryJobE@Base 4:15.08.0
 _ZTVN4Kleo15ChangePasswdJobE@Base 4:15.08.0
 _ZTVN4Kleo15KeyListViewItemE@Base 4:15.08.0
 _ZTVN4Kleo15VerifyOpaqueJobE@Base 4:15.08.0
 _ZTVN4Kleo16DecryptVerifyJobE@Base 4:15.08.0
 _ZTVN4Kleo16GnuPGProcessBaseE@Base 4:15.08.0
 _ZTVN4Kleo16KeyFilterManagerE@Base 4:15.08.0
 _ZTVN4Kleo17FileNameRequesterE@Base 4:15.08.0
 _ZTVN4Kleo17KeyApprovalDialogE@Base 4:15.08.0
 _ZTVN4Kleo18ChecksumDefinitionE@Base 4:15.08.0
 _ZTVN4Kleo18CryptoConfigDialogE@Base 4:15.08.0
 _ZTVN4Kleo18CryptoConfigModuleE@Base 4:15.08.0
 _ZTVN4Kleo18KeySelectionDialogE@Base 4:15.08.0
 _ZTVN4Kleo19ChangeOwnerTrustJobE@Base 4:15.08.0
 _ZTVN4Kleo19SigningKeyRequesterE@Base 4:15.08.0
 _ZTVN4Kleo20CryptoBackendFactoryE@Base 4:15.08.0
 _ZTVN4Kleo22EncryptionKeyRequesterE@Base 4:15.08.0
 _ZTVN4Kleo22HierarchicalKeyListJobE@Base 4:15.08.0
 _ZTVN4Kleo23DirectoryServicesWidgetE@Base 4:15.08.0
 _ZTVN4Kleo28DNAttributeOrderConfigWidgetE@Base 4:15.08.0
 _ZTVN4Kleo3JobE@Base 4:15.08.0
 _ZTVN4Kleo7SignJobE@Base 4:15.08.0
 _ZTVN4Kleo9ExceptionE@Base 4:15.08.0
 _ZTVN5boost16exception_detail10clone_baseE@Base 4:15.08.0
 _ZTVN5boost9exceptionE@Base 4:15.08.0
 _ZZZN4Kleo23DirectoryServicesWidget7Private2UIC4EPS0_ENKUlvE0_clEvE15qstring_literal@Base 4:15.08.0
 _ZZZN4Kleo23DirectoryServicesWidget7Private2UIC4EPS0_ENKUlvE1_clEvE15qstring_literal@Base 4:15.08.0
 _ZZZN4Kleo23DirectoryServicesWidget7Private2UIC4EPS0_ENKUlvE_clEvE15qstring_literal@Base 4:15.08.0
 kleo_chiasmus_config_entries@Base 4:15.08.0
 kleo_chiasmus_config_entries_dim@Base 4:15.08.0
 (c++)"non-virtual thunk to KDHorizontalLine::~KDHorizontalLine()@Base" 4:15.08.0
 (c++)"non-virtual thunk to Kleo::DNAttributeOrderConfigWidget::~DNAttributeOrderConfigWidget()@Base" 4:15.08.0
 (c++)"non-virtual thunk to Kleo::DirectoryServicesWidget::~DirectoryServicesWidget()@Base" 4:15.08.0
 (c++)"non-virtual thunk to Kleo::EncryptionKeyRequester::~EncryptionKeyRequester()@Base" 4:15.08.0
 (c++)"non-virtual thunk to Kleo::FileNameRequester::~FileNameRequester()@Base" 4:15.08.0
 (c++)"non-virtual thunk to Kleo::KeyApprovalDialog::~KeyApprovalDialog()@Base" 4:15.08.0
 (c++)"non-virtual thunk to Kleo::KeyListView::~KeyListView()@Base" 4:15.08.0
 (c++)"non-virtual thunk to Kleo::KeyRequester::~KeyRequester()@Base" 4:15.08.0
 (c++)"non-virtual thunk to Kleo::KeySelectionDialog::~KeySelectionDialog()@Base" 4:15.08.0
 (c++)"non-virtual thunk to Kleo::ProgressDialog::~ProgressDialog()@Base" 4:15.08.0
 (c++)"non-virtual thunk to Kleo::SigningKeyRequester::~SigningKeyRequester()@Base" 4:15.08.0
 (c++)"non-virtual thunk to QGpgMECryptoConfig::clear()@Base" 4:15.08.0
 (c++)"non-virtual thunk to QGpgMECryptoConfig::component(QString const&) const@Base" 4:15.08.0
 (c++)"non-virtual thunk to QGpgMECryptoConfig::componentList() const@Base" 4:15.08.0
 (c++)"non-virtual thunk to QGpgMECryptoConfig::sync(bool)@Base" 4:15.08.0
 (c++)"non-virtual thunk to QGpgMECryptoConfig::~QGpgMECryptoConfig()@Base" 4:15.08.0
