# SymbolsHelper-Confirmed: 4:15.08.0 amd64
libgrantleetheme.so.5 libkdepim5 #MINVER#
 _ZN13GrantleeTheme16GrantleeSettings4selfEv@Base 4:15.08.0
 _ZN13GrantleeTheme16GrantleeSettingsC1Ev@Base 4:15.08.0
 _ZN13GrantleeTheme16GrantleeSettingsC2Ev@Base 4:15.08.0
 _ZN13GrantleeTheme16GrantleeSettingsD0Ev@Base 4:15.08.0
 _ZN13GrantleeTheme16GrantleeSettingsD1Ev@Base 4:15.08.0
 _ZN13GrantleeTheme16GrantleeSettingsD2Ev@Base 4:15.08.0
 _ZN13GrantleeTheme20GrantleeThemeManager11qt_metacallEN11QMetaObject4CallEiPPv@Base 4:15.08.0
 _ZN13GrantleeTheme20GrantleeThemeManager11qt_metacastEPKc@Base 4:15.08.0
 _ZN13GrantleeTheme20GrantleeThemeManager12setThemeMenuEP11KActionMenu@Base 4:15.08.0
 _ZN13GrantleeTheme20GrantleeThemeManager12updateThemesEv@Base 4:15.08.0
 _ZN13GrantleeTheme20GrantleeThemeManager13themesChangedEv@Base 4:15.08.0
 _ZN13GrantleeTheme20GrantleeThemeManager14actionForThemeEv@Base 4:15.08.0
 _ZN13GrantleeTheme20GrantleeThemeManager14pathFromThemesERK7QStringS3_S3_@Base 4:15.08.0
 _ZN13GrantleeTheme20GrantleeThemeManager14setActionGroupEP12QActionGroup@Base 4:15.08.0
 _ZN13GrantleeTheme20GrantleeThemeManager16staticMetaObjectE@Base 4:15.08.0
 _ZN13GrantleeTheme20GrantleeThemeManager21grantleeThemeSelectedEv@Base 4:15.08.0
 _ZN13GrantleeTheme20GrantleeThemeManager29setDownloadNewStuffConfigFileERK7QString@Base 4:15.08.0
 _ZN13GrantleeTheme20GrantleeThemeManager5themeERK7QString@Base 4:15.08.0
 _ZN13GrantleeTheme20GrantleeThemeManager9loadThemeERK7QStringS3_S3_@Base 4:15.08.0
 _ZN13GrantleeTheme20GrantleeThemeManagerC1ENS0_11ApplicationERK7QStringP17KActionCollectionS4_P7QObject@Base 4:15.08.0
 _ZN13GrantleeTheme20GrantleeThemeManagerC2ENS0_11ApplicationERK7QStringP17KActionCollectionS4_P7QObject@Base 4:15.08.0
 _ZN13GrantleeTheme20GrantleeThemeManagerD0Ev@Base 4:15.08.0
 _ZN13GrantleeTheme20GrantleeThemeManagerD1Ev@Base 4:15.08.0
 _ZN13GrantleeTheme20GrantleeThemeManagerD2Ev@Base 4:15.08.0
 _ZN13GrantleeTheme5Theme10setDirNameERK7QString@Base 4:15.08.0
 _ZN13GrantleeTheme5Theme14setAuthorEmailERK7QString@Base 4:15.08.0
 _ZN13GrantleeTheme5Theme14setDescriptionERK7QString@Base 4:15.08.0
 _ZN13GrantleeTheme5Theme15setAbsolutePathERK7QString@Base 4:15.08.0
 _ZN13GrantleeTheme5Theme16setThemeFilenameERK7QString@Base 4:15.08.0
 _ZN13GrantleeTheme5Theme24setDisplayExtraVariablesERK11QStringList@Base 4:15.08.0
 _ZN13GrantleeTheme5Theme7setNameERK7QString@Base 4:15.08.0
 _ZN13GrantleeTheme5Theme9setAuthorERK7QString@Base 4:15.08.0
 _ZN13GrantleeTheme5ThemeC1ERK7QStringS3_S3_@Base 4:15.08.0
 _ZN13GrantleeTheme5ThemeC1Ev@Base 4:15.08.0
 _ZN13GrantleeTheme5ThemeC2ERK7QStringS3_S3_@Base 4:15.08.0
 _ZN13GrantleeTheme5ThemeC2Ev@Base 4:15.08.0
 _ZN13GrantleeTheme5ThemeD1Ev@Base 4:15.08.0
 _ZN13GrantleeTheme5ThemeD2Ev@Base 4:15.08.0
 _ZNK13GrantleeTheme20GrantleeThemeManager10metaObjectEv@Base 4:15.08.0
 _ZNK13GrantleeTheme20GrantleeThemeManager21displayExtraVariablesERK7QString@Base 4:15.08.0
 _ZNK13GrantleeTheme20GrantleeThemeManager6themesEv@Base 4:15.08.0
 _ZNK13GrantleeTheme5Theme11authorEmailEv@Base 4:15.08.0
 _ZNK13GrantleeTheme5Theme11descriptionEv@Base 4:15.08.0
 _ZNK13GrantleeTheme5Theme12absolutePathEv@Base 4:15.08.0
 _ZNK13GrantleeTheme5Theme13themeFilenameEv@Base 4:15.08.0
 _ZNK13GrantleeTheme5Theme21displayExtraVariablesEv@Base 4:15.08.0
 _ZNK13GrantleeTheme5Theme4nameEv@Base 4:15.08.0
 _ZNK13GrantleeTheme5Theme6authorEv@Base 4:15.08.0
 _ZNK13GrantleeTheme5Theme7dirNameEv@Base 4:15.08.0
 _ZNK13GrantleeTheme5Theme7isValidEv@Base 4:15.08.0
 _ZTIN13GrantleeTheme16GrantleeSettingsE@Base 4:15.08.0
 _ZTIN13GrantleeTheme20GrantleeThemeManagerE@Base 4:15.08.0
 _ZTSN13GrantleeTheme16GrantleeSettingsE@Base 4:15.08.0
 _ZTSN13GrantleeTheme20GrantleeThemeManagerE@Base 4:15.08.0
 _ZTVN13GrantleeTheme16GrantleeSettingsE@Base 4:15.08.0
 _ZTVN13GrantleeTheme20GrantleeThemeManagerE@Base 4:15.08.0
 _ZZZN13GrantleeTheme20GrantleeThemeManager7PrivateC4ENS0_11ApplicationERK7QStringP17KActionCollectionS5_PS0_ENKUlvE0_clEvE15qstring_literal@Base 4:15.08.0
 _ZZZN13GrantleeTheme20GrantleeThemeManager7PrivateC4ENS0_11ApplicationERK7QStringP17KActionCollectionS5_PS0_ENKUlvE_clEvE15qstring_literal@Base 4:15.08.0
libgrantleethemeeditor.so.5 libkdepim5 #MINVER#
 _ZN19GrantleeThemeEditor10EditorPage10insertFileERK7QString@Base 4:15.08.0
 _ZN19GrantleeThemeEditor10EditorPage11qt_metacallEN11QMetaObject4CallEiPPv@Base 4:15.08.0
 _ZN19GrantleeThemeEditor10EditorPage11qt_metacastEPKc@Base 4:15.08.0
 _ZN19GrantleeThemeEditor10EditorPage12installThemeERK7QString@Base 4:15.08.0
 _ZN19GrantleeThemeEditor10EditorPage14saveAsFilenameERK7QString@Base 4:15.08.0
 _ZN19GrantleeThemeEditor10EditorPage15setPageFileNameERK7QString@Base 4:15.08.0
 _ZN19GrantleeThemeEditor10EditorPage16needUpdateViewerEv@Base 4:15.08.0
 _ZN19GrantleeThemeEditor10EditorPage16staticMetaObjectE@Base 4:15.08.0
 _ZN19GrantleeThemeEditor10EditorPage7changedEv@Base 4:15.08.0
 _ZN19GrantleeThemeEditor10EditorPage9createZipERK7QStringP4KZip@Base 4:15.08.0
 _ZN19GrantleeThemeEditor10EditorPage9loadThemeERK7QString@Base 4:15.08.0
 _ZN19GrantleeThemeEditor10EditorPage9saveThemeERK7QString@Base 4:15.08.0
 _ZN19GrantleeThemeEditor10EditorPageC1ENS0_8PageTypeEP7QWidget@Base 4:15.08.0
 _ZN19GrantleeThemeEditor10EditorPageC2ENS0_8PageTypeEP7QWidget@Base 4:15.08.0
 _ZN19GrantleeThemeEditor10EditorPageD0Ev@Base 4:15.08.0
 _ZN19GrantleeThemeEditor10EditorPageD1Ev@Base 4:15.08.0
 _ZN19GrantleeThemeEditor10EditorPageD2Ev@Base 4:15.08.0
 _ZN19GrantleeThemeEditor12EditorWidget10insertFileERK7QString@Base 4:15.08.0
 _ZN19GrantleeThemeEditor12EditorWidget11qt_metacallEN11QMetaObject4CallEiPPv@Base 4:15.08.0
 _ZN19GrantleeThemeEditor12EditorWidget11qt_metacastEPKc@Base 4:15.08.0
 _ZN19GrantleeThemeEditor12EditorWidget12setPlainTextERK7QString@Base 4:15.08.0
 _ZN19GrantleeThemeEditor12EditorWidget16staticMetaObjectE@Base 4:15.08.0
 _ZN19GrantleeThemeEditor12EditorWidget19createCompleterListERK11QStringList@Base 4:15.08.0
 _ZN19GrantleeThemeEditor12EditorWidget5clearEv@Base 4:15.08.0
 _ZN19GrantleeThemeEditor12EditorWidgetC1EP7QWidget@Base 4:15.08.0
 _ZN19GrantleeThemeEditor12EditorWidgetC2EP7QWidget@Base 4:15.08.0
 _ZN19GrantleeThemeEditor12EditorWidgetD0Ev@Base 4:15.08.0
 _ZN19GrantleeThemeEditor12EditorWidgetD1Ev@Base 4:15.08.0
 _ZN19GrantleeThemeEditor12EditorWidgetD2Ev@Base 4:15.08.0
 _ZN19GrantleeThemeEditor12ManageThemes10initializeEv@Base 4:15.08.0
 _ZN19GrantleeThemeEditor12ManageThemes10readConfigEv@Base 4:15.08.0
 _ZN19GrantleeThemeEditor12ManageThemes11qt_metacallEN11QMetaObject4CallEiPPv@Base 4:15.08.0
 _ZN19GrantleeThemeEditor12ManageThemes11qt_metacastEPKc@Base 4:15.08.0
 _ZN19GrantleeThemeEditor12ManageThemes11writeConfigEv@Base 4:15.08.0
 _ZN19GrantleeThemeEditor12ManageThemes15slotDeleteThemeEv@Base 4:15.08.0
 _ZN19GrantleeThemeEditor12ManageThemes16staticMetaObjectE@Base 4:15.08.0
 _ZN19GrantleeThemeEditor12ManageThemes24slotItemSelectionChangedEv@Base 4:15.08.0
 _ZN19GrantleeThemeEditor12ManageThemesC1ERK7QStringP7QWidget@Base 4:15.08.0
 _ZN19GrantleeThemeEditor12ManageThemesC2ERK7QStringP7QWidget@Base 4:15.08.0
 _ZN19GrantleeThemeEditor12ManageThemesD0Ev@Base 4:15.08.0
 _ZN19GrantleeThemeEditor12ManageThemesD1Ev@Base 4:15.08.0
 _ZN19GrantleeThemeEditor12ManageThemesD2Ev@Base 4:15.08.0
 _ZN19GrantleeThemeEditor12ThemeSession11loadSessionERK7QString@Base 4:15.08.0
 _ZN19GrantleeThemeEditor12ThemeSession12addExtraPageERK7QString@Base 4:15.08.0
 _ZN19GrantleeThemeEditor12ThemeSession12writeSessionERK7QString@Base 4:15.08.0
 _ZN19GrantleeThemeEditor12ThemeSession19setMainPageFileNameERK7QString@Base 4:15.08.0
 _ZN19GrantleeThemeEditor12ThemeSessionC1ERK7QStringS3_@Base 4:15.08.0
 _ZN19GrantleeThemeEditor12ThemeSessionC2ERK7QStringS3_@Base 4:15.08.0
 _ZN19GrantleeThemeEditor12ThemeSessionD1Ev@Base 4:15.08.0
 _ZN19GrantleeThemeEditor12ThemeSessionD2Ev@Base 4:15.08.0
 _ZN19GrantleeThemeEditor13PreviewWidget10loadConfigEv@Base 4:15.08.0
 _ZN19GrantleeThemeEditor13PreviewWidget11qt_metacallEN11QMetaObject4CallEiPPv@Base 4:15.08.0
 _ZN19GrantleeThemeEditor13PreviewWidget11qt_metacastEPKc@Base 4:15.08.0
 _ZN19GrantleeThemeEditor13PreviewWidget11setPrintingEb@Base 4:15.08.0
 _ZN19GrantleeThemeEditor13PreviewWidget12setThemePathERK7QStringS3_@Base 4:15.08.0
 _ZN19GrantleeThemeEditor13PreviewWidget12updateViewerEv@Base 4:15.08.0
 _ZN19GrantleeThemeEditor13PreviewWidget16createScreenShotERK11QStringList@Base 4:15.08.0
 _ZN19GrantleeThemeEditor13PreviewWidget16needUpdateViewerEv@Base 4:15.08.0
 _ZN19GrantleeThemeEditor13PreviewWidget16staticMetaObjectE@Base 4:15.08.0
 _ZN19GrantleeThemeEditor13PreviewWidget23slotMainFileNameChangedERK7QString@Base 4:15.08.0
 _ZN19GrantleeThemeEditor13PreviewWidget29slotExtraHeaderDisplayChangedERK11QStringList@Base 4:15.08.0
 _ZN19GrantleeThemeEditor13PreviewWidgetC1EP7QWidget@Base 4:15.08.0
 _ZN19GrantleeThemeEditor13PreviewWidgetC2EP7QWidget@Base 4:15.08.0
 _ZN19GrantleeThemeEditor13PreviewWidgetD0Ev@Base 4:15.08.0
 _ZN19GrantleeThemeEditor13PreviewWidgetD1Ev@Base 4:15.08.0
 _ZN19GrantleeThemeEditor13PreviewWidgetD2Ev@Base 4:15.08.0
 _ZN19GrantleeThemeEditor14NewThemeDialog10readConfigEv@Base 4:15.08.0
 _ZN19GrantleeThemeEditor14NewThemeDialog11qt_metacallEN11QMetaObject4CallEiPPv@Base 4:15.08.0
 _ZN19GrantleeThemeEditor14NewThemeDialog11qt_metacastEPKc@Base 4:15.08.0
 _ZN19GrantleeThemeEditor14NewThemeDialog16staticMetaObjectE@Base 4:15.08.0
 _ZN19GrantleeThemeEditor14NewThemeDialog18slotUpdateOkButtonEv@Base 4:15.08.0
 _ZN19GrantleeThemeEditor14NewThemeDialogC1EP7QWidget@Base 4:15.08.0
 _ZN19GrantleeThemeEditor14NewThemeDialogC2EP7QWidget@Base 4:15.08.0
 _ZN19GrantleeThemeEditor14NewThemeDialogD0Ev@Base 4:15.08.0
 _ZN19GrantleeThemeEditor14NewThemeDialogD1Ev@Base 4:15.08.0
 _ZN19GrantleeThemeEditor14NewThemeDialogD2Ev@Base 4:15.08.0
 _ZN19GrantleeThemeEditor15ConfigureWidget10readConfigEv@Base 4:15.08.0
 _ZN19GrantleeThemeEditor15ConfigureWidget10setDefaultEv@Base 4:15.08.0
 _ZN19GrantleeThemeEditor15ConfigureWidget11qt_metacallEN11QMetaObject4CallEiPPv@Base 4:15.08.0
 _ZN19GrantleeThemeEditor15ConfigureWidget11qt_metacastEPKc@Base 4:15.08.0
 _ZN19GrantleeThemeEditor15ConfigureWidget11writeConfigEv@Base 4:15.08.0
 _ZN19GrantleeThemeEditor15ConfigureWidget16staticMetaObjectE@Base 4:15.08.0
 _ZN19GrantleeThemeEditor15ConfigureWidgetC1EP7QWidget@Base 4:15.08.0
 _ZN19GrantleeThemeEditor15ConfigureWidgetC2EP7QWidget@Base 4:15.08.0
 _ZN19GrantleeThemeEditor15ConfigureWidgetD0Ev@Base 4:15.08.0
 _ZN19GrantleeThemeEditor15ConfigureWidgetD1Ev@Base 4:15.08.0
 _ZN19GrantleeThemeEditor15ConfigureWidgetD2Ev@Base 4:15.08.0
 _ZN19GrantleeThemeEditor15DesktopFilePage11qt_metacallEN11QMetaObject4CallEiPPv@Base 4:15.08.0
 _ZN19GrantleeThemeEditor15DesktopFilePage11qt_metacastEPKc@Base 4:15.08.0
 _ZN19GrantleeThemeEditor15DesktopFilePage12installThemeERK7QString@Base 4:15.08.0
 _ZN19GrantleeThemeEditor15DesktopFilePage12setThemeNameERK7QString@Base 4:15.08.0
 _ZN19GrantleeThemeEditor15DesktopFilePage14saveAsFilenameERK7QString@Base 4:15.08.0
 _ZN19GrantleeThemeEditor15DesktopFilePage16staticMetaObjectE@Base 4:15.08.0
 _ZN19GrantleeThemeEditor15DesktopFilePage19mainFileNameChangedERK7QString@Base 4:15.08.0
 _ZN19GrantleeThemeEditor15DesktopFilePage19slotFileNameChangedERK7QString@Base 4:15.08.0
 _ZN19GrantleeThemeEditor15DesktopFilePage21setDefaultDesktopNameERK7QString@Base 4:15.08.0
 _ZN19GrantleeThemeEditor15DesktopFilePage25extraDisplayHeaderChangedERK11QStringList@Base 4:15.08.0
 _ZN19GrantleeThemeEditor15DesktopFilePage30slotExtraDisplayHeadersChangedEv@Base 4:15.08.0
 _ZN19GrantleeThemeEditor15DesktopFilePage7changedEv@Base 4:15.08.0
 _ZN19GrantleeThemeEditor15DesktopFilePage9createZipERK7QStringP4KZip@Base 4:15.08.0
 _ZN19GrantleeThemeEditor15DesktopFilePage9loadThemeERK7QString@Base 4:15.08.0
 _ZN19GrantleeThemeEditor15DesktopFilePage9saveThemeERK7QString@Base 4:15.08.0
 _ZN19GrantleeThemeEditor15DesktopFilePageC1ERK7QString6QFlagsINS0_17DesktopFileOptionEEP7QWidget@Base 4:15.08.0
 _ZN19GrantleeThemeEditor15DesktopFilePageC2ERK7QString6QFlagsINS0_17DesktopFileOptionEEP7QWidget@Base 4:15.08.0
 _ZN19GrantleeThemeEditor15DesktopFilePageD0Ev@Base 4:15.08.0
 _ZN19GrantleeThemeEditor15DesktopFilePageD1Ev@Base 4:15.08.0
 _ZN19GrantleeThemeEditor15DesktopFilePageD2Ev@Base 4:15.08.0
 _ZN19GrantleeThemeEditor20ThemeEditorTabWidget11qt_metacallEN11QMetaObject4CallEiPPv@Base 4:15.08.0
 _ZN19GrantleeThemeEditor20ThemeEditorTabWidget11qt_metacastEPKc@Base 4:15.08.0
 _ZN19GrantleeThemeEditor20ThemeEditorTabWidget16staticMetaObjectE@Base 4:15.08.0
 _ZN19GrantleeThemeEditor20ThemeEditorTabWidget23slotMainFileNameChangedERK7QString@Base 4:15.08.0
 _ZN19GrantleeThemeEditor20ThemeEditorTabWidget25slotTabContextMenuRequestERK6QPoint@Base 4:15.08.0
 _ZN19GrantleeThemeEditor20ThemeEditorTabWidgetC1EP7QWidget@Base 4:15.08.0
 _ZN19GrantleeThemeEditor20ThemeEditorTabWidgetC2EP7QWidget@Base 4:15.08.0
 _ZN19GrantleeThemeEditor20ThemeEditorTabWidgetD0Ev@Base 4:15.08.0
 _ZN19GrantleeThemeEditor20ThemeEditorTabWidgetD1Ev@Base 4:15.08.0
 _ZN19GrantleeThemeEditor20ThemeEditorTabWidgetD2Ev@Base 4:15.08.0
 _ZN19GrantleeThemeEditor27GrantleeThemeEditorSettings4selfEv@Base 4:15.08.0
 _ZN19GrantleeThemeEditor27GrantleeThemeEditorSettingsC1Ev@Base 4:15.08.0
 _ZN19GrantleeThemeEditor27GrantleeThemeEditorSettingsC2Ev@Base 4:15.08.0
 _ZN19GrantleeThemeEditor27GrantleeThemeEditorSettingsD0Ev@Base 4:15.08.0
 _ZN19GrantleeThemeEditor27GrantleeThemeEditorSettingsD1Ev@Base 4:15.08.0
 _ZN19GrantleeThemeEditor27GrantleeThemeEditorSettingsD2Ev@Base 4:15.08.0
 (optional=templinst)_ZNK12KConfigGroup9readEntryI5QSizeEET_PKcRKS2_@Base 4:15.08.0
 (optional=templinst)_ZNK12KConfigGroup9readEntryIiEET_PKcRKS1_@Base 4:15.08.0
 _ZNK19GrantleeThemeEditor10EditorPage10metaObjectEv@Base 4:15.08.0
 _ZNK19GrantleeThemeEditor10EditorPage12pageFileNameEv@Base 4:15.08.0
 _ZNK19GrantleeThemeEditor10EditorPage6editorEv@Base 4:15.08.0
 _ZNK19GrantleeThemeEditor10EditorPage8pageTypeEv@Base 4:15.08.0
 _ZNK19GrantleeThemeEditor12EditorWidget10metaObjectEv@Base 4:15.08.0
 _ZNK19GrantleeThemeEditor12EditorWidget11toPlainTextEv@Base 4:15.08.0
 _ZNK19GrantleeThemeEditor12ManageThemes10metaObjectEv@Base 4:15.08.0
 _ZNK19GrantleeThemeEditor12ThemeSession10extraPagesEv@Base 4:15.08.0
 _ZNK19GrantleeThemeEditor12ThemeSession16mainPageFileNameEv@Base 4:15.08.0
 _ZNK19GrantleeThemeEditor12ThemeSession16projectDirectoryEv@Base 4:15.08.0
 _ZNK19GrantleeThemeEditor13PreviewWidget10metaObjectEv@Base 4:15.08.0
 _ZNK19GrantleeThemeEditor13PreviewWidget8printingEv@Base 4:15.08.0
 _ZNK19GrantleeThemeEditor14NewThemeDialog10metaObjectEv@Base 4:15.08.0
 _ZNK19GrantleeThemeEditor14NewThemeDialog9directoryEv@Base 4:15.08.0
 _ZNK19GrantleeThemeEditor14NewThemeDialog9themeNameEv@Base 4:15.08.0
 _ZNK19GrantleeThemeEditor15ConfigureWidget10metaObjectEv@Base 4:15.08.0
 _ZNK19GrantleeThemeEditor15DesktopFilePage10metaObjectEv@Base 4:15.08.0
 _ZNK19GrantleeThemeEditor15DesktopFilePage11descriptionEv@Base 4:15.08.0
 _ZNK19GrantleeThemeEditor15DesktopFilePage8filenameEv@Base 4:15.08.0
 _ZNK19GrantleeThemeEditor15DesktopFilePage9themeNameEv@Base 4:15.08.0
 _ZNK19GrantleeThemeEditor20ThemeEditorTabWidget10metaObjectEv@Base 4:15.08.0
 _ZTIN19GrantleeThemeEditor10EditorPageE@Base 4:15.08.0
 _ZTIN19GrantleeThemeEditor12EditorWidgetE@Base 4:15.08.0
 _ZTIN19GrantleeThemeEditor12ManageThemesE@Base 4:15.08.0
 _ZTIN19GrantleeThemeEditor13PreviewWidgetE@Base 4:15.08.0
 _ZTIN19GrantleeThemeEditor14NewThemeDialogE@Base 4:15.08.0
 _ZTIN19GrantleeThemeEditor15ConfigureWidgetE@Base 4:15.08.0
 _ZTIN19GrantleeThemeEditor15DesktopFilePageE@Base 4:15.08.0
 _ZTIN19GrantleeThemeEditor20ThemeEditorTabWidgetE@Base 4:15.08.0
 _ZTIN19GrantleeThemeEditor27GrantleeThemeEditorSettingsE@Base 4:15.08.0
 _ZTSN19GrantleeThemeEditor10EditorPageE@Base 4:15.08.0
 _ZTSN19GrantleeThemeEditor12EditorWidgetE@Base 4:15.08.0
 _ZTSN19GrantleeThemeEditor12ManageThemesE@Base 4:15.08.0
 _ZTSN19GrantleeThemeEditor13PreviewWidgetE@Base 4:15.08.0
 _ZTSN19GrantleeThemeEditor14NewThemeDialogE@Base 4:15.08.0
 _ZTSN19GrantleeThemeEditor15ConfigureWidgetE@Base 4:15.08.0
 _ZTSN19GrantleeThemeEditor15DesktopFilePageE@Base 4:15.08.0
 _ZTSN19GrantleeThemeEditor20ThemeEditorTabWidgetE@Base 4:15.08.0
 _ZTSN19GrantleeThemeEditor27GrantleeThemeEditorSettingsE@Base 4:15.08.0
 _ZTVN19GrantleeThemeEditor10EditorPageE@Base 4:15.08.0
 _ZTVN19GrantleeThemeEditor12EditorWidgetE@Base 4:15.08.0
 _ZTVN19GrantleeThemeEditor12ManageThemesE@Base 4:15.08.0
 _ZTVN19GrantleeThemeEditor13PreviewWidgetE@Base 4:15.08.0
 _ZTVN19GrantleeThemeEditor14NewThemeDialogE@Base 4:15.08.0
 _ZTVN19GrantleeThemeEditor15ConfigureWidgetE@Base 4:15.08.0
 _ZTVN19GrantleeThemeEditor15DesktopFilePageE@Base 4:15.08.0
 _ZTVN19GrantleeThemeEditor20ThemeEditorTabWidgetE@Base 4:15.08.0
 _ZTVN19GrantleeThemeEditor27GrantleeThemeEditorSettingsE@Base 4:15.08.0
 (c++)"non-virtual thunk to GrantleeThemeEditor::ConfigureWidget::~ConfigureWidget()@Base" 4:15.08.0
 (c++)"non-virtual thunk to GrantleeThemeEditor::DesktopFilePage::~DesktopFilePage()@Base" 4:15.08.0
 (c++)"non-virtual thunk to GrantleeThemeEditor::EditorPage::~EditorPage()@Base" 4:15.08.0
 (c++)"non-virtual thunk to GrantleeThemeEditor::EditorWidget::~EditorWidget()@Base" 4:15.08.0
 (c++)"non-virtual thunk to GrantleeThemeEditor::ManageThemes::~ManageThemes()@Base" 4:15.08.0
 (c++)"non-virtual thunk to GrantleeThemeEditor::NewThemeDialog::~NewThemeDialog()@Base" 4:15.08.0
 (c++)"non-virtual thunk to GrantleeThemeEditor::PreviewWidget::~PreviewWidget()@Base" 4:15.08.0
 (c++)"non-virtual thunk to GrantleeThemeEditor::ThemeEditorTabWidget::~ThemeEditorTabWidget()@Base" 4:15.08.0
libkaddressbookgrantlee.so.5 libkdepim5 #MINVER#
 _ZN20GrantleeContactUtils12variableI18nERK7QString@Base 4:15.08.0
 _ZN20GrantleeContactUtils28insertVariableToQVariantHashER5QHashI7QString8QVariantERKS1_@Base 4:15.08.0
 _ZN20GrantleeContactUtilsC1Ev@Base 4:15.08.0
 _ZN20GrantleeContactUtilsC2Ev@Base 4:15.08.0
 _ZN20KAddressBookGrantlee13GrantleePrint10setContentERK7QString@Base 4:15.08.0
 _ZN20KAddressBookGrantlee13GrantleePrint11qt_metacallEN11QMetaObject4CallEiPPv@Base 4:15.08.0
 _ZN20KAddressBookGrantlee13GrantleePrint11qt_metacastEPKc@Base 4:15.08.0
 _ZN20KAddressBookGrantlee13GrantleePrint14contactsToHtmlERKN9KContacts13AddresseeListE@Base 4:15.08.0
 _ZN20KAddressBookGrantlee13GrantleePrint15refreshTemplateEv@Base 4:15.08.0
 _ZN20KAddressBookGrantlee13GrantleePrint16staticMetaObjectE@Base 4:15.08.0
 _ZN20KAddressBookGrantlee13GrantleePrint18changeGrantleePathERK7QString@Base 4:15.08.0
 _ZN20KAddressBookGrantlee13GrantleePrintC1EP7QObject@Base 4:15.08.0
 _ZN20KAddressBookGrantlee13GrantleePrintC1ERK7QStringP7QObject@Base 4:15.08.0
 _ZN20KAddressBookGrantlee13GrantleePrintC2EP7QObject@Base 4:15.08.0
 _ZN20KAddressBookGrantlee13GrantleePrintC2ERK7QStringP7QObject@Base 4:15.08.0
 _ZN20KAddressBookGrantlee13GrantleePrintD0Ev@Base 4:15.08.0
 _ZN20KAddressBookGrantlee13GrantleePrintD1Ev@Base 4:15.08.0
 _ZN20KAddressBookGrantlee13GrantleePrintD2Ev@Base 4:15.08.0
 _ZN20KAddressBookGrantlee21GrantleeContactViewer11qt_metacallEN11QMetaObject4CallEiPPv@Base 4:15.08.0
 _ZN20KAddressBookGrantlee21GrantleeContactViewer11qt_metacastEPKc@Base 4:15.08.0
 _ZN20KAddressBookGrantlee21GrantleeContactViewer16staticMetaObjectE@Base 4:15.08.0
 _ZN20KAddressBookGrantlee21GrantleeContactViewer21setForceDisableQRCodeEb@Base 4:15.08.0
 _ZN20KAddressBookGrantlee21GrantleeContactViewer29kaddressBookAbsoluteThemePathEv@Base 4:15.08.0
 _ZN20KAddressBookGrantlee21GrantleeContactViewerC1EP7QWidget@Base 4:15.08.0
 _ZN20KAddressBookGrantlee21GrantleeContactViewerC2EP7QWidget@Base 4:15.08.0
 _ZN20KAddressBookGrantlee21GrantleeContactViewerD0Ev@Base 4:15.08.0
 _ZN20KAddressBookGrantlee21GrantleeContactViewerD1Ev@Base 4:15.08.0
 _ZN20KAddressBookGrantlee21GrantleeContactViewerD2Ev@Base 4:15.08.0
 _ZN20KAddressBookGrantlee24GrantleeContactFormatter16setGrantleeThemeERKN13GrantleeTheme5ThemeE@Base 4:15.08.0
 _ZN20KAddressBookGrantlee24GrantleeContactFormatter20setAbsoluteThemePathERK7QString@Base 4:15.08.0
 _ZN20KAddressBookGrantlee24GrantleeContactFormatter21setForceDisableQRCodeEb@Base 4:15.08.0
 _ZN20KAddressBookGrantlee24GrantleeContactFormatterC1Ev@Base 4:15.08.0
 _ZN20KAddressBookGrantlee24GrantleeContactFormatterC2Ev@Base 4:15.08.0
 _ZN20KAddressBookGrantlee24GrantleeContactFormatterD0Ev@Base 4:15.08.0
 _ZN20KAddressBookGrantlee24GrantleeContactFormatterD1Ev@Base 4:15.08.0
 _ZN20KAddressBookGrantlee24GrantleeContactFormatterD2Ev@Base 4:15.08.0
 _ZN20KAddressBookGrantlee29GrantleeContactGroupFormatter16setGrantleeThemeERKN13GrantleeTheme5ThemeE@Base 4:15.08.0
 _ZN20KAddressBookGrantlee29GrantleeContactGroupFormatter20setAbsoluteThemePathERK7QString@Base 4:15.08.0
 _ZN20KAddressBookGrantlee29GrantleeContactGroupFormatterC1Ev@Base 4:15.08.0
 _ZN20KAddressBookGrantlee29GrantleeContactGroupFormatterC2Ev@Base 4:15.08.0
 _ZN20KAddressBookGrantlee29GrantleeContactGroupFormatterD0Ev@Base 4:15.08.0
 _ZN20KAddressBookGrantlee29GrantleeContactGroupFormatterD1Ev@Base 4:15.08.0
 _ZN20KAddressBookGrantlee29GrantleeContactGroupFormatterD2Ev@Base 4:15.08.0
 (optional=templinst|arch=!amd64)_ZNK12KConfigGroup9readEntryIbEET_PKcRKS1_@Base 4:15.08.0
 _ZNK20KAddressBookGrantlee13GrantleePrint10metaObjectEv@Base 4:15.08.0
 _ZNK20KAddressBookGrantlee21GrantleeContactViewer10metaObjectEv@Base 4:15.08.0
 _ZNK20KAddressBookGrantlee24GrantleeContactFormatter18forceDisableQRCodeEv@Base 4:15.08.0
 _ZNK20KAddressBookGrantlee24GrantleeContactFormatter6toHtmlEN7Akonadi24AbstractContactFormatter8HtmlFormE@Base 4:15.08.0
 _ZNK20KAddressBookGrantlee29GrantleeContactGroupFormatter6toHtmlEN7Akonadi29AbstractContactGroupFormatter8HtmlFormE@Base 4:15.08.0
 (optional=templinst)_ZNK7Akonadi4Item10hasPayloadIN9KContacts12ContactGroupEEEbv@Base 4:15.08.0
 (optional=templinst)_ZNK7Akonadi4Item10hasPayloadIN9KContacts9AddresseeEEEbv@Base 4:15.08.0
 (optional=templinst)_ZNK7Akonadi4Item11payloadImplIN9KContacts12ContactGroupEEENSt9enable_ifIXntsrNS_8Internal12PayloadTraitIT_EE13isPolymorphicES7_E4typeEv@Base 4:15.08.0
 (optional=templinst)_ZNK7Akonadi4Item11payloadImplIN9KContacts9AddresseeEEENSt9enable_ifIXntsrNS_8Internal12PayloadTraitIT_EE13isPolymorphicES7_E4typeEv@Base 4:15.08.0
 (optional=templinst|arch=!amd64)_ZNK7Akonadi4Item7payloadIN9KContacts9AddresseeEEET_v@Base 4:15.08.0
 _ZTIN20KAddressBookGrantlee13GrantleePrintE@Base 4:15.08.0
 _ZTIN20KAddressBookGrantlee21GrantleeContactViewerE@Base 4:15.08.0
 _ZTIN20KAddressBookGrantlee24GrantleeContactFormatterE@Base 4:15.08.0
 _ZTIN20KAddressBookGrantlee29GrantleeContactGroupFormatterE@Base 4:15.08.0
 _ZTSN20KAddressBookGrantlee13GrantleePrintE@Base 4:15.08.0
 _ZTSN20KAddressBookGrantlee21GrantleeContactViewerE@Base 4:15.08.0
 _ZTSN20KAddressBookGrantlee24GrantleeContactFormatterE@Base 4:15.08.0
 _ZTSN20KAddressBookGrantlee29GrantleeContactGroupFormatterE@Base 4:15.08.0
 _ZTVN20KAddressBookGrantlee13GrantleePrintE@Base 4:15.08.0
 _ZTVN20KAddressBookGrantlee21GrantleeContactViewerE@Base 4:15.08.0
 _ZTVN20KAddressBookGrantlee24GrantleeContactFormatterE@Base 4:15.08.0
 _ZTVN20KAddressBookGrantlee29GrantleeContactGroupFormatterE@Base 4:15.08.0
 _ZZZN20KAddressBookGrantlee24GrantleeContactFormatter7Private18changeGrantleePathERK7QStringENKUlvE0_clEvE15qstring_literal@Base 4:15.08.0
 _ZZZN20KAddressBookGrantlee24GrantleeContactFormatter7Private18changeGrantleePathERK7QStringENKUlvE1_clEvE15qstring_literal@Base 4:15.08.0
 _ZZZN20KAddressBookGrantlee24GrantleeContactFormatter7Private18changeGrantleePathERK7QStringENKUlvE2_clEvE15qstring_literal@Base 4:15.08.0
 _ZZZN20KAddressBookGrantlee24GrantleeContactFormatter7Private18changeGrantleePathERK7QStringENKUlvE_clEvE15qstring_literal@Base 4:15.08.0
 _ZZZN20KAddressBookGrantlee29GrantleeContactGroupFormatter7Private18changeGrantleePathERK7QStringENKUlvE0_clEvE15qstring_literal@Base 4:15.08.0
 _ZZZN20KAddressBookGrantlee29GrantleeContactGroupFormatter7Private18changeGrantleePathERK7QStringENKUlvE1_clEvE15qstring_literal@Base 4:15.08.0
 _ZZZN20KAddressBookGrantlee29GrantleeContactGroupFormatter7Private18changeGrantleePathERK7QStringENKUlvE2_clEvE15qstring_literal@Base 4:15.08.0
 _ZZZN20KAddressBookGrantlee29GrantleeContactGroupFormatter7Private18changeGrantleePathERK7QStringENKUlvE_clEvE15qstring_literal@Base 4:15.08.0
 (c++)"non-virtual thunk to KAddressBookGrantlee::GrantleeContactViewer::~GrantleeContactViewer()@Base" 4:15.08.0
libkdepim.so.5 libkdepim5 #MINVER#
 (optional=templinst)_ZN12KConfigGroup10writeEntryIiEEvPKcRK5QListIT_E6QFlagsIN11KConfigBase15WriteConfigFlagEE@Base 4:15.08.0
 _ZN13AddHostDialog10readConfigEv@Base 4:15.08.0
 _ZN13AddHostDialog11qt_metacallEN11QMetaObject4CallEiPPv@Base 4:15.08.0
 _ZN13AddHostDialog11qt_metacastEPKc@Base 4:15.08.0
 _ZN13AddHostDialog11writeConfigEv@Base 4:15.08.0
 _ZN13AddHostDialog16staticMetaObjectE@Base 4:15.08.0
 _ZN13AddHostDialog19slotHostEditChangedERK7QString@Base 4:15.08.0
 _ZN13AddHostDialog6slotOkEv@Base 4:15.08.0
 _ZN13AddHostDialog7changedEb@Base 4:15.08.0
 _ZN13AddHostDialogC1EPN5KLDAP10LdapServerEP7QWidget@Base 4:15.08.0
 _ZN13AddHostDialogC2EPN5KLDAP10LdapServerEP7QWidget@Base 4:15.08.0
 _ZN13AddHostDialogD0Ev@Base 4:15.08.0
 _ZN13AddHostDialogD1Ev@Base 4:15.08.0
 _ZN13AddHostDialogD2Ev@Base 4:15.08.0
 _ZN13PIMMessageBox13fourBtnMsgBoxEP7QWidgetN11QMessageBox4IconERK7QStringS6_S6_S6_S6_6QFlagsIN11KMessageBox6OptionEE@Base 4:15.08.0
 _ZN4KPIM11MailSummary3setEjRK7QStringS3_S3_S3_l@Base 4:15.08.0
 _ZN4KPIM11MailSummaryC1EjRK7QStringS3_S3_S3_l@Base 4:15.08.0
 _ZN4KPIM11MailSummaryC2EjRK7QStringS3_S3_S3_l@Base 4:15.08.0
 _ZN4KPIM12FreeBusyItem11setFreeBusyERK14QSharedPointerIN8KCalCore8FreeBusyEE@Base 4:15.08.0
 _ZN4KPIM12FreeBusyItem13startDownloadEb@Base 4:15.08.0
 _ZN4KPIM12FreeBusyItem16setIsDownloadingEb@Base 4:15.08.0
 _ZN4KPIM12FreeBusyItem16setUpdateTimerIDEi@Base 4:15.08.0
 _ZN4KPIM12FreeBusyItemC1ERK14QSharedPointerIN8KCalCore8AttendeeEEP7QWidget@Base 4:15.08.0
 _ZN4KPIM12FreeBusyItemC2ERK14QSharedPointerIN8KCalCore8AttendeeEEP7QWidget@Base 4:15.08.0
 _ZN4KPIM12KPrefsDialog10autoCreateEv@Base 4:15.08.0
 _ZN4KPIM12KPrefsDialog10readConfigEv@Base 4:15.08.0
 _ZN4KPIM12KPrefsDialog11qt_metacallEN11QMetaObject4CallEiPPv@Base 4:15.08.0
 _ZN4KPIM12KPrefsDialog11qt_metacastEPKc@Base 4:15.08.0
 _ZN4KPIM12KPrefsDialog11setDefaultsEv@Base 4:15.08.0
 _ZN4KPIM12KPrefsDialog11slotDefaultEv@Base 4:15.08.0
 _ZN4KPIM12KPrefsDialog11writeConfigEv@Base 4:15.08.0
 _ZN4KPIM12KPrefsDialog13configChangedEv@Base 4:15.08.0
 _ZN4KPIM12KPrefsDialog16staticMetaObjectE@Base 4:15.08.0
 _ZN4KPIM12KPrefsDialog6slotOkEv@Base 4:15.08.0
 _ZN4KPIM12KPrefsDialog9slotApplyEv@Base 4:15.08.0
 _ZN4KPIM12KPrefsDialogC1EP15KConfigSkeletonP7QWidgetb@Base 4:15.08.0
 _ZN4KPIM12KPrefsDialogC2EP15KConfigSkeletonP7QWidgetb@Base 4:15.08.0
 _ZN4KPIM12KPrefsDialogD0Ev@Base 4:15.08.0
 _ZN4KPIM12KPrefsDialogD1Ev@Base 4:15.08.0
 _ZN4KPIM12KPrefsDialogD2Ev@Base 4:15.08.0
 _ZN4KPIM12KPrefsModule11qt_metacallEN11QMetaObject4CallEiPPv@Base 4:15.08.0
 _ZN4KPIM12KPrefsModule11qt_metacastEPKc@Base 4:15.08.0
 _ZN4KPIM12KPrefsModule14slotWidChangedEv@Base 4:15.08.0
 _ZN4KPIM12KPrefsModule16staticMetaObjectE@Base 4:15.08.0
 _ZN4KPIM12KPrefsModule4loadEv@Base 4:15.08.0
 _ZN4KPIM12KPrefsModule4saveEv@Base 4:15.08.0
 _ZN4KPIM12KPrefsModule6addWidEPNS_9KPrefsWidE@Base 4:15.08.0
 _ZN4KPIM12KPrefsModule8defaultsEv@Base 4:15.08.0
 _ZN4KPIM12KPrefsModuleC1EP15KConfigSkeletonP7QWidgetRK5QListI8QVariantE@Base 4:15.08.0
 _ZN4KPIM12KPrefsModuleC2EP15KConfigSkeletonP7QWidgetRK5QListI8QVariantE@Base 4:15.08.0
 _ZN4KPIM12KPrefsWidInt10readConfigEv@Base 4:15.08.0
 _ZN4KPIM12KPrefsWidInt11writeConfigEv@Base 4:15.08.0
 _ZN4KPIM12KPrefsWidInt7spinBoxEv@Base 4:15.08.0
 _ZN4KPIM12KPrefsWidIntC1EPN19KCoreConfigSkeleton7ItemIntEP7QWidget@Base 4:15.08.0
 _ZN4KPIM12KPrefsWidIntC2EPN19KCoreConfigSkeleton7ItemIntEP7QWidget@Base 4:15.08.0
 _ZN4KPIM12ProgressItem11qt_metacallEN11QMetaObject4CallEiPPv@Base 4:15.08.0
 _ZN4KPIM12ProgressItem11qt_metacastEPKc@Base 4:15.08.0
 _ZN4KPIM12ProgressItem11removeChildEPS0_@Base 4:15.08.0
 _ZN4KPIM12ProgressItem11setCompleteEv@Base 4:15.08.0
 _ZN4KPIM12ProgressItem11setProgressEj@Base 4:15.08.0
 _ZN4KPIM12ProgressItem14updateProgressEv@Base 4:15.08.0
 _ZN4KPIM12ProgressItem15setCryptoStatusENS0_12CryptoStatusE@Base 4:15.08.0
 _ZN4KPIM12ProgressItem16setCanBeCanceledEb@Base 4:15.08.0
 _ZN4KPIM12ProgressItem16staticMetaObjectE@Base 4:15.08.0
 _ZN4KPIM12ProgressItem17progressItemAddedEPS0_@Base 4:15.08.0
 _ZN4KPIM12ProgressItem17progressItemLabelEPS0_RK7QString@Base 4:15.08.0
 _ZN4KPIM12ProgressItem18progressItemStatusEPS0_RK7QString@Base 4:15.08.0
 _ZN4KPIM12ProgressItem19setTypeProgressItemEj@Base 4:15.08.0
 _ZN4KPIM12ProgressItem20progressItemCanceledEPS0_@Base 4:15.08.0
 _ZN4KPIM12ProgressItem20progressItemProgressEPS0_j@Base 4:15.08.0
 _ZN4KPIM12ProgressItem20setUsesBusyIndicatorEb@Base 4:15.08.0
 _ZN4KPIM12ProgressItem21progressItemCompletedEPS0_@Base 4:15.08.0
 _ZN4KPIM12ProgressItem24progressItemCryptoStatusEPS0_NS0_12CryptoStatusE@Base 4:15.08.0
 _ZN4KPIM12ProgressItem29progressItemUsesBusyIndicatorEPS0_b@Base 4:15.08.0
 _ZN4KPIM12ProgressItem5resetEv@Base 4:15.08.0
 _ZN4KPIM12ProgressItem6cancelEv@Base 4:15.08.0
 _ZN4KPIM12ProgressItem8addChildEPS0_@Base 4:15.08.0
 _ZN4KPIM12ProgressItem8setLabelERK7QString@Base 4:15.08.0
 _ZN4KPIM12ProgressItem9setStatusERK7QString@Base 4:15.08.0
 _ZN4KPIM12ProgressItemC1EPS0_RK7QStringS4_S4_bNS0_12CryptoStatusE@Base 4:15.08.0
 _ZN4KPIM12ProgressItemC2EPS0_RK7QStringS4_S4_bNS0_12CryptoStatusE@Base 4:15.08.0
 _ZN4KPIM12ProgressItemD0Ev@Base 4:15.08.0
 _ZN4KPIM12ProgressItemD1Ev@Base 4:15.08.0
 _ZN4KPIM12ProgressItemD2Ev@Base 4:15.08.0
 _ZN4KPIM12UiStateSaver12restoreStateEP7QWidgetRK12KConfigGroup@Base 4:15.08.0
 _ZN4KPIM12UiStateSaver9saveStateEP7QWidgetR12KConfigGroup@Base 4:15.08.0
 _ZN4KPIM13AddContactJob11qt_metacallEN11QMetaObject4CallEiPPv@Base 4:15.08.0
 _ZN4KPIM13AddContactJob11qt_metacastEPKc@Base 4:15.08.0
 _ZN4KPIM13AddContactJob14showMessageBoxEb@Base 4:15.08.0
 _ZN4KPIM13AddContactJob16staticMetaObjectE@Base 4:15.08.0
 _ZN4KPIM13AddContactJob5startEv@Base 4:15.08.0
 _ZN4KPIM13AddContactJobC1ERKN9KContacts9AddresseeEP7QWidgetP7QObject@Base 4:15.08.0
 _ZN4KPIM13AddContactJobC1ERKN9KContacts9AddresseeERKN7Akonadi10CollectionEP7QObject@Base 4:15.08.0
 _ZN4KPIM13AddContactJobC2ERKN9KContacts9AddresseeEP7QWidgetP7QObject@Base 4:15.08.0
 _ZN4KPIM13AddContactJobC2ERKN9KContacts9AddresseeERKN7Akonadi10CollectionEP7QObject@Base 4:15.08.0
 _ZN4KPIM13AddContactJobD0Ev@Base 4:15.08.0
 _ZN4KPIM13AddContactJobD1Ev@Base 4:15.08.0
 _ZN4KPIM13AddContactJobD2Ev@Base 4:15.08.0
 _ZN4KPIM13KPrefsWidBool10readConfigEv@Base 4:15.08.0
 _ZN4KPIM13KPrefsWidBool11writeConfigEv@Base 4:15.08.0
 _ZN4KPIM13KPrefsWidBool8checkBoxEv@Base 4:15.08.0
 _ZN4KPIM13KPrefsWidBoolC1EPN19KCoreConfigSkeleton8ItemBoolEP7QWidget@Base 4:15.08.0
 _ZN4KPIM13KPrefsWidBoolC2EPN19KCoreConfigSkeleton8ItemBoolEP7QWidget@Base 4:15.08.0
 _ZN4KPIM13KPrefsWidDate10readConfigEv@Base 4:15.08.0
 _ZN4KPIM13KPrefsWidDate11writeConfigEv@Base 4:15.08.0
 _ZN4KPIM13KPrefsWidDate5labelEv@Base 4:15.08.0
 _ZN4KPIM13KPrefsWidDate8dateEditEv@Base 4:15.08.0
 _ZN4KPIM13KPrefsWidDateC1EPN19KCoreConfigSkeleton12ItemDateTimeEP7QWidget@Base 4:15.08.0
 _ZN4KPIM13KPrefsWidDateC2EPN19KCoreConfigSkeleton12ItemDateTimeEP7QWidget@Base 4:15.08.0
 _ZN4KPIM13KPrefsWidFont10readConfigEv@Base 4:15.08.0
 _ZN4KPIM13KPrefsWidFont10selectFontEv@Base 4:15.08.0
 _ZN4KPIM13KPrefsWidFont11qt_metacallEN11QMetaObject4CallEiPPv@Base 4:15.08.0
 _ZN4KPIM13KPrefsWidFont11qt_metacastEPKc@Base 4:15.08.0
 _ZN4KPIM13KPrefsWidFont11writeConfigEv@Base 4:15.08.0
 _ZN4KPIM13KPrefsWidFont16staticMetaObjectE@Base 4:15.08.0
 _ZN4KPIM13KPrefsWidFont5labelEv@Base 4:15.08.0
 _ZN4KPIM13KPrefsWidFont6buttonEv@Base 4:15.08.0
 _ZN4KPIM13KPrefsWidFont7previewEv@Base 4:15.08.0
 _ZN4KPIM13KPrefsWidFontC1EPN15KConfigSkeleton8ItemFontEP7QWidgetRK7QString@Base 4:15.08.0
 _ZN4KPIM13KPrefsWidFontC2EPN15KConfigSkeleton8ItemFontEP7QWidgetRK7QString@Base 4:15.08.0
 _ZN4KPIM13KPrefsWidFontD0Ev@Base 4:15.08.0
 _ZN4KPIM13KPrefsWidFontD1Ev@Base 4:15.08.0
 _ZN4KPIM13KPrefsWidFontD2Ev@Base 4:15.08.0
 _ZN4KPIM13KPrefsWidPath10readConfigEv@Base 4:15.08.0
 _ZN4KPIM13KPrefsWidPath11writeConfigEv@Base 4:15.08.0
 _ZN4KPIM13KPrefsWidPath12urlRequesterEv@Base 4:15.08.0
 _ZN4KPIM13KPrefsWidPath5labelEv@Base 4:15.08.0
 _ZN4KPIM13KPrefsWidPathC1EPN19KCoreConfigSkeleton8ItemPathEP7QWidgetRK7QString6QFlagsIN5KFile4ModeEE@Base 4:15.08.0
 _ZN4KPIM13KPrefsWidPathC2EPN19KCoreConfigSkeleton8ItemPathEP7QWidgetRK7QString6QFlagsIN5KFile4ModeEE@Base 4:15.08.0
 _ZN4KPIM13KPrefsWidPathD0Ev@Base 4:15.08.0
 _ZN4KPIM13KPrefsWidPathD1Ev@Base 4:15.08.0
 _ZN4KPIM13KPrefsWidPathD2Ev@Base 4:15.08.0
 _ZN4KPIM13KPrefsWidTime10readConfigEv@Base 4:15.08.0
 _ZN4KPIM13KPrefsWidTime11writeConfigEv@Base 4:15.08.0
 _ZN4KPIM13KPrefsWidTime5labelEv@Base 4:15.08.0
 _ZN4KPIM13KPrefsWidTime8timeEditEv@Base 4:15.08.0
 _ZN4KPIM13KPrefsWidTimeC1EPN19KCoreConfigSkeleton12ItemDateTimeEP7QWidget@Base 4:15.08.0
 _ZN4KPIM13KPrefsWidTimeC2EPN19KCoreConfigSkeleton12ItemDateTimeEP7QWidget@Base 4:15.08.0
 _ZN4KPIM13KWidgetLister11clearWidgetEP7QWidget@Base 4:15.08.0
 _ZN4KPIM13KWidgetLister11qt_metacallEN11QMetaObject4CallEiPPv@Base 4:15.08.0
 _ZN4KPIM13KWidgetLister11qt_metacastEPKc@Base 4:15.08.0
 _ZN4KPIM13KWidgetLister11widgetAddedEP7QWidget@Base 4:15.08.0
 _ZN4KPIM13KWidgetLister11widgetAddedEv@Base 4:15.08.0
 _ZN4KPIM13KWidgetLister12clearWidgetsEv@Base 4:15.08.0
 _ZN4KPIM13KWidgetLister12createWidgetEP7QWidget@Base 4:15.08.0
 _ZN4KPIM13KWidgetLister12removeWidgetEP7QWidget@Base 4:15.08.0
 _ZN4KPIM13KWidgetLister13widgetRemovedEP7QWidget@Base 4:15.08.0
 _ZN4KPIM13KWidgetLister13widgetRemovedEv@Base 4:15.08.0
 _ZN4KPIM13KWidgetLister14addWidgetAtEndEP7QWidget@Base 4:15.08.0
 _ZN4KPIM13KWidgetLister16removeLastWidgetEv@Base 4:15.08.0
 _ZN4KPIM13KWidgetLister16staticMetaObjectE@Base 4:15.08.0
 _ZN4KPIM13KWidgetLister24addWidgetAfterThisWidgetEP7QWidgetS2_@Base 4:15.08.0
 _ZN4KPIM13KWidgetLister25setNumberOfShownWidgetsToEi@Base 4:15.08.0
 _ZN4KPIM13KWidgetLister4initEb@Base 4:15.08.0
 _ZN4KPIM13KWidgetLister7Private14enableControlsEv@Base 4:15.08.0
 _ZN4KPIM13KWidgetLister8slotMoreEv@Base 4:15.08.0
 _ZN4KPIM13KWidgetLister9slotClearEv@Base 4:15.08.0
 _ZN4KPIM13KWidgetLister9slotFewerEv@Base 4:15.08.0
 _ZN4KPIM13KWidgetListerC1EbiiP7QWidget@Base 4:15.08.0
 _ZN4KPIM13KWidgetListerC2EbiiP7QWidget@Base 4:15.08.0
 _ZN4KPIM13KWidgetListerD0Ev@Base 4:15.08.0
 _ZN4KPIM13KWidgetListerD1Ev@Base 4:15.08.0
 _ZN4KPIM13KWidgetListerD2Ev@Base 4:15.08.0
 _ZN4KPIM13OverlayWidget10repositionEv@Base 4:15.08.0
 _ZN4KPIM13OverlayWidget11eventFilterEP7QObjectP6QEvent@Base 4:15.08.0
 _ZN4KPIM13OverlayWidget11qt_metacallEN11QMetaObject4CallEiPPv@Base 4:15.08.0
 _ZN4KPIM13OverlayWidget11qt_metacastEPKc@Base 4:15.08.0
 _ZN4KPIM13OverlayWidget11resizeEventEP12QResizeEvent@Base 4:15.08.0
 _ZN4KPIM13OverlayWidget14setAlignWidgetEP7QWidget@Base 4:15.08.0
 _ZN4KPIM13OverlayWidget16staticMetaObjectE@Base 4:15.08.0
 _ZN4KPIM13OverlayWidgetC1EP7QWidgetS2_@Base 4:15.08.0
 _ZN4KPIM13OverlayWidgetC2EP7QWidgetS2_@Base 4:15.08.0
 _ZN4KPIM13OverlayWidgetD0Ev@Base 4:15.08.0
 _ZN4KPIM13OverlayWidgetD1Ev@Base 4:15.08.0
 _ZN4KPIM13OverlayWidgetD2Ev@Base 4:15.08.0
 _ZN4KPIM14EmailValidatorC1EP7QObject@Base 4:15.08.0
 _ZN4KPIM14EmailValidatorC2EP7QObject@Base 4:15.08.0
 _ZN4KPIM14KCheckComboBox10wheelEventEP11QWheelEvent@Base 4:15.08.0
 _ZN4KPIM14KCheckComboBox11eventFilterEP7QObjectP6QEvent@Base 4:15.08.0
 _ZN4KPIM14KCheckComboBox11itemEnabledEi@Base 4:15.08.0
 _ZN4KPIM14KCheckComboBox11qt_metacallEN11QMetaObject4CallEiPPv@Base 4:15.08.0
 _ZN4KPIM14KCheckComboBox11qt_metacastEPKc@Base 4:15.08.0
 _ZN4KPIM14KCheckComboBox11resizeEventEP12QResizeEvent@Base 4:15.08.0
 _ZN4KPIM14KCheckComboBox12setSeparatorERK7QString@Base 4:15.08.0
 _ZN4KPIM14KCheckComboBox13keyPressEventEP9QKeyEvent@Base 4:15.08.0
 _ZN4KPIM14KCheckComboBox14setDefaultTextERK7QString@Base 4:15.08.0
 _ZN4KPIM14KCheckComboBox14setItemEnabledEib@Base 4:15.08.0
 _ZN4KPIM14KCheckComboBox14setSqueezeTextEb@Base 4:15.08.0
 _ZN4KPIM14KCheckComboBox15setCheckedItemsERK11QStringListi@Base 4:15.08.0
 _ZN4KPIM14KCheckComboBox16staticMetaObjectE@Base 4:15.08.0
 _ZN4KPIM14KCheckComboBox17setItemCheckStateEiN2Qt10CheckStateE@Base 4:15.08.0
 _ZN4KPIM14KCheckComboBox19checkedItemsChangedERK11QStringList@Base 4:15.08.0
 _ZN4KPIM14KCheckComboBox24setAlwaysShowDefaultTextEb@Base 4:15.08.0
 _ZN4KPIM14KCheckComboBox7Private16toggleCheckStateEv@Base 4:15.08.0
 _ZN4KPIM14KCheckComboBox7Private18updateCheckedItemsERK11QModelIndexS4_i@Base 4:15.08.0
 _ZN4KPIM14KCheckComboBox7Private26makeInsertedItemsCheckableERK11QModelIndexii@Base 4:15.08.0
 _ZN4KPIM14KCheckComboBox7Private7squeezeERK7QString@Base 4:15.08.0
 _ZN4KPIM14KCheckComboBox9hidePopupEv@Base 4:15.08.0
 _ZN4KPIM14KCheckComboBoxC1EP7QWidget@Base 4:15.08.0
 _ZN4KPIM14KCheckComboBoxC2EP7QWidget@Base 4:15.08.0
 _ZN4KPIM14KCheckComboBoxD0Ev@Base 4:15.08.0
 _ZN4KPIM14KCheckComboBoxD1Ev@Base 4:15.08.0
 _ZN4KPIM14KCheckComboBoxD2Ev@Base 4:15.08.0
 _ZN4KPIM14KPrefsWidColor10readConfigEv@Base 4:15.08.0
 _ZN4KPIM14KPrefsWidColor11qt_metacallEN11QMetaObject4CallEiPPv@Base 4:15.08.0
 _ZN4KPIM14KPrefsWidColor11qt_metacastEPKc@Base 4:15.08.0
 _ZN4KPIM14KPrefsWidColor11writeConfigEv@Base 4:15.08.0
 _ZN4KPIM14KPrefsWidColor16staticMetaObjectE@Base 4:15.08.0
 _ZN4KPIM14KPrefsWidColor5labelEv@Base 4:15.08.0
 _ZN4KPIM14KPrefsWidColor6buttonEv@Base 4:15.08.0
 _ZN4KPIM14KPrefsWidColorC1EPN15KConfigSkeleton9ItemColorEP7QWidget@Base 4:15.08.0
 _ZN4KPIM14KPrefsWidColorC2EPN15KConfigSkeleton9ItemColorEP7QWidget@Base 4:15.08.0
 _ZN4KPIM14KPrefsWidColorD0Ev@Base 4:15.08.0
 _ZN4KPIM14KPrefsWidColorD1Ev@Base 4:15.08.0
 _ZN4KPIM14KPrefsWidColorD2Ev@Base 4:15.08.0
 _ZN4KPIM14KPrefsWidCombo10readConfigEv@Base 4:15.08.0
 _ZN4KPIM14KPrefsWidCombo11writeConfigEv@Base 4:15.08.0
 _ZN4KPIM14KPrefsWidCombo8comboBoxEv@Base 4:15.08.0
 _ZN4KPIM14KPrefsWidComboC1EPN19KCoreConfigSkeleton8ItemEnumEP7QWidget@Base 4:15.08.0
 _ZN4KPIM14KPrefsWidComboC2EPN19KCoreConfigSkeleton8ItemEnumEP7QWidget@Base 4:15.08.0
 _ZN4KPIM14KPrefsWidComboD0Ev@Base 4:15.08.0
 _ZN4KPIM14KPrefsWidComboD1Ev@Base 4:15.08.0
 _ZN4KPIM14KPrefsWidComboD2Ev@Base 4:15.08.0
 _ZN4KPIM14ProgressDialog10closeEventEP11QCloseEvent@Base 4:15.08.0
 _ZN4KPIM14ProgressDialog10setVisibleEb@Base 4:15.08.0
 _ZN4KPIM14ProgressDialog11qt_metacallEN11QMetaObject4CallEiPPv@Base 4:15.08.0
 _ZN4KPIM14ProgressDialog11qt_metacastEPKc@Base 4:15.08.0
 _ZN4KPIM14ProgressDialog16staticMetaObjectE@Base 4:15.08.0
 _ZN4KPIM14ProgressDialog17visibilityChangedEb@Base 4:15.08.0
 _ZN4KPIM14ProgressDialog20slotToggleVisibilityEv@Base 4:15.08.0
 _ZN4KPIM14ProgressDialog20slotTransactionAddedEPNS_12ProgressItemE@Base 4:15.08.0
 _ZN4KPIM14ProgressDialog20slotTransactionLabelEPNS_12ProgressItemERK7QString@Base 4:15.08.0
 _ZN4KPIM14ProgressDialog21slotTransactionStatusEPNS_12ProgressItemERK7QString@Base 4:15.08.0
 _ZN4KPIM14ProgressDialog23setShowTypeProgressItemEj@Base 4:15.08.0
 _ZN4KPIM14ProgressDialog23slotTransactionCanceledEPNS_12ProgressItemE@Base 4:15.08.0
 _ZN4KPIM14ProgressDialog23slotTransactionProgressEPNS_12ProgressItemEj@Base 4:15.08.0
 _ZN4KPIM14ProgressDialog24slotTransactionCompletedEPNS_12ProgressItemE@Base 4:15.08.0
 _ZN4KPIM14ProgressDialog27slotTransactionCryptoStatusEPNS_12ProgressItemENS1_12CryptoStatusE@Base 4:15.08.0
 _ZN4KPIM14ProgressDialog32slotTransactionUsesBusyIndicatorEPNS_12ProgressItemEb@Base 4:15.08.0
 _ZN4KPIM14ProgressDialog8slotHideEv@Base 4:15.08.0
 _ZN4KPIM14ProgressDialog8slotShowEv@Base 4:15.08.0
 _ZN4KPIM14ProgressDialog9slotCloseEv@Base 4:15.08.0
 _ZN4KPIM14ProgressDialogC1EP7QWidgetS2_@Base 4:15.08.0
 _ZN4KPIM14ProgressDialogC2EP7QWidgetS2_@Base 4:15.08.0
 _ZN4KPIM14ProgressDialogD0Ev@Base 4:15.08.0
 _ZN4KPIM14ProgressDialogD1Ev@Base 4:15.08.0
 _ZN4KPIM14ProgressDialogD2Ev@Base 4:15.08.0
 _ZN4KPIM15BroadcastStatus11qt_metacallEN11QMetaObject4CallEiPPv@Base 4:15.08.0
 _ZN4KPIM15BroadcastStatus11qt_metacastEPKc@Base 4:15.08.0
 _ZN4KPIM15BroadcastStatus12setStatusMsgERK7QString@Base 4:15.08.0
 _ZN4KPIM15BroadcastStatus16staticMetaObjectE@Base 4:15.08.0
 _ZN4KPIM15BroadcastStatus21setTransientStatusMsgERK7QString@Base 4:15.08.0
 _ZN4KPIM15BroadcastStatus25setStatusMsgWithTimestampERK7QString@Base 4:15.08.0
 _ZN4KPIM15BroadcastStatus33setStatusMsgTransmissionCompletedERK7QStringiiiibPNS_12ProgressItemE@Base 4:15.08.0
 _ZN4KPIM15BroadcastStatus33setStatusMsgTransmissionCompletedEiiiibPNS_12ProgressItemE@Base 4:15.08.0
 _ZN4KPIM15BroadcastStatus5resetEv@Base 4:15.08.0
 _ZN4KPIM15BroadcastStatus8instanceEv@Base 4:15.08.0
 _ZN4KPIM15BroadcastStatus9statusMsgERK7QString@Base 4:15.08.0
 _ZN4KPIM15BroadcastStatusC1Ev@Base 4:15.08.0
 _ZN4KPIM15BroadcastStatusC2Ev@Base 4:15.08.0
 _ZN4KPIM15BroadcastStatusD0Ev@Base 4:15.08.0
 _ZN4KPIM15BroadcastStatusD1Ev@Base 4:15.08.0
 _ZN4KPIM15BroadcastStatusD2Ev@Base 4:15.08.0
 _ZN4KPIM15CustomLogWidget15addInfoLogEntryERK7QString@Base 4:15.08.0
 _ZN4KPIM15CustomLogWidget16addErrorLogEntryERK7QString@Base 4:15.08.0
 _ZN4KPIM15CustomLogWidget16addTitleLogEntryERK7QString@Base 4:15.08.0
 _ZN4KPIM15CustomLogWidget18addEndLineLogEntryEv@Base 4:15.08.0
 _ZN4KPIM15CustomLogWidgetC1EP7QWidget@Base 4:15.08.0
 _ZN4KPIM15CustomLogWidgetC2EP7QWidget@Base 4:15.08.0
 _ZN4KPIM15CustomLogWidgetD0Ev@Base 4:15.08.0
 _ZN4KPIM15CustomLogWidgetD1Ev@Base 4:15.08.0
 _ZN4KPIM15CustomLogWidgetD2Ev@Base 4:15.08.0
 _ZN4KPIM15FreePeriodModel11qt_metacallEN11QMetaObject4CallEiPPv@Base 4:15.08.0
 _ZN4KPIM15FreePeriodModel11qt_metacastEPKc@Base 4:15.08.0
 _ZN4KPIM15FreePeriodModel16staticMetaObjectE@Base 4:15.08.0
 _ZN4KPIM15FreePeriodModel17splitPeriodsByDayERK7QVectorIN8KCalCore6PeriodEE@Base 4:15.08.0
 _ZN4KPIM15FreePeriodModel18slotNewFreePeriodsERK7QVectorIN8KCalCore6PeriodEE@Base 4:15.08.0
 _ZN4KPIM15FreePeriodModelC1EP7QObject@Base 4:15.08.0
 _ZN4KPIM15FreePeriodModelC2EP7QObject@Base 4:15.08.0
 _ZN4KPIM15FreePeriodModelD0Ev@Base 4:15.08.0
 _ZN4KPIM15FreePeriodModelD1Ev@Base 4:15.08.0
 _ZN4KPIM15FreePeriodModelD2Ev@Base 4:15.08.0
 _ZN4KPIM15KPrefsWidRadios10readConfigEv@Base 4:15.08.0
 _ZN4KPIM15KPrefsWidRadios11writeConfigEv@Base 4:15.08.0
 _ZN4KPIM15KPrefsWidRadios8addRadioEiRK7QStringS3_S3_@Base 4:15.08.0
 _ZN4KPIM15KPrefsWidRadiosC1EPN19KCoreConfigSkeleton8ItemEnumEP7QWidget@Base 4:15.08.0
 _ZN4KPIM15KPrefsWidRadiosC2EPN19KCoreConfigSkeleton8ItemEnumEP7QWidget@Base 4:15.08.0
 _ZN4KPIM15KPrefsWidRadiosD0Ev@Base 4:15.08.0
 _ZN4KPIM15KPrefsWidRadiosD1Ev@Base 4:15.08.0
 _ZN4KPIM15KPrefsWidRadiosD2Ev@Base 4:15.08.0
 _ZN4KPIM15KPrefsWidString10readConfigEv@Base 4:15.08.0
 _ZN4KPIM15KPrefsWidString11writeConfigEv@Base 4:15.08.0
 _ZN4KPIM15KPrefsWidString5labelEv@Base 4:15.08.0
 _ZN4KPIM15KPrefsWidString8lineEditEv@Base 4:15.08.0
 _ZN4KPIM15KPrefsWidStringC1EPN19KCoreConfigSkeleton10ItemStringEP7QWidgetN9QLineEdit8EchoModeE@Base 4:15.08.0
 _ZN4KPIM15KPrefsWidStringC2EPN19KCoreConfigSkeleton10ItemStringEP7QWidgetN9QLineEdit8EchoModeE@Base 4:15.08.0
 _ZN4KPIM15KPrefsWidStringD0Ev@Base 4:15.08.0
 _ZN4KPIM15KPrefsWidStringD1Ev@Base 4:15.08.0
 _ZN4KPIM15KPrefsWidStringD2Ev@Base 4:15.08.0
 _ZN4KPIM15MultiplyingLine10deleteLineEPS0_@Base 4:15.08.0
 _ZN4KPIM15MultiplyingLine11downPressedEPS0_@Base 4:15.08.0
 _ZN4KPIM15MultiplyingLine11qt_metacallEN11QMetaObject4CallEiPPv@Base 4:15.08.0
 _ZN4KPIM15MultiplyingLine11qt_metacastEPKc@Base 4:15.08.0
 _ZN4KPIM15MultiplyingLine11slotFocusUpEv@Base 4:15.08.0
 _ZN4KPIM15MultiplyingLine12rightPressedEv@Base 4:15.08.0
 _ZN4KPIM15MultiplyingLine13keyPressEventEP9QKeyEvent@Base 4:15.08.0
 _ZN4KPIM15MultiplyingLine13returnPressedEPS0_@Base 4:15.08.0
 _ZN4KPIM15MultiplyingLine13slotFocusDownEv@Base 4:15.08.0
 _ZN4KPIM15MultiplyingLine16aboutToBeDeletedEv@Base 4:15.08.0
 _ZN4KPIM15MultiplyingLine16staticMetaObjectE@Base 4:15.08.0
 _ZN4KPIM15MultiplyingLine17slotReturnPressedEv@Base 4:15.08.0
 _ZN4KPIM15MultiplyingLine21completionModeChangedEN11KCompletion14CompletionModeE@Base 4:15.08.0
 _ZN4KPIM15MultiplyingLine21slotPropagateDeletionEv@Base 4:15.08.0
 _ZN4KPIM15MultiplyingLine9upPressedEPS0_@Base 4:15.08.0
 _ZN4KPIM15MultiplyingLineC1EP7QWidget@Base 4:15.08.0
 _ZN4KPIM15MultiplyingLineC2EP7QWidget@Base 4:15.08.0
 _ZN4KPIM15PersonSearchJob11qt_metacallEN11QMetaObject4CallEiPPv@Base 4:15.08.0
 _ZN4KPIM15PersonSearchJob11qt_metacastEPKc@Base 4:15.08.0
 _ZN4KPIM15PersonSearchJob12modifyResultEP4KJob@Base 4:15.08.0
 _ZN4KPIM15PersonSearchJob12personUpdateERKNS_6PersonE@Base 4:15.08.0
 _ZN4KPIM15PersonSearchJob12personsFoundERK5QListINS_6PersonEE@Base 4:15.08.0
 _ZN4KPIM15PersonSearchJob16onLDAPSearchDataERK5QListIN5KLDAP16LdapResultObjectEE@Base 4:15.08.0
 _ZN4KPIM15PersonSearchJob16onLDAPSearchDoneEv@Base 4:15.08.0
 _ZN4KPIM15PersonSearchJob16staticMetaObjectE@Base 4:15.08.0
 _ZN4KPIM15PersonSearchJob20onCollectionsFetchedEP4KJob@Base 4:15.08.0
 _ZN4KPIM15PersonSearchJob21onCollectionsReceivedERK7QVectorIN7Akonadi10CollectionEE@Base 4:15.08.0
 _ZN4KPIM15PersonSearchJob22updatePersonCollectionERKNS_6PersonE@Base 4:15.08.0
 _ZN4KPIM15PersonSearchJob4killEN4KJob13KillVerbosityE@Base 4:15.08.0
 _ZN4KPIM15PersonSearchJob5startEv@Base 4:15.08.0
 _ZN4KPIM15PersonSearchJobC1ERK7QStringP7QObject@Base 4:15.08.0
 _ZN4KPIM15PersonSearchJobC2ERK7QStringP7QObject@Base 4:15.08.0
 _ZN4KPIM15PersonSearchJobD0Ev@Base 4:15.08.0
 _ZN4KPIM15PersonSearchJobD1Ev@Base 4:15.08.0
 _ZN4KPIM15PersonSearchJobD2Ev@Base 4:15.08.0
 _ZN4KPIM15ProgressManager11getUniqueIDEv@Base 4:15.08.0
 _ZN4KPIM15ProgressManager11qt_metacallEN11QMetaObject4CallEiPPv@Base 4:15.08.0
 _ZN4KPIM15ProgressManager11qt_metacastEPKc@Base 4:15.08.0
 _ZN4KPIM15ProgressManager12slotAbortAllEv@Base 4:15.08.0
 _ZN4KPIM15ProgressManager16staticMetaObjectE@Base 4:15.08.0
 _ZN4KPIM15ProgressManager17progressItemAddedEPNS_12ProgressItemE@Base 4:15.08.0
 _ZN4KPIM15ProgressManager17progressItemLabelEPNS_12ProgressItemERK7QString@Base 4:15.08.0
 _ZN4KPIM15ProgressManager18createProgressItemEPNS_12ProgressItemERK7QStringS5_S5_bNS1_12CryptoStatusE@Base 4:15.08.0
 _ZN4KPIM15ProgressManager18createProgressItemEPNS_12ProgressItemERKN7Akonadi13AgentInstanceERK7QStringS9_S9_bNS1_12CryptoStatusE@Base 4:15.08.0
 _ZN4KPIM15ProgressManager18createProgressItemERK7QString@Base 4:15.08.0
 _ZN4KPIM15ProgressManager18createProgressItemERK7QStringS3_S3_S3_bNS_12ProgressItem12CryptoStatusE@Base 4:15.08.0
 _ZN4KPIM15ProgressManager18createProgressItemERK7QStringS3_S3_bNS_12ProgressItem12CryptoStatusE@Base 4:15.08.0
 _ZN4KPIM15ProgressManager18createProgressItemEjRK7QString@Base 4:15.08.0
 _ZN4KPIM15ProgressManager18progressItemStatusEPNS_12ProgressItemERK7QString@Base 4:15.08.0
 _ZN4KPIM15ProgressManager18showProgressDialogEv@Base 4:15.08.0
 _ZN4KPIM15ProgressManager20progressItemCanceledEPNS_12ProgressItemE@Base 4:15.08.0
 _ZN4KPIM15ProgressManager20progressItemProgressEPNS_12ProgressItemEj@Base 4:15.08.0
 _ZN4KPIM15ProgressManager21progressItemCompletedEPNS_12ProgressItemE@Base 4:15.08.0
 _ZN4KPIM15ProgressManager22createProgressItemImplEPNS_12ProgressItemERK7QStringS5_S5_bNS1_12CryptoStatusEj@Base 4:15.08.0
 _ZN4KPIM15ProgressManager22createProgressItemImplERK7QStringS3_S3_S3_bNS_12ProgressItem12CryptoStatusEj@Base 4:15.08.0
 _ZN4KPIM15ProgressManager22emitShowProgressDialogEv@Base 4:15.08.0
 _ZN4KPIM15ProgressManager24progressItemCryptoStatusEPNS_12ProgressItemENS1_12CryptoStatusE@Base 4:15.08.0
 _ZN4KPIM15ProgressManager24slotTransactionCompletedEPNS_12ProgressItemE@Base 4:15.08.0
 _ZN4KPIM15ProgressManager25slotStandardCancelHandlerEPNS_12ProgressItemE@Base 4:15.08.0
 _ZN4KPIM15ProgressManager26createProgressItemForAgentEPNS_12ProgressItemERKN7Akonadi13AgentInstanceERK7QStringS9_S9_bNS1_12CryptoStatusEj@Base 4:15.08.0
 _ZN4KPIM15ProgressManager26emitShowProgressDialogImplEv@Base 4:15.08.0
 _ZN4KPIM15ProgressManager29progressItemUsesBusyIndicatorEPNS_12ProgressItemEb@Base 4:15.08.0
 _ZN4KPIM15ProgressManager3uIDE@Base 4:15.08.0
 _ZN4KPIM15ProgressManager8instanceEv@Base 4:15.08.0
 _ZN4KPIM15ProgressManagerC1Ev@Base 4:15.08.0
 _ZN4KPIM15ProgressManagerC2Ev@Base 4:15.08.0
 _ZN4KPIM15ProgressManagerD0Ev@Base 4:15.08.0
 _ZN4KPIM15ProgressManagerD1Ev@Base 4:15.08.0
 _ZN4KPIM15ProgressManagerD2Ev@Base 4:15.08.0
 _ZN4KPIM15RecentAddresses10adjustSizeEv@Base 4:15.08.0
 _ZN4KPIM15RecentAddresses11setMaxCountEi@Base 4:15.08.0
 _ZN4KPIM15RecentAddresses3addERK7QString@Base 4:15.08.0
 _ZN4KPIM15RecentAddresses4loadEP7KConfig@Base 4:15.08.0
 _ZN4KPIM15RecentAddresses4saveEP7KConfig@Base 4:15.08.0
 _ZN4KPIM15RecentAddresses4selfEP7KConfig@Base 4:15.08.0
 _ZN4KPIM15RecentAddresses5clearEv@Base 4:15.08.0
 _ZN4KPIM15RecentAddresses6existsEv@Base 4:15.08.0
 _ZN4KPIM15RecentAddressesC1EP7KConfig@Base 4:15.08.0
 _ZN4KPIM15RecentAddressesC2EP7KConfig@Base 4:15.08.0
 _ZN4KPIM15RecentAddressesD1Ev@Base 4:15.08.0
 _ZN4KPIM15RecentAddressesD2Ev@Base 4:15.08.0
 _ZN4KPIM16FreeBusyCalendar11qt_metacallEN11QMetaObject4CallEiPPv@Base 4:15.08.0
 _ZN4KPIM16FreeBusyCalendar11qt_metacastEPKc@Base 4:15.08.0
 _ZN4KPIM16FreeBusyCalendar13onRowsChangedERK11QModelIndexS3_@Base 4:15.08.0
 _ZN4KPIM16FreeBusyCalendar13onRowsRemovedERK11QModelIndexii@Base 4:15.08.0
 _ZN4KPIM16FreeBusyCalendar14onRowsInsertedERK11QModelIndexii@Base 4:15.08.0
 _ZN4KPIM16FreeBusyCalendar15deleteAllEventsEv@Base 4:15.08.0
 _ZN4KPIM16FreeBusyCalendar15onLayoutChangedEv@Base 4:15.08.0
 _ZN4KPIM16FreeBusyCalendar16staticMetaObjectE@Base 4:15.08.0
 _ZN4KPIM16FreeBusyCalendar8setModelEPNS_17FreeBusyItemModelE@Base 4:15.08.0
 _ZN4KPIM16FreeBusyCalendarC1EP7QObject@Base 4:15.08.0
 _ZN4KPIM16FreeBusyCalendarC2EP7QObject@Base 4:15.08.0
 _ZN4KPIM16FreeBusyCalendarD0Ev@Base 4:15.08.0
 _ZN4KPIM16FreeBusyCalendarD1Ev@Base 4:15.08.0
 _ZN4KPIM16FreeBusyCalendarD2Ev@Base 4:15.08.0
 _ZN4KPIM16KDatePickerPopup11dateChangedERK5QDate@Base 4:15.08.0
 _ZN4KPIM16KDatePickerPopup11qt_metacallEN11QMetaObject4CallEiPPv@Base 4:15.08.0
 _ZN4KPIM16KDatePickerPopup11qt_metacastEPKc@Base 4:15.08.0
 _ZN4KPIM16KDatePickerPopup16staticMetaObjectE@Base 4:15.08.0
 _ZN4KPIM16KDatePickerPopup7Private10slotNoDateEv@Base 4:15.08.0
 _ZN4KPIM16KDatePickerPopup7Private12slotNextWeekEv@Base 4:15.08.0
 _ZN4KPIM16KDatePickerPopup7Private12slotTomorrowEv@Base 4:15.08.0
 _ZN4KPIM16KDatePickerPopup7Private13slotNextMonthEv@Base 4:15.08.0
 _ZN4KPIM16KDatePickerPopup7Private15slotDateChangedERK5QDate@Base 4:15.08.0
 _ZN4KPIM16KDatePickerPopup7Private9buildMenuEv@Base 4:15.08.0
 _ZN4KPIM16KDatePickerPopup7Private9slotTodayEv@Base 4:15.08.0
 _ZN4KPIM16KDatePickerPopup7setDateERK5QDate@Base 4:15.08.0
 _ZN4KPIM16KDatePickerPopupC1E6QFlagsINS0_4ModeEERK5QDateP7QWidget@Base 4:15.08.0
 _ZN4KPIM16KDatePickerPopupC2E6QFlagsINS0_4ModeEERK5QDateP7QWidget@Base 4:15.08.0
 _ZN4KPIM16KDatePickerPopupD0Ev@Base 4:15.08.0
 _ZN4KPIM16KDatePickerPopupD1Ev@Base 4:15.08.0
 _ZN4KPIM16KDatePickerPopupD2Ev@Base 4:15.08.0
 _ZN4KPIM16KPrefsWidManager10addWidBoolEPN19KCoreConfigSkeleton8ItemBoolEP7QWidget@Base 4:15.08.0
 _ZN4KPIM16KPrefsWidManager10addWidDateEPN19KCoreConfigSkeleton12ItemDateTimeEP7QWidget@Base 4:15.08.0
 _ZN4KPIM16KPrefsWidManager10addWidFontEPN15KConfigSkeleton8ItemFontEP7QWidgetRK7QString@Base 4:15.08.0
 _ZN4KPIM16KPrefsWidManager10addWidPathEPN19KCoreConfigSkeleton8ItemPathEP7QWidgetRK7QString6QFlagsIN5KFile4ModeEE@Base 4:15.08.0
 _ZN4KPIM16KPrefsWidManager10addWidTimeEPN19KCoreConfigSkeleton12ItemDateTimeEP7QWidget@Base 4:15.08.0
 _ZN4KPIM16KPrefsWidManager11addWidColorEPN15KConfigSkeleton9ItemColorEP7QWidget@Base 4:15.08.0
 _ZN4KPIM16KPrefsWidManager11addWidComboEPN19KCoreConfigSkeleton8ItemEnumEP7QWidget@Base 4:15.08.0
 _ZN4KPIM16KPrefsWidManager12addWidRadiosEPN19KCoreConfigSkeleton8ItemEnumEP7QWidget@Base 4:15.08.0
 _ZN4KPIM16KPrefsWidManager12addWidStringEPN19KCoreConfigSkeleton10ItemStringEP7QWidget@Base 4:15.08.0
 _ZN4KPIM16KPrefsWidManager13readWidConfigEv@Base 4:15.08.0
 _ZN4KPIM16KPrefsWidManager14addWidDurationEPN19KCoreConfigSkeleton12ItemDateTimeERK7QStringP7QWidget@Base 4:15.08.0
 _ZN4KPIM16KPrefsWidManager14addWidPasswordEPN19KCoreConfigSkeleton10ItemStringEP7QWidget@Base 4:15.08.0
 _ZN4KPIM16KPrefsWidManager14setWidDefaultsEv@Base 4:15.08.0
 _ZN4KPIM16KPrefsWidManager14writeWidConfigEv@Base 4:15.08.0
 _ZN4KPIM16KPrefsWidManager6addWidEPNS_9KPrefsWidE@Base 4:15.08.0
 _ZN4KPIM16KPrefsWidManager9addWidIntEPN19KCoreConfigSkeleton7ItemIntEP7QWidget@Base 4:15.08.0
 _ZN4KPIM16KPrefsWidManagerC1EP15KConfigSkeleton@Base 4:15.08.0
 _ZN4KPIM16KPrefsWidManagerC2EP15KConfigSkeleton@Base 4:15.08.0
 _ZN4KPIM16KPrefsWidManagerD0Ev@Base 4:15.08.0
 _ZN4KPIM16KPrefsWidManagerD1Ev@Base 4:15.08.0
 _ZN4KPIM16KPrefsWidManagerD2Ev@Base 4:15.08.0
 _ZN4KPIM17AddEmailDiplayJob10setContactERKN7Akonadi4ItemE@Base 4:15.08.0
 _ZN4KPIM17AddEmailDiplayJob11qt_metacallEN11QMetaObject4CallEiPPv@Base 4:15.08.0
 _ZN4KPIM17AddEmailDiplayJob11qt_metacastEPKc@Base 4:15.08.0
 _ZN4KPIM17AddEmailDiplayJob13setShowAsHTMLEb@Base 4:15.08.0
 _ZN4KPIM17AddEmailDiplayJob16setRemoteContentEb@Base 4:15.08.0
 _ZN4KPIM17AddEmailDiplayJob16staticMetaObjectE@Base 4:15.08.0
 _ZN4KPIM17AddEmailDiplayJob5startEv@Base 4:15.08.0
 _ZN4KPIM17AddEmailDiplayJobC1ERK7QStringP7QWidgetP7QObject@Base 4:15.08.0
 _ZN4KPIM17AddEmailDiplayJobC2ERK7QStringP7QWidgetP7QObject@Base 4:15.08.0
 _ZN4KPIM17AddEmailDiplayJobD0Ev@Base 4:15.08.0
 _ZN4KPIM17AddEmailDiplayJobD1Ev@Base 4:15.08.0
 _ZN4KPIM17AddEmailDiplayJobD2Ev@Base 4:15.08.0
 _ZN4KPIM17AddresseeLineEdit10addContactERKN9KContacts9AddresseeEii7QString@Base 4:15.08.0
 _ZN4KPIM17AddresseeLineEdit11cursorAtEndEv@Base 4:15.08.0
 _ZN4KPIM17AddresseeLineEdit11eventFilterEP7QObjectP6QEvent@Base 4:15.08.0
 _ZN4KPIM17AddresseeLineEdit11qt_metacallEN11QMetaObject4CallEiPPv@Base 4:15.08.0
 _ZN4KPIM17AddresseeLineEdit11qt_metacastEPKc@Base 4:15.08.0
 _ZN4KPIM17AddresseeLineEdit13keyPressEventEP9QKeyEvent@Base 4:15.08.0
 _ZN4KPIM17AddresseeLineEdit13textCompletedEv@Base 4:15.08.0
 _ZN4KPIM17AddresseeLineEdit15addContactGroupERKN9KContacts12ContactGroupEii@Base 4:15.08.0
 _ZN4KPIM17AddresseeLineEdit16cleanupEmailListERK11QStringList@Base 4:15.08.0
 _ZN4KPIM17AddresseeLineEdit16contextMenuEventEP17QContextMenuEvent@Base 4:15.08.0
 _ZN4KPIM17AddresseeLineEdit16enableCompletionEb@Base 4:15.08.0
 _ZN4KPIM17AddresseeLineEdit16staticMetaObjectE@Base 4:15.08.0
 _ZN4KPIM17AddresseeLineEdit17callUserCancelledERK7QString@Base 4:15.08.0
 _ZN4KPIM17AddresseeLineEdit17emitTextCompletedEv@Base 4:15.08.0
 _ZN4KPIM17AddresseeLineEdit17mouseReleaseEventEP11QMouseEvent@Base 4:15.08.0
 _ZN4KPIM17AddresseeLineEdit19addCompletionSourceERK7QStringi@Base 4:15.08.0
 _ZN4KPIM17AddresseeLineEdit20callSetCompletedTextERK7QString@Base 4:15.08.0
 _ZN4KPIM17AddresseeLineEdit20callSetCompletedTextERK7QStringb@Base 4:15.08.0
 _ZN4KPIM17AddresseeLineEdit20callSetUserSelectionEb@Base 4:15.08.0
 _ZN4KPIM17AddresseeLineEdit20setEnableBalooSearchEb@Base 4:15.08.0
 _ZN4KPIM17AddresseeLineEdit20updateBalooBlackListEv@Base 4:15.08.0
 _ZN4KPIM17AddresseeLineEdit21updateCompletionOrderEv@Base 4:15.08.0
 _ZN4KPIM17AddresseeLineEdit22removeCompletionSourceERK7QString@Base 4:15.08.0
 _ZN4KPIM17AddresseeLineEdit24configureCompletionOrderEP5QMenu@Base 4:15.08.0
 _ZN4KPIM17AddresseeLineEdit25allowSemicolonAsSeparatorEb@Base 4:15.08.0
 _ZN4KPIM17AddresseeLineEdit25createStandardContextMenuEv@Base 4:15.08.0
 _ZN4KPIM17AddresseeLineEdit5pasteEv@Base 4:15.08.0
 _ZN4KPIM17AddresseeLineEdit6insertERK7QString@Base 4:15.08.0
 _ZN4KPIM17AddresseeLineEdit7addItemERKN7Akonadi4ItemEii@Base 4:15.08.0
 _ZN4KPIM17AddresseeLineEdit7setFontERK5QFont@Base 4:15.08.0
 _ZN4KPIM17AddresseeLineEdit7setTextERK7QString@Base 4:15.08.0
 _ZN4KPIM17AddresseeLineEdit9dropEventEP10QDropEvent@Base 4:15.08.0
 _ZN4KPIM17AddresseeLineEditC1EP7QWidgetb@Base 4:15.08.0
 _ZN4KPIM17AddresseeLineEditC2EP7QWidgetb@Base 4:15.08.0
 _ZN4KPIM17AddresseeLineEditD0Ev@Base 4:15.08.0
 _ZN4KPIM17AddresseeLineEditD1Ev@Base 4:15.08.0
 _ZN4KPIM17AddresseeLineEditD2Ev@Base 4:15.08.0
 _ZN4KPIM17FreeBusyItemModel10autoReloadEv@Base 4:15.08.0
 _ZN4KPIM17FreeBusyItemModel10removeItemERK14QSharedPointerINS_12FreeBusyItemEE@Base 4:15.08.0
 _ZN4KPIM17FreeBusyItemModel10timerEventEP11QTimerEvent@Base 4:15.08.0
 _ZN4KPIM17FreeBusyItemModel11qt_metacallEN11QMetaObject4CallEiPPv@Base 4:15.08.0
 _ZN4KPIM17FreeBusyItemModel11qt_metacastEPKc@Base 4:15.08.0
 _ZN4KPIM17FreeBusyItemModel12cancelReloadEv@Base 4:15.08.0
 _ZN4KPIM17FreeBusyItemModel12manualReloadEv@Base 4:15.08.0
 _ZN4KPIM17FreeBusyItemModel13triggerReloadEv@Base 4:15.08.0
 _ZN4KPIM17FreeBusyItemModel14removeAttendeeERK14QSharedPointerIN8KCalCore8AttendeeEE@Base 4:15.08.0
 _ZN4KPIM17FreeBusyItemModel16containsAttendeeERK14QSharedPointerIN8KCalCore8AttendeeEE@Base 4:15.08.0
 _ZN4KPIM17FreeBusyItemModel16staticMetaObjectE@Base 4:15.08.0
 _ZN4KPIM17FreeBusyItemModel18setFreeBusyPeriodsERK11QModelIndexRK7QVectorIN8KCalCore14FreeBusyPeriodEE@Base 4:15.08.0
 _ZN4KPIM17FreeBusyItemModel18slotInsertFreeBusyERK14QSharedPointerIN8KCalCore8FreeBusyEERK7QString@Base 4:15.08.0
 _ZN4KPIM17FreeBusyItemModel18updateFreeBusyDataERK14QSharedPointerINS_12FreeBusyItemEE@Base 4:15.08.0
 _ZN4KPIM17FreeBusyItemModel5clearEv@Base 4:15.08.0
 _ZN4KPIM17FreeBusyItemModel6reloadEv@Base 4:15.08.0
 _ZN4KPIM17FreeBusyItemModel7addItemERK14QSharedPointerINS_12FreeBusyItemEE@Base 4:15.08.0
 _ZN4KPIM17FreeBusyItemModel9removeRowEi@Base 4:15.08.0
 _ZN4KPIM17FreeBusyItemModelC1EP7QObject@Base 4:15.08.0
 _ZN4KPIM17FreeBusyItemModelC2EP7QObject@Base 4:15.08.0
 _ZN4KPIM17FreeBusyItemModelD0Ev@Base 4:15.08.0
 _ZN4KPIM17FreeBusyItemModelD1Ev@Base 4:15.08.0
 _ZN4KPIM17FreeBusyItemModelD2Ev@Base 4:15.08.0
 _ZN4KPIM17KPrefsWidDuration10readConfigEv@Base 4:15.08.0
 _ZN4KPIM17KPrefsWidDuration11writeConfigEv@Base 4:15.08.0
 _ZN4KPIM17KPrefsWidDuration5labelEv@Base 4:15.08.0
 _ZN4KPIM17KPrefsWidDuration8timeEditEv@Base 4:15.08.0
 _ZN4KPIM17KPrefsWidDurationC1EPN19KCoreConfigSkeleton12ItemDateTimeERK7QStringP7QWidget@Base 4:15.08.0
 _ZN4KPIM17KPrefsWidDurationC2EPN19KCoreConfigSkeleton12ItemDateTimeERK7QStringP7QWidget@Base 4:15.08.0
 _ZN4KPIM17TagSelectionCombo11qt_metacallEN11QMetaObject4CallEiPPv@Base 4:15.08.0
 _ZN4KPIM17TagSelectionCombo11qt_metacastEPKc@Base 4:15.08.0
 _ZN4KPIM17TagSelectionCombo16staticMetaObjectE@Base 4:15.08.0
 _ZN4KPIM17TagSelectionComboC1EP7QWidget@Base 4:15.08.0
 _ZN4KPIM17TagSelectionComboC2EP7QWidget@Base 4:15.08.0
 _ZN4KPIM18AddEmailAddressJob11qt_metacallEN11QMetaObject4CallEiPPv@Base 4:15.08.0
 _ZN4KPIM18AddEmailAddressJob11qt_metacastEPKc@Base 4:15.08.0
 _ZN4KPIM18AddEmailAddressJob16staticMetaObjectE@Base 4:15.08.0
 _ZN4KPIM18AddEmailAddressJob5startEv@Base 4:15.08.0
 _ZN4KPIM18AddEmailAddressJobC1ERK7QStringP7QWidgetP7QObject@Base 4:15.08.0
 _ZN4KPIM18AddEmailAddressJobC2ERK7QStringP7QWidgetP7QObject@Base 4:15.08.0
 _ZN4KPIM18AddEmailAddressJobD0Ev@Base 4:15.08.0
 _ZN4KPIM18AddEmailAddressJobD1Ev@Base 4:15.08.0
 _ZN4KPIM18AddEmailAddressJobD2Ev@Base 4:15.08.0
 _ZN4KPIM18KWeekdayCheckCombo11qt_metacallEN11QMetaObject4CallEiPPv@Base 4:15.08.0
 _ZN4KPIM18KWeekdayCheckCombo11qt_metacastEPKc@Base 4:15.08.0
 _ZN4KPIM18KWeekdayCheckCombo16staticMetaObjectE@Base 4:15.08.0
 _ZN4KPIM18KWeekdayCheckCombo7setDaysERK9QBitArrayS3_@Base 4:15.08.0
 _ZN4KPIM18KWeekdayCheckComboC1EP7QWidgetb@Base 4:15.08.0
 _ZN4KPIM18KWeekdayCheckComboC2EP7QWidgetb@Base 4:15.08.0
 _ZN4KPIM18KWeekdayCheckComboD0Ev@Base 4:15.08.0
 _ZN4KPIM18KWeekdayCheckComboD1Ev@Base 4:15.08.0
 _ZN4KPIM18KWeekdayCheckComboD2Ev@Base 4:15.08.0
 _ZN4KPIM18TagSelectionDialog11qt_metacallEN11QMetaObject4CallEiPPv@Base 4:15.08.0
 _ZN4KPIM18TagSelectionDialog11qt_metacastEPKc@Base 4:15.08.0
 _ZN4KPIM18TagSelectionDialog12onTagCreatedEP4KJob@Base 4:15.08.0
 _ZN4KPIM18TagSelectionDialog12setSelectionERK11QStringList@Base 4:15.08.0
 _ZN4KPIM18TagSelectionDialog16staticMetaObjectE@Base 4:15.08.0
 _ZN4KPIM18TagSelectionDialogC1EP7QWidget@Base 4:15.08.0
 _ZN4KPIM18TagSelectionDialogC2EP7QWidget@Base 4:15.08.0
 _ZN4KPIM19CollectionSearchJob11qt_metacallEN11QMetaObject4CallEiPPv@Base 4:15.08.0
 _ZN4KPIM19CollectionSearchJob11qt_metacastEPKc@Base 4:15.08.0
 _ZN4KPIM19CollectionSearchJob16staticMetaObjectE@Base 4:15.08.0
 _ZN4KPIM19CollectionSearchJob18onAncestorsFetchedEP4KJob@Base 4:15.08.0
 _ZN4KPIM19CollectionSearchJob20onCollectionsFetchedEP4KJob@Base 4:15.08.0
 _ZN4KPIM19CollectionSearchJob21onCollectionsReceivedERK7QVectorIN7Akonadi10CollectionEE@Base 4:15.08.0
 _ZN4KPIM19CollectionSearchJob5startEv@Base 4:15.08.0
 _ZN4KPIM19CollectionSearchJobC1ERK7QStringRK11QStringListP7QObject@Base 4:15.08.0
 _ZN4KPIM19CollectionSearchJobC2ERK7QStringRK11QStringListP7QObject@Base 4:15.08.0
 _ZN4KPIM19OpenEmailAddressJob11qt_metacallEN11QMetaObject4CallEiPPv@Base 4:15.08.0
 _ZN4KPIM19OpenEmailAddressJob11qt_metacastEPKc@Base 4:15.08.0
 _ZN4KPIM19OpenEmailAddressJob16staticMetaObjectE@Base 4:15.08.0
 _ZN4KPIM19OpenEmailAddressJob5startEv@Base 4:15.08.0
 _ZN4KPIM19OpenEmailAddressJobC1ERK7QStringP7QWidgetP7QObject@Base 4:15.08.0
 _ZN4KPIM19OpenEmailAddressJobC2ERK7QStringP7QWidgetP7QObject@Base 4:15.08.0
 _ZN4KPIM19OpenEmailAddressJobD0Ev@Base 4:15.08.0
 _ZN4KPIM19OpenEmailAddressJobD1Ev@Base 4:15.08.0
 _ZN4KPIM19OpenEmailAddressJobD2Ev@Base 4:15.08.0
 _ZN4KPIM19RecentAddressDialog10readConfigEv@Base 4:15.08.0
 _ZN4KPIM19RecentAddressDialog11qt_metacallEN11QMetaObject4CallEiPPv@Base 4:15.08.0
 _ZN4KPIM19RecentAddressDialog11qt_metacastEPKc@Base 4:15.08.0
 _ZN4KPIM19RecentAddressDialog11writeConfigEv@Base 4:15.08.0
 _ZN4KPIM19RecentAddressDialog12setAddressesERK11QStringList@Base 4:15.08.0
 _ZN4KPIM19RecentAddressDialog14storeAddressesEP7KConfig@Base 4:15.08.0
 _ZN4KPIM19RecentAddressDialog16staticMetaObjectE@Base 4:15.08.0
 _ZN4KPIM19RecentAddressDialogC1EP7QWidget@Base 4:15.08.0
 _ZN4KPIM19RecentAddressDialogC2EP7QWidget@Base 4:15.08.0
 _ZN4KPIM19RecentAddressDialogD0Ev@Base 4:15.08.0
 _ZN4KPIM19RecentAddressDialogD1Ev@Base 4:15.08.0
 _ZN4KPIM19RecentAddressDialogD2Ev@Base 4:15.08.0
 _ZN4KPIM20QuotaColorProxyModel11qt_metacallEN11QMetaObject4CallEiPPv@Base 4:15.08.0
 _ZN4KPIM20QuotaColorProxyModel11qt_metacastEPKc@Base 4:15.08.0
 _ZN4KPIM20QuotaColorProxyModel14setSourceModelEP18QAbstractItemModel@Base 4:15.08.0
 _ZN4KPIM20QuotaColorProxyModel15setWarningColorERK6QColor@Base 4:15.08.0
 _ZN4KPIM20QuotaColorProxyModel16staticMetaObjectE@Base 4:15.08.0
 _ZN4KPIM20QuotaColorProxyModel19setWarningThresholdEd@Base 4:15.08.0
 _ZN4KPIM20QuotaColorProxyModelC1EP7QObject@Base 4:15.08.0
 _ZN4KPIM20QuotaColorProxyModelC2EP7QObject@Base 4:15.08.0
 _ZN4KPIM20QuotaColorProxyModelD0Ev@Base 4:15.08.0
 _ZN4KPIM20QuotaColorProxyModelD1Ev@Base 4:15.08.0
 _ZN4KPIM20QuotaColorProxyModelD2Ev@Base 4:15.08.0
 _ZN4KPIM21CompletionOrderEditor10readConfigEv@Base 4:15.08.0
 _ZN4KPIM21CompletionOrderEditor11qt_metacallEN11QMetaObject4CallEiPPv@Base 4:15.08.0
 _ZN4KPIM21CompletionOrderEditor11qt_metacastEPKc@Base 4:15.08.0
 _ZN4KPIM21CompletionOrderEditor11writeConfigEv@Base 4:15.08.0
 _ZN4KPIM21CompletionOrderEditor16staticMetaObjectE@Base 4:15.08.0
 _ZN4KPIM21CompletionOrderEditor6slotOkEv@Base 4:15.08.0
 _ZN4KPIM21CompletionOrderEditorC1EPN5KLDAP16LdapClientSearchEP7QWidget@Base 4:15.08.0
 _ZN4KPIM21CompletionOrderEditorC2EPN5KLDAP16LdapClientSearchEP7QWidget@Base 4:15.08.0
 _ZN4KPIM21CompletionOrderEditorD0Ev@Base 4:15.08.0
 _ZN4KPIM21CompletionOrderEditorD1Ev@Base 4:15.08.0
 _ZN4KPIM21CompletionOrderEditorD2Ev@Base 4:15.08.0
 _ZN4KPIM21CompletionOrderWidget10slotMoveUpEv@Base 4:15.08.0
 _ZN4KPIM21CompletionOrderWidget11qt_metacallEN11QMetaObject4CallEiPPv@Base 4:15.08.0
 _ZN4KPIM21CompletionOrderWidget11qt_metacastEPKc@Base 4:15.08.0
 _ZN4KPIM21CompletionOrderWidget12rowsInsertedERK11QModelIndexii@Base 4:15.08.0
 _ZN4KPIM21CompletionOrderWidget12slotMoveDownEv@Base 4:15.08.0
 _ZN4KPIM21CompletionOrderWidget16staticMetaObjectE@Base 4:15.08.0
 _ZN4KPIM21CompletionOrderWidget19loadCompletionItemsEv@Base 4:15.08.0
 _ZN4KPIM21CompletionOrderWidget19setLdapClientSearchEPN5KLDAP16LdapClientSearchE@Base 4:15.08.0
 _ZN4KPIM21CompletionOrderWidget20addRecentAddressItemEv@Base 4:15.08.0
 _ZN4KPIM21CompletionOrderWidget20slotSelectionChangedEv@Base 4:15.08.0
 _ZN4KPIM21CompletionOrderWidget22completionOrderChangedEv@Base 4:15.08.0
 _ZN4KPIM21CompletionOrderWidget30addCompletionItemForCollectionERK11QModelIndex@Base 4:15.08.0
 _ZN4KPIM21CompletionOrderWidget4saveEv@Base 4:15.08.0
 _ZN4KPIM21CompletionOrderWidgetC1EP7QWidget@Base 4:15.08.0
 _ZN4KPIM21CompletionOrderWidgetC2EP7QWidget@Base 4:15.08.0
 _ZN4KPIM21CompletionOrderWidgetD0Ev@Base 4:15.08.0
 _ZN4KPIM21CompletionOrderWidgetD1Ev@Base 4:15.08.0
 _ZN4KPIM21CompletionOrderWidgetD2Ev@Base 4:15.08.0
 _ZN4KPIM21MultiplyingLineEditor10isModifiedEv@Base 4:15.08.0
 _ZN4KPIM21MultiplyingLineEditor10removeDataERK14QSharedPointerINS_19MultiplyingLineDataEE@Base 4:15.08.0
 _ZN4KPIM21MultiplyingLineEditor11lineDeletedEi@Base 4:15.08.0
 _ZN4KPIM21MultiplyingLineEditor11qt_metacallEN11QMetaObject4CallEiPPv@Base 4:15.08.0
 _ZN4KPIM21MultiplyingLineEditor11qt_metacastEPKc@Base 4:15.08.0
 _ZN4KPIM21MultiplyingLineEditor11setFocusTopEv@Base 4:15.08.0
 _ZN4KPIM21MultiplyingLineEditor13clearModifiedEv@Base 4:15.08.0
 _ZN4KPIM21MultiplyingLineEditor13setFrameStyleEi@Base 4:15.08.0
 _ZN4KPIM21MultiplyingLineEditor14autoResizeViewEv@Base 4:15.08.0
 _ZN4KPIM21MultiplyingLineEditor14setFocusBottomEv@Base 4:15.08.0
 _ZN4KPIM21MultiplyingLineEditor15sizeHintChangedEv@Base 4:15.08.0
 _ZN4KPIM21MultiplyingLineEditor16staticMetaObjectE@Base 4:15.08.0
 _ZN4KPIM21MultiplyingLineEditor17setAutoResizeViewEb@Base 4:15.08.0
 _ZN4KPIM21MultiplyingLineEditor17setCompletionModeEN11KCompletion14CompletionModeE@Base 4:15.08.0
 _ZN4KPIM21MultiplyingLineEditor18setDynamicSizeHintEb@Base 4:15.08.0
 _ZN4KPIM21MultiplyingLineEditor19setFirstColumnWidthEi@Base 4:15.08.0
 _ZN4KPIM21MultiplyingLineEditor21completionModeChangedEN11KCompletion14CompletionModeE@Base 4:15.08.0
 _ZN4KPIM21MultiplyingLineEditor5clearEv@Base 4:15.08.0
 _ZN4KPIM21MultiplyingLineEditor7addDataERK14QSharedPointerINS_19MultiplyingLineDataEE@Base 4:15.08.0
 _ZN4KPIM21MultiplyingLineEditor7focusUpEv@Base 4:15.08.0
 _ZN4KPIM21MultiplyingLineEditor8setFocusEv@Base 4:15.08.0
 _ZN4KPIM21MultiplyingLineEditor9focusDownEv@Base 4:15.08.0
 _ZN4KPIM21MultiplyingLineEditor9lineAddedEPNS_15MultiplyingLineE@Base 4:15.08.0
 _ZN4KPIM21MultiplyingLineEditorC1EPNS_22MultiplyingLineFactoryEP7QWidget@Base 4:15.08.0
 _ZN4KPIM21MultiplyingLineEditorC2EPNS_22MultiplyingLineFactoryEP7QWidget@Base 4:15.08.0
 _ZN4KPIM21MultiplyingLineEditorD0Ev@Base 4:15.08.0
 _ZN4KPIM21MultiplyingLineEditorD1Ev@Base 4:15.08.0
 _ZN4KPIM21MultiplyingLineEditorD2Ev@Base 4:15.08.0
 _ZN4KPIM22MultiplyingLineFactory11qt_metacallEN11QMetaObject4CallEiPPv@Base 4:15.08.0
 _ZN4KPIM22MultiplyingLineFactory11qt_metacastEPKc@Base 4:15.08.0
 _ZN4KPIM22MultiplyingLineFactory16staticMetaObjectE@Base 4:15.08.0
 _ZN4KPIM22ProgressIndicatorLabel11qt_metacallEN11QMetaObject4CallEiPPv@Base 4:15.08.0
 _ZN4KPIM22ProgressIndicatorLabel11qt_metacastEPKc@Base 4:15.08.0
 _ZN4KPIM22ProgressIndicatorLabel14setActiveLabelERK7QString@Base 4:15.08.0
 _ZN4KPIM22ProgressIndicatorLabel16staticMetaObjectE@Base 4:15.08.0
 _ZN4KPIM22ProgressIndicatorLabel4stopEv@Base 4:15.08.0
 _ZN4KPIM22ProgressIndicatorLabel5startEv@Base 4:15.08.0
 _ZN4KPIM22ProgressIndicatorLabelC1EP7QWidget@Base 4:15.08.0
 _ZN4KPIM22ProgressIndicatorLabelC1ERK7QStringP7QWidget@Base 4:15.08.0
 _ZN4KPIM22ProgressIndicatorLabelC2EP7QWidget@Base 4:15.08.0
 _ZN4KPIM22ProgressIndicatorLabelC2ERK7QStringP7QWidget@Base 4:15.08.0
 _ZN4KPIM22ProgressIndicatorLabelD0Ev@Base 4:15.08.0
 _ZN4KPIM22ProgressIndicatorLabelD1Ev@Base 4:15.08.0
 _ZN4KPIM22ProgressIndicatorLabelD2Ev@Base 4:15.08.0
 _ZN4KPIM23BlackListBalooEmailList10paintEventEP11QPaintEvent@Base 4:15.08.0
 _ZN4KPIM23BlackListBalooEmailList11changeEventEP6QEvent@Base 4:15.08.0
 _ZN4KPIM23BlackListBalooEmailList11qt_metacallEN11QMetaObject4CallEiPPv@Base 4:15.08.0
 _ZN4KPIM23BlackListBalooEmailList11qt_metacastEPKc@Base 4:15.08.0
 _ZN4KPIM23BlackListBalooEmailList14slotEmailFoundERK11QStringList@Base 4:15.08.0
 _ZN4KPIM23BlackListBalooEmailList16setExcludeDomainERK11QStringList@Base 4:15.08.0
 _ZN4KPIM23BlackListBalooEmailList16staticMetaObjectE@Base 4:15.08.0
 _ZN4KPIM23BlackListBalooEmailList17setEmailBlackListERK11QStringList@Base 4:15.08.0
 _ZN4KPIM23BlackListBalooEmailList21generalPaletteChangedEv@Base 4:15.08.0
 _ZN4KPIM23BlackListBalooEmailListC1EP7QWidget@Base 4:15.08.0
 _ZN4KPIM23BlackListBalooEmailListC2EP7QWidget@Base 4:15.08.0
 _ZN4KPIM23BlackListBalooEmailListD0Ev@Base 4:15.08.0
 _ZN4KPIM23BlackListBalooEmailListD1Ev@Base 4:15.08.0
 _ZN4KPIM23BlackListBalooEmailListD2Ev@Base 4:15.08.0
 _ZN4KPIM23BlackListBalooEmailUtil12newBlackListERK5QHashI7QStringbE@Base 4:15.08.0
 _ZN4KPIM23BlackListBalooEmailUtil16initialBlackListERK11QStringList@Base 4:15.08.0
 _ZN4KPIM23BlackListBalooEmailUtil18createNewBlackListEv@Base 4:15.08.0
 _ZN4KPIM23BlackListBalooEmailUtilC1Ev@Base 4:15.08.0
 _ZN4KPIM23BlackListBalooEmailUtilC2Ev@Base 4:15.08.0
 _ZN4KPIM23BlackListBalooEmailUtilD1Ev@Base 4:15.08.0
 _ZN4KPIM23BlackListBalooEmailUtilD2Ev@Base 4:15.08.0
 _ZN4KPIM23KColumnFilterProxyModel16setVisibleColumnEi@Base 4:15.08.0
 _ZN4KPIM23KColumnFilterProxyModel17setVisibleColumnsERK7QVectorIiE@Base 4:15.08.0
 _ZN4KPIM23KColumnFilterProxyModelC1EP7QObject@Base 4:15.08.0
 _ZN4KPIM23KColumnFilterProxyModelC2EP7QObject@Base 4:15.08.0
 _ZN4KPIM23KColumnFilterProxyModelD0Ev@Base 4:15.08.0
 _ZN4KPIM23KColumnFilterProxyModelD1Ev@Base 4:15.08.0
 _ZN4KPIM23KColumnFilterProxyModelD2Ev@Base 4:15.08.0
 _ZN4KPIM23ProgressIndicatorWidget11qt_metacallEN11QMetaObject4CallEiPPv@Base 4:15.08.0
 _ZN4KPIM23ProgressIndicatorWidget11qt_metacastEPKc@Base 4:15.08.0
 _ZN4KPIM23ProgressIndicatorWidget16staticMetaObjectE@Base 4:15.08.0
 _ZN4KPIM23ProgressIndicatorWidget4stopEv@Base 4:15.08.0
 _ZN4KPIM23ProgressIndicatorWidget5startEv@Base 4:15.08.0
 _ZN4KPIM23ProgressIndicatorWidgetC1EP7QWidget@Base 4:15.08.0
 _ZN4KPIM23ProgressIndicatorWidgetC2EP7QWidget@Base 4:15.08.0
 _ZN4KPIM23ProgressIndicatorWidgetD0Ev@Base 4:15.08.0
 _ZN4KPIM23ProgressIndicatorWidgetD1Ev@Base 4:15.08.0
 _ZN4KPIM23ProgressIndicatorWidgetD2Ev@Base 4:15.08.0
 _ZN4KPIM23ProgressStatusBarWidget11qt_metacallEN11QMetaObject4CallEiPPv@Base 4:15.08.0
 _ZN4KPIM23ProgressStatusBarWidget11qt_metacastEPKc@Base 4:15.08.0
 _ZN4KPIM23ProgressStatusBarWidget16staticMetaObjectE@Base 4:15.08.0
 _ZN4KPIM23ProgressStatusBarWidgetC1EP7QWidgetS2_j@Base 4:15.08.0
 _ZN4KPIM23ProgressStatusBarWidgetC2EP7QWidgetS2_j@Base 4:15.08.0
 _ZN4KPIM23ProgressStatusBarWidgetD0Ev@Base 4:15.08.0
 _ZN4KPIM23ProgressStatusBarWidgetD1Ev@Base 4:15.08.0
 _ZN4KPIM23ProgressStatusBarWidgetD2Ev@Base 4:15.08.0
 _ZN4KPIM23StatusbarProgressWidget11eventFilterEP7QObjectP6QEvent@Base 4:15.08.0
 _ZN4KPIM23StatusbarProgressWidget11qt_metacallEN11QMetaObject4CallEiPPv@Base 4:15.08.0
 _ZN4KPIM23StatusbarProgressWidget11qt_metacastEPKc@Base 4:15.08.0
 _ZN4KPIM23StatusbarProgressWidget14updateBusyModeEPNS_12ProgressItemE@Base 4:15.08.0
 _ZN4KPIM23StatusbarProgressWidget16staticMetaObjectE@Base 4:15.08.0
 _ZN4KPIM23StatusbarProgressWidget17connectSingleItemEv@Base 4:15.08.0
 _ZN4KPIM23StatusbarProgressWidget17slotBusyIndicatorEv@Base 4:15.08.0
 _ZN4KPIM23StatusbarProgressWidget19slotShowItemDelayedEv@Base 4:15.08.0
 _ZN4KPIM23StatusbarProgressWidget21slotProgressItemAddedEPNS_12ProgressItemE@Base 4:15.08.0
 _ZN4KPIM23StatusbarProgressWidget22activateSingleItemModeEv@Base 4:15.08.0
 _ZN4KPIM23StatusbarProgressWidget23setShowTypeProgressItemEj@Base 4:15.08.0
 _ZN4KPIM23StatusbarProgressWidget24slotProgressItemProgressEPNS_12ProgressItemEj@Base 4:15.08.0
 _ZN4KPIM23StatusbarProgressWidget25slotProgressDialogVisibleEb@Base 4:15.08.0
 _ZN4KPIM23StatusbarProgressWidget25slotProgressItemCompletedEPNS_12ProgressItemE@Base 4:15.08.0
 _ZN4KPIM23StatusbarProgressWidget7setModeEv@Base 4:15.08.0
 _ZN4KPIM23StatusbarProgressWidget9slotCleanEv@Base 4:15.08.0
 _ZN4KPIM23StatusbarProgressWidgetC1EPNS_14ProgressDialogEP7QWidgetb@Base 4:15.08.0
 _ZN4KPIM23StatusbarProgressWidgetC2EPNS_14ProgressDialogEP7QWidgetb@Base 4:15.08.0
 _ZN4KPIM25CompletionConfigureDialog10readConfigEv@Base 4:15.08.0
 _ZN4KPIM25CompletionConfigureDialog11qt_metacallEN11QMetaObject4CallEiPPv@Base 4:15.08.0
 _ZN4KPIM25CompletionConfigureDialog11qt_metacastEPKc@Base 4:15.08.0
 _ZN4KPIM25CompletionConfigureDialog11writeConfigEv@Base 4:15.08.0
 _ZN4KPIM25CompletionConfigureDialog14storeAddressesEP7KConfig@Base 4:15.08.0
 _ZN4KPIM25CompletionConfigureDialog16staticMetaObjectE@Base 4:15.08.0
 _ZN4KPIM25CompletionConfigureDialog17setEmailBlackListERK11QStringList@Base 4:15.08.0
 _ZN4KPIM25CompletionConfigureDialog18setRecentAddressesERK11QStringList@Base 4:15.08.0
 _ZN4KPIM25CompletionConfigureDialog19setLdapClientSearchEPN5KLDAP16LdapClientSearchE@Base 4:15.08.0
 _ZN4KPIM25CompletionConfigureDialog4loadEv@Base 4:15.08.0
 _ZN4KPIM25CompletionConfigureDialog8slotSaveEv@Base 4:15.08.0
 _ZN4KPIM25CompletionConfigureDialogC1EP7QWidget@Base 4:15.08.0
 _ZN4KPIM25CompletionConfigureDialogC2EP7QWidget@Base 4:15.08.0
 _ZN4KPIM25CompletionConfigureDialogD0Ev@Base 4:15.08.0
 _ZN4KPIM25CompletionConfigureDialogD1Ev@Base 4:15.08.0
 _ZN4KPIM25CompletionConfigureDialogD2Ev@Base 4:15.08.0
 _ZN4KPIM27BlackListBalooEmailListItem19setInitializeStatusEb@Base 4:15.08.0
 _ZN4KPIM27BlackListBalooEmailListItemC1EP11QListWidget@Base 4:15.08.0
 _ZN4KPIM27BlackListBalooEmailListItemC2EP11QListWidget@Base 4:15.08.0
 _ZN4KPIM27BlackListBalooEmailListItemD0Ev@Base 4:15.08.0
 _ZN4KPIM27BlackListBalooEmailListItemD1Ev@Base 4:15.08.0
 _ZN4KPIM27BlackListBalooEmailListItemD2Ev@Base 4:15.08.0
 _ZN4KPIM28BlackListBalooEmailSearchJob11emailsFoundERK11QStringList@Base 4:15.08.0
 _ZN4KPIM28BlackListBalooEmailSearchJob11qt_metacallEN11QMetaObject4CallEiPPv@Base 4:15.08.0
 _ZN4KPIM28BlackListBalooEmailSearchJob11qt_metacastEPKc@Base 4:15.08.0
 _ZN4KPIM28BlackListBalooEmailSearchJob14setSearchEmailERK7QString@Base 4:15.08.0
 _ZN4KPIM28BlackListBalooEmailSearchJob16staticMetaObjectE@Base 4:15.08.0
 _ZN4KPIM28BlackListBalooEmailSearchJob5startEv@Base 4:15.08.0
 _ZN4KPIM28BlackListBalooEmailSearchJob8setLimitEi@Base 4:15.08.0
 _ZN4KPIM28BlackListBalooEmailSearchJobC1EP7QObject@Base 4:15.08.0
 _ZN4KPIM28BlackListBalooEmailSearchJobC2EP7QObject@Base 4:15.08.0
 _ZN4KPIM28BlackListBalooEmailSearchJobD0Ev@Base 4:15.08.0
 _ZN4KPIM28BlackListBalooEmailSearchJobD1Ev@Base 4:15.08.0
 _ZN4KPIM28BlackListBalooEmailSearchJobD2Ev@Base 4:15.08.0
 _ZN4KPIM35BlackListBalooEmailCompletionDialog10readConfigEv@Base 4:15.08.0
 _ZN4KPIM35BlackListBalooEmailCompletionDialog11qt_metacallEN11QMetaObject4CallEiPPv@Base 4:15.08.0
 _ZN4KPIM35BlackListBalooEmailCompletionDialog11qt_metacastEPKc@Base 4:15.08.0
 _ZN4KPIM35BlackListBalooEmailCompletionDialog11writeConfigEv@Base 4:15.08.0
 _ZN4KPIM35BlackListBalooEmailCompletionDialog16staticMetaObjectE@Base 4:15.08.0
 _ZN4KPIM35BlackListBalooEmailCompletionDialog17setEmailBlackListERK11QStringList@Base 4:15.08.0
 _ZN4KPIM35BlackListBalooEmailCompletionDialog8slotSaveEv@Base 4:15.08.0
 _ZN4KPIM35BlackListBalooEmailCompletionDialogC1EP7QWidget@Base 4:15.08.0
 _ZN4KPIM35BlackListBalooEmailCompletionDialogC2EP7QWidget@Base 4:15.08.0
 _ZN4KPIM35BlackListBalooEmailCompletionDialogD0Ev@Base 4:15.08.0
 _ZN4KPIM35BlackListBalooEmailCompletionDialogD1Ev@Base 4:15.08.0
 _ZN4KPIM35BlackListBalooEmailCompletionDialogD2Ev@Base 4:15.08.0
 _ZN4KPIM8MailList12fromMimeDataEPK9QMimeData@Base 4:15.08.0
 _ZN4KPIM8MailList12mimeDataTypeEv@Base 4:15.08.0
 _ZN4KPIM8MailList16populateMimeDataEP9QMimeData@Base 4:15.08.0
 _ZN4KPIM8MailList19serialsFromMimeDataEPK9QMimeData@Base 4:15.08.0
 _ZN4KPIM8MailList6decodeERK10QByteArray@Base 4:15.08.0
 _ZN4KPIM8MailList9canDecodeEPK9QMimeData@Base 4:15.08.0
 _ZN4KPIM8TagCombo11qt_metacallEN11QMetaObject4CallEiPPv@Base 4:15.08.0
 _ZN4KPIM8TagCombo11qt_metacastEPKc@Base 4:15.08.0
 _ZN4KPIM8TagCombo16staticMetaObjectE@Base 4:15.08.0
 _ZN4KPIM8TagComboC1EP7QWidget@Base 4:15.08.0
 _ZN4KPIM8TagComboC2EP7QWidget@Base 4:15.08.0
 _ZN4KPIM9KPrefsWid11qt_metacallEN11QMetaObject4CallEiPPv@Base 4:15.08.0
 _ZN4KPIM9KPrefsWid11qt_metacastEPKc@Base 4:15.08.0
 _ZN4KPIM9KPrefsWid16staticMetaObjectE@Base 4:15.08.0
 _ZN4KPIM9KPrefsWid7changedEv@Base 4:15.08.0
 _ZN4KPIM9TagWidget11qt_metacallEN11QMetaObject4CallEiPPv@Base 4:15.08.0
 _ZN4KPIM9TagWidget11qt_metacastEPKc@Base 4:15.08.0
 _ZN4KPIM9TagWidget12onTagCreatedEP4KJob@Base 4:15.08.0
 _ZN4KPIM9TagWidget12setSelectionERK11QStringList@Base 4:15.08.0
 _ZN4KPIM9TagWidget16selectionChangedERK11QStringList@Base 4:15.08.0
 _ZN4KPIM9TagWidget16selectionChangedERK5QListIN7Akonadi3TagEE@Base 4:15.08.0
 _ZN4KPIM9TagWidget16staticMetaObjectE@Base 4:15.08.0
 _ZN4KPIM9TagWidget18onSelectionChangedERK5QListIN7Akonadi3TagEE@Base 4:15.08.0
 _ZN4KPIM9TagWidgetC1EP7QWidget@Base 4:15.08.0
 _ZN4KPIM9TagWidgetC2EP7QWidget@Base 4:15.08.0
 _ZN5KLDAP10LdapClient10startQueryERK7QString@Base 4:15.08.0
 _ZN5KLDAP10LdapClient11cancelQueryEv@Base 4:15.08.0
 _ZN5KLDAP10LdapClient11qt_metacallEN11QMetaObject4CallEiPPv@Base 4:15.08.0
 _ZN5KLDAP10LdapClient11qt_metacastEPKc@Base 4:15.08.0
 _ZN5KLDAP10LdapClient13setAttributesERK11QStringList@Base 4:15.08.0
 _ZN5KLDAP10LdapClient16staticMetaObjectE@Base 4:15.08.0
 _ZN5KLDAP10LdapClient19setCompletionWeightEi@Base 4:15.08.0
 _ZN5KLDAP10LdapClient4doneEv@Base 4:15.08.0
 _ZN5KLDAP10LdapClient5errorERK7QString@Base 4:15.08.0
 _ZN5KLDAP10LdapClient6resultERKS0_RKNS_10LdapObjectE@Base 4:15.08.0
 _ZN5KLDAP10LdapClient7Private12endParseLDIFEv@Base 4:15.08.0
 _ZN5KLDAP10LdapClient7Private14startParseLDIFEv@Base 4:15.08.0
 _ZN5KLDAP10LdapClient7Private15slotInfoMessageEP4KJobRK7QStringS6_@Base 4:15.08.0
 _ZN5KLDAP10LdapClient7Private19finishCurrentObjectEv@Base 4:15.08.0
 _ZN5KLDAP10LdapClient7Private8slotDataEPN3KIO3JobERK10QByteArray@Base 4:15.08.0
 _ZN5KLDAP10LdapClient7Private8slotDataERK10QByteArray@Base 4:15.08.0
 _ZN5KLDAP10LdapClient7Private8slotDoneEv@Base 4:15.08.0
 _ZN5KLDAP10LdapClient7Private9parseLDIFERK10QByteArray@Base 4:15.08.0
 _ZN5KLDAP10LdapClient8setScopeE7QString@Base 4:15.08.0
 _ZN5KLDAP10LdapClient9setServerERKNS_10LdapServerE@Base 4:15.08.0
 _ZN5KLDAP10LdapClientC1EiP7QObject@Base 4:15.08.0
 _ZN5KLDAP10LdapClientC2EiP7QObject@Base 4:15.08.0
 _ZN5KLDAP10LdapClientD0Ev@Base 4:15.08.0
 _ZN5KLDAP10LdapClientD1Ev@Base 4:15.08.0
 _ZN5KLDAP10LdapClientD2Ev@Base 4:15.08.0
 _ZN5KLDAP16LdapClientSearch10searchDataERK11QStringList@Base 4:15.08.0
 _ZN5KLDAP16LdapClientSearch10searchDataERK5QListINS_10LdapResultEE@Base 4:15.08.0
 _ZN5KLDAP16LdapClientSearch10searchDataERK5QListINS_16LdapResultObjectEE@Base 4:15.08.0
 _ZN5KLDAP16LdapClientSearch10searchDoneEv@Base 4:15.08.0
 _ZN5KLDAP16LdapClientSearch11qt_metacallEN11QMetaObject4CallEiPPv@Base 4:15.08.0
 _ZN5KLDAP16LdapClientSearch11qt_metacastEPKc@Base 4:15.08.0
 _ZN5KLDAP16LdapClientSearch11startSearchERK7QString@Base 4:15.08.0
 _ZN5KLDAP16LdapClientSearch12cancelSearchEv@Base 4:15.08.0
 _ZN5KLDAP16LdapClientSearch13setAttributesERK11QStringList@Base 4:15.08.0
 _ZN5KLDAP16LdapClientSearch16staticMetaObjectE@Base 4:15.08.0
 _ZN5KLDAP16LdapClientSearch23updateCompletionWeightsEv@Base 4:15.08.0
 _ZN5KLDAP16LdapClientSearch7Private10readConfigEv@Base 4:15.08.0
 _ZN5KLDAP16LdapClientSearch7Private12slotLDAPDoneEv@Base 4:15.08.0
 _ZN5KLDAP16LdapClientSearch7Private13slotDataTimerEv@Base 4:15.08.0
 _ZN5KLDAP16LdapClientSearch7Private13slotLDAPErrorERK7QString@Base 4:15.08.0
 _ZN5KLDAP16LdapClientSearch7Private14makeSearchDataER11QStringListR5QListINS_10LdapResultEE@Base 4:15.08.0
 _ZN5KLDAP16LdapClientSearch7Private14slotLDAPResultERKNS_10LdapClientERKNS_10LdapObjectE@Base 4:15.08.0
 _ZN5KLDAP16LdapClientSearch7Private15slotFileChangedERK7QString@Base 4:15.08.0
 _ZN5KLDAP16LdapClientSearch7Private18readWeighForClientEPNS_10LdapClientERK12KConfigGroupi@Base 4:15.08.0
 _ZN5KLDAP16LdapClientSearch7Private6finishEv@Base 4:15.08.0
 _ZN5KLDAP16LdapClientSearch9setFilterERK7QString@Base 4:15.08.0
 _ZN5KLDAP16LdapClientSearchC1EP7QObject@Base 4:15.08.0
 _ZN5KLDAP16LdapClientSearchC2EP7QObject@Base 4:15.08.0
 _ZN5KLDAP16LdapClientSearchD0Ev@Base 4:15.08.0
 _ZN5KLDAP16LdapClientSearchD1Ev@Base 4:15.08.0
 _ZN5KLDAP16LdapClientSearchD2Ev@Base 4:15.08.0
 _ZN5KLDAP16LdapSearchDialog10closeEventEP11QCloseEvent@Base 4:15.08.0
 _ZN5KLDAP16LdapSearchDialog11qt_metacallEN11QMetaObject4CallEiPPv@Base 4:15.08.0
 _ZN5KLDAP16LdapSearchDialog11qt_metacastEPKc@Base 4:15.08.0
 _ZN5KLDAP16LdapSearchDialog13contactsAddedEv@Base 4:15.08.0
 _ZN5KLDAP16LdapSearchDialog13setSearchTextERK7QString@Base 4:15.08.0
 _ZN5KLDAP16LdapSearchDialog16staticMetaObjectE@Base 4:15.08.0
 _ZN5KLDAP16LdapSearchDialog17slotCancelClickedEv@Base 4:15.08.0
 _ZN5KLDAP16LdapSearchDialog30slotCustomContextMenuRequestedERK6QPoint@Base 4:15.08.0
 _ZN5KLDAP16LdapSearchDialog7Private11cancelQueryEv@Base 4:15.08.0
 _ZN5KLDAP16LdapSearchDialog7Private12saveSettingsEv@Base 4:15.08.0
 _ZN5KLDAP16LdapSearchDialog7Private12slotSetScopeEb@Base 4:15.08.0
 _ZN5KLDAP16LdapSearchDialog7Private13slotAddResultERKNS_10LdapClientERKNS_10LdapObjectE@Base 4:15.08.0
 _ZN5KLDAP16LdapSearchDialog7Private13slotSelectAllEv@Base 4:15.08.0
 _ZN5KLDAP16LdapSearchDialog7Private14slotSearchDoneEv@Base 4:15.08.0
 _ZN5KLDAP16LdapSearchDialog7Private14slotStopSearchEv@Base 4:15.08.0
 _ZN5KLDAP16LdapSearchDialog7Private15restoreSettingsEv@Base 4:15.08.0
 _ZN5KLDAP16LdapSearchDialog7Private15slotStartSearchEv@Base 4:15.08.0
 _ZN5KLDAP16LdapSearchDialog7Private15slotUnselectAllEv@Base 4:15.08.0
 _ZN5KLDAP16LdapSearchDialog7Private20slotSelectionChangedEv@Base 4:15.08.0
 _ZN5KLDAP16LdapSearchDialog7Private9slotErrorERK7QString@Base 4:15.08.0
 _ZN5KLDAP16LdapSearchDialog9slotUser1Ev@Base 4:15.08.0
 _ZN5KLDAP16LdapSearchDialog9slotUser2Ev@Base 4:15.08.0
 _ZN5KLDAP16LdapSearchDialogC1EP7QWidget@Base 4:15.08.0
 _ZN5KLDAP16LdapSearchDialogC2EP7QWidget@Base 4:15.08.0
 _ZN5KLDAP16LdapSearchDialogD0Ev@Base 4:15.08.0
 _ZN5KLDAP16LdapSearchDialogD1Ev@Base 4:15.08.0
 _ZN5KLDAP16LdapSearchDialogD2Ev@Base 4:15.08.0
 _ZN5KLDAP22LdapClientSearchConfig10readConfigERNS_10LdapServerER12KConfigGroupib@Base 4:15.08.0
 _ZN5KLDAP22LdapClientSearchConfig11qt_metacallEN11QMetaObject4CallEiPPv@Base 4:15.08.0
 _ZN5KLDAP22LdapClientSearchConfig11qt_metacastEPKc@Base 4:15.08.0
 _ZN5KLDAP22LdapClientSearchConfig11writeConfigERKNS_10LdapServerER12KConfigGroupib@Base 4:15.08.0
 _ZN5KLDAP22LdapClientSearchConfig12askForWalletEb@Base 4:15.08.0
 _ZN5KLDAP22LdapClientSearchConfig16slotWalletClosedEv@Base 4:15.08.0
 _ZN5KLDAP22LdapClientSearchConfig16staticMetaObjectE@Base 4:15.08.0
 _ZN5KLDAP22LdapClientSearchConfig6configEv@Base 4:15.08.0
 _ZN5KLDAP22LdapClientSearchConfigC1EP7QObject@Base 4:15.08.0
 _ZN5KLDAP22LdapClientSearchConfigC2EP7QObject@Base 4:15.08.0
 _ZN5KLDAP22LdapClientSearchConfigD0Ev@Base 4:15.08.0
 _ZN5KLDAP22LdapClientSearchConfigD1Ev@Base 4:15.08.0
 _ZN5KLDAP22LdapClientSearchConfigD2Ev@Base 4:15.08.0
 (optional=templinst)_ZN7Akonadi4Item14setPayloadImplIN9KContacts9AddresseeEEENSt9enable_ifIXntsrNS_8Internal12PayloadTraitIT_EE13isPolymorphicEvE4typeERKS7_@Base 4:15.08.0
 (optional=templinst)_ZNK12KConfigGroup9readEntryI10QByteArrayEET_PKcRKS2_@Base 4:15.08.0
 (optional=templinst)_ZNK12KConfigGroup9readEntryI5QSizeEET_PKcRKS2_@Base 4:15.08.0
 (optional=templinst)_ZNK12KConfigGroup9readEntryIbEET_PKcRKS1_@Base 4:15.08.0
 (optional=templinst)_ZNK12KConfigGroup9readEntryIiEE5QListIT_EPKcRKS3_@Base 4:15.08.0
 (optional=templinst)_ZNK12KConfigGroup9readEntryIiEET_PKcRKS1_@Base 4:15.08.0
 _ZNK13AddHostDialog10metaObjectEv@Base 4:15.08.0
 _ZNK4KPIM11MailSummary12serialNumberEv@Base 4:15.08.0
 _ZNK4KPIM11MailSummary2toEv@Base 4:15.08.0
 _ZNK4KPIM11MailSummary4dateEv@Base 4:15.08.0
 _ZNK4KPIM11MailSummary4fromEv@Base 4:15.08.0
 _ZNK4KPIM11MailSummary7subjectEv@Base 4:15.08.0
 _ZNK4KPIM11MailSummary9messageIdEv@Base 4:15.08.0
 _ZNK4KPIM12FreeBusyItem13isDownloadingEv@Base 4:15.08.0
 _ZNK4KPIM12FreeBusyItem13updateTimerIDEv@Base 4:15.08.0
 _ZNK4KPIM12FreeBusyItem5emailEv@Base 4:15.08.0
 _ZNK4KPIM12FreeBusyItem8attendeeEv@Base 4:15.08.0
 _ZNK4KPIM12FreeBusyItem8freeBusyEv@Base 4:15.08.0
 _ZNK4KPIM12KPrefsDialog10metaObjectEv@Base 4:15.08.0
 _ZNK4KPIM12KPrefsModule10metaObjectEv@Base 4:15.08.0
 _ZNK4KPIM12KPrefsWidInt5labelEv@Base 4:15.08.0
 _ZNK4KPIM12KPrefsWidInt7widgetsEv@Base 4:15.08.0
 _ZNK4KPIM12ProgressItem10metaObjectEv@Base 4:15.08.0
 _ZNK4KPIM12ProgressItem16typeProgressItemEv@Base 4:15.08.0
 _ZNK4KPIM13AddContactJob10metaObjectEv@Base 4:15.08.0
 _ZNK4KPIM13KPrefsWidBool7widgetsEv@Base 4:15.08.0
 _ZNK4KPIM13KPrefsWidFont10metaObjectEv@Base 4:15.08.0
 _ZNK4KPIM13KPrefsWidPath7widgetsEv@Base 4:15.08.0
 _ZNK4KPIM13KWidgetLister10metaObjectEv@Base 4:15.08.0
 _ZNK4KPIM13KWidgetLister14widgetsMaximumEv@Base 4:15.08.0
 _ZNK4KPIM13KWidgetLister14widgetsMinimumEv@Base 4:15.08.0
 _ZNK4KPIM13KWidgetLister7widgetsEv@Base 4:15.08.0
 _ZNK4KPIM13OverlayWidget10metaObjectEv@Base 4:15.08.0
 _ZNK4KPIM14EmailValidator5fixupER7QString@Base 4:15.08.0
 _ZNK4KPIM14EmailValidator8validateER7QStringRi@Base 4:15.08.0
 _ZNK4KPIM14KCheckComboBox10metaObjectEv@Base 4:15.08.0
 _ZNK4KPIM14KCheckComboBox11defaultTextEv@Base 4:15.08.0
 _ZNK4KPIM14KCheckComboBox11squeezeTextEv@Base 4:15.08.0
 _ZNK4KPIM14KCheckComboBox12checkedItemsEi@Base 4:15.08.0
 _ZNK4KPIM14KCheckComboBox14itemCheckStateEi@Base 4:15.08.0
 _ZNK4KPIM14KCheckComboBox21alwaysShowDefaultTextEv@Base 4:15.08.0
 _ZNK4KPIM14KCheckComboBox9separatorEv@Base 4:15.08.0
 _ZNK4KPIM14KPrefsWidColor10metaObjectEv@Base 4:15.08.0
 _ZNK4KPIM14KPrefsWidCombo5labelEv@Base 4:15.08.0
 _ZNK4KPIM14KPrefsWidCombo7widgetsEv@Base 4:15.08.0
 _ZNK4KPIM14ProgressDialog10metaObjectEv@Base 4:15.08.0
 _ZNK4KPIM15BroadcastStatus10metaObjectEv@Base 4:15.08.0
 _ZNK4KPIM15CustomLogWidget11toPlainTextEv@Base 4:15.08.0
 _ZNK4KPIM15CustomLogWidget6toHtmlEv@Base 4:15.08.0
 _ZNK4KPIM15CustomLogWidget7isEmptyEv@Base 4:15.08.0
 _ZNK4KPIM15FreePeriodModel10headerDataEiN2Qt11OrientationEi@Base 4:15.08.0
 _ZNK4KPIM15FreePeriodModel10metaObjectEv@Base 4:15.08.0
 _ZNK4KPIM15FreePeriodModel10tooltipifyEi@Base 4:15.08.0
 _ZNK4KPIM15FreePeriodModel11columnCountERK11QModelIndex@Base 4:15.08.0
 _ZNK4KPIM15FreePeriodModel3dayEi@Base 4:15.08.0
 _ZNK4KPIM15FreePeriodModel4dataERK11QModelIndexi@Base 4:15.08.0
 _ZNK4KPIM15FreePeriodModel4dateEi@Base 4:15.08.0
 _ZNK4KPIM15FreePeriodModel8rowCountERK11QModelIndex@Base 4:15.08.0
 _ZNK4KPIM15FreePeriodModel9stringifyEi@Base 4:15.08.0
 _ZNK4KPIM15KPrefsWidRadios7widgetsEv@Base 4:15.08.0
 _ZNK4KPIM15KPrefsWidRadios8groupBoxEv@Base 4:15.08.0
 _ZNK4KPIM15KPrefsWidString7widgetsEv@Base 4:15.08.0
 _ZNK4KPIM15MultiplyingLine10metaObjectEv@Base 4:15.08.0
 _ZNK4KPIM15PersonSearchJob10metaObjectEv@Base 4:15.08.0
 _ZNK4KPIM15PersonSearchJob7matchesEv@Base 4:15.08.0
 _ZNK4KPIM15ProgressManager10metaObjectEv@Base 4:15.08.0
 _ZNK4KPIM15ProgressManager10singleItemEv@Base 4:15.08.0
 _ZNK4KPIM15ProgressManager7isEmptyEv@Base 4:15.08.0
 _ZNK4KPIM15RecentAddresses9addressesEv@Base 4:15.08.0
 _ZNK4KPIM16FreeBusyCalendar10metaObjectEv@Base 4:15.08.0
 _ZNK4KPIM16FreeBusyCalendar5modelEv@Base 4:15.08.0
 _ZNK4KPIM16FreeBusyCalendar8calendarEv@Base 4:15.08.0
 _ZNK4KPIM16KDatePickerPopup10datePickerEv@Base 4:15.08.0
 _ZNK4KPIM16KDatePickerPopup10metaObjectEv@Base 4:15.08.0
 _ZNK4KPIM17AddEmailDiplayJob10metaObjectEv@Base 4:15.08.0
 _ZNK4KPIM17AddresseeLineEdit10ldapSearchEv@Base 4:15.08.0
 _ZNK4KPIM17AddresseeLineEdit10metaObjectEv@Base 4:15.08.0
 _ZNK4KPIM17AddresseeLineEdit14balooBlackListEv@Base 4:15.08.0
 _ZNK4KPIM17AddresseeLineEdit19isCompletionEnabledEv@Base 4:15.08.0
 _ZNK4KPIM17FreeBusyItemModel10headerDataEiN2Qt11OrientationEi@Base 4:15.08.0
 _ZNK4KPIM17FreeBusyItemModel10metaObjectEv@Base 4:15.08.0
 _ZNK4KPIM17FreeBusyItemModel11columnCountERK11QModelIndex@Base 4:15.08.0
 _ZNK4KPIM17FreeBusyItemModel4dataERK11QModelIndexi@Base 4:15.08.0
 _ZNK4KPIM17FreeBusyItemModel5indexEiiRK11QModelIndex@Base 4:15.08.0
 _ZNK4KPIM17FreeBusyItemModel6parentERK11QModelIndex@Base 4:15.08.0
 _ZNK4KPIM17FreeBusyItemModel8rowCountERK11QModelIndex@Base 4:15.08.0
 _ZNK4KPIM17TagSelectionCombo10metaObjectEv@Base 4:15.08.0
 _ZNK4KPIM18AddEmailAddressJob10metaObjectEv@Base 4:15.08.0
 _ZNK4KPIM18AddEmailAddressJob7contactEv@Base 4:15.08.0
 _ZNK4KPIM18KWeekdayCheckCombo10metaObjectEv@Base 4:15.08.0
 _ZNK4KPIM18KWeekdayCheckCombo12weekdayIndexERK5QDate@Base 4:15.08.0
 _ZNK4KPIM18KWeekdayCheckCombo4daysEv@Base 4:15.08.0
 _ZNK4KPIM18TagSelectionDialog10metaObjectEv@Base 4:15.08.0
 _ZNK4KPIM18TagSelectionDialog12tagSelectionEv@Base 4:15.08.0
 _ZNK4KPIM18TagSelectionDialog9selectionEv@Base 4:15.08.0
 _ZNK4KPIM19CollectionSearchJob10metaObjectEv@Base 4:15.08.0
 _ZNK4KPIM19CollectionSearchJob19matchingCollectionsEv@Base 4:15.08.0
 _ZNK4KPIM19OpenEmailAddressJob10metaObjectEv@Base 4:15.08.0
 _ZNK4KPIM19RecentAddressDialog10metaObjectEv@Base 4:15.08.0
 _ZNK4KPIM19RecentAddressDialog10wasChangedEv@Base 4:15.08.0
 _ZNK4KPIM20QuotaColorProxyModel10metaObjectEv@Base 4:15.08.0
 _ZNK4KPIM20QuotaColorProxyModel12warningColorEv@Base 4:15.08.0
 _ZNK4KPIM20QuotaColorProxyModel16warningThresholdEv@Base 4:15.08.0
 _ZNK4KPIM20QuotaColorProxyModel4dataERK11QModelIndexi@Base 4:15.08.0
 _ZNK4KPIM21CompletionOrderEditor10metaObjectEv@Base 4:15.08.0
 _ZNK4KPIM21CompletionOrderWidget10metaObjectEv@Base 4:15.08.0
 _ZNK4KPIM21MultiplyingLineEditor10activeDataEv@Base 4:15.08.0
 _ZNK4KPIM21MultiplyingLineEditor10activeLineEv@Base 4:15.08.0
 _ZNK4KPIM21MultiplyingLineEditor10metaObjectEv@Base 4:15.08.0
 _ZNK4KPIM21MultiplyingLineEditor15dynamicSizeHintEv@Base 4:15.08.0
 _ZNK4KPIM21MultiplyingLineEditor5linesEv@Base 4:15.08.0
 _ZNK4KPIM21MultiplyingLineEditor7allDataEv@Base 4:15.08.0
 _ZNK4KPIM21MultiplyingLineEditor7factoryEv@Base 4:15.08.0
 _ZNK4KPIM22MultiplyingLineFactory10metaObjectEv@Base 4:15.08.0
 _ZNK4KPIM22ProgressIndicatorLabel10metaObjectEv@Base 4:15.08.0
 _ZNK4KPIM23BlackListBalooEmailList10metaObjectEv@Base 4:15.08.0
 _ZNK4KPIM23BlackListBalooEmailList20blackListItemChangedEv@Base 4:15.08.0
 _ZNK4KPIM23KColumnFilterProxyModel14visbileColumnsEv@Base 4:15.08.0
 _ZNK4KPIM23KColumnFilterProxyModel19filterAcceptsColumnEiRK11QModelIndex@Base 4:15.08.0
 _ZNK4KPIM23ProgressIndicatorWidget10metaObjectEv@Base 4:15.08.0
 _ZNK4KPIM23ProgressIndicatorWidget8isActiveEv@Base 4:15.08.0
 _ZNK4KPIM23ProgressStatusBarWidget10metaObjectEv@Base 4:15.08.0
 _ZNK4KPIM23ProgressStatusBarWidget14littleProgressEv@Base 4:15.08.0
 _ZNK4KPIM23StatusbarProgressWidget10metaObjectEv@Base 4:15.08.0
 _ZNK4KPIM25CompletionConfigureDialog10metaObjectEv@Base 4:15.08.0
 _ZNK4KPIM25CompletionConfigureDialog23recentAddressWasChangedEv@Base 4:15.08.0
 _ZNK4KPIM27BlackListBalooEmailListItem16initializeStatusEv@Base 4:15.08.0
 _ZNK4KPIM28BlackListBalooEmailSearchJob10metaObjectEv@Base 4:15.08.0
 _ZNK4KPIM35BlackListBalooEmailCompletionDialog10metaObjectEv@Base 4:15.08.0
 _ZNK4KPIM8TagCombo10metaObjectEv@Base 4:15.08.0
 _ZNK4KPIM9KPrefsWid10metaObjectEv@Base 4:15.08.0
 _ZNK4KPIM9KPrefsWid7widgetsEv@Base 4:15.08.0
 _ZNK4KPIM9TagWidget10metaObjectEv@Base 4:15.08.0
 _ZNK4KPIM9TagWidget9selectionEv@Base 4:15.08.0
 _ZNK5KLDAP10LdapClient10attributesEv@Base 4:15.08.0
 _ZNK5KLDAP10LdapClient10metaObjectEv@Base 4:15.08.0
 _ZNK5KLDAP10LdapClient12clientNumberEv@Base 4:15.08.0
 _ZNK5KLDAP10LdapClient16completionWeightEv@Base 4:15.08.0
 _ZNK5KLDAP10LdapClient6serverEv@Base 4:15.08.0
 _ZNK5KLDAP10LdapClient8isActiveEv@Base 4:15.08.0
 _ZNK5KLDAP16LdapClientSearch10attributesEv@Base 4:15.08.0
 _ZNK5KLDAP16LdapClientSearch10metaObjectEv@Base 4:15.08.0
 _ZNK5KLDAP16LdapClientSearch11isAvailableEv@Base 4:15.08.0
 _ZNK5KLDAP16LdapClientSearch6filterEv@Base 4:15.08.0
 _ZNK5KLDAP16LdapClientSearch7clientsEv@Base 4:15.08.0
 _ZNK5KLDAP16LdapSearchDialog10metaObjectEv@Base 4:15.08.0
 _ZNK5KLDAP16LdapSearchDialog16selectedContactsEv@Base 4:15.08.0
 _ZNK5KLDAP22LdapClientSearchConfig10metaObjectEv@Base 4:15.08.0
 (optional=templinst)_ZNK7Akonadi4Item11payloadImplIN9KContacts12ContactGroupEEENSt9enable_ifIXntsrNS_8Internal12PayloadTraitIT_EE13isPolymorphicES7_E4typeEv@Base 4:15.08.0
 (optional=templinst)_ZNK7Akonadi4Item11payloadImplIN9KContacts9AddresseeEEENSt9enable_ifIXntsrNS_8Internal12PayloadTraitIT_EE13isPolymorphicES7_E4typeEv@Base 4:15.08.0
 (optional=templinst)_ZNK7Akonadi4Item14hasPayloadImplIN9KContacts12ContactGroupEEENSt9enable_ifIXntsrNS_8Internal12PayloadTraitIT_EE13isPolymorphicEbE4typeEv@Base 4:15.08.0
 _ZTI13AddHostDialog@Base 4:15.08.0
 _ZTIN4KPIM12KPrefsDialogE@Base 4:15.08.0
 _ZTIN4KPIM12KPrefsModuleE@Base 4:15.08.0
 _ZTIN4KPIM12KPrefsWidIntE@Base 4:15.08.0
 _ZTIN4KPIM12ProgressItemE@Base 4:15.08.0
 _ZTIN4KPIM13AddContactJobE@Base 4:15.08.0
 _ZTIN4KPIM13KPrefsWidBoolE@Base 4:15.08.0
 _ZTIN4KPIM13KPrefsWidDateE@Base 4:15.08.0
 _ZTIN4KPIM13KPrefsWidFontE@Base 4:15.08.0
 _ZTIN4KPIM13KPrefsWidPathE@Base 4:15.08.0
 _ZTIN4KPIM13KPrefsWidTimeE@Base 4:15.08.0
 _ZTIN4KPIM13KWidgetListerE@Base 4:15.08.0
 _ZTIN4KPIM13OverlayWidgetE@Base 4:15.08.0
 _ZTIN4KPIM14EmailValidatorE@Base 4:15.08.0
 _ZTIN4KPIM14KCheckComboBoxE@Base 4:15.08.0
 _ZTIN4KPIM14KPrefsWidColorE@Base 4:15.08.0
 _ZTIN4KPIM14KPrefsWidComboE@Base 4:15.08.0
 _ZTIN4KPIM14ProgressDialogE@Base 4:15.08.0
 _ZTIN4KPIM15BroadcastStatusE@Base 4:15.08.0
 _ZTIN4KPIM15CustomLogWidgetE@Base 4:15.08.0
 _ZTIN4KPIM15FreePeriodModelE@Base 4:15.08.0
 _ZTIN4KPIM15KPrefsWidRadiosE@Base 4:15.08.0
 _ZTIN4KPIM15KPrefsWidStringE@Base 4:15.08.0
 _ZTIN4KPIM15MultiplyingLineE@Base 4:15.08.0
 _ZTIN4KPIM15PersonSearchJobE@Base 4:15.08.0
 _ZTIN4KPIM15ProgressManagerE@Base 4:15.08.0
 _ZTIN4KPIM16FreeBusyCalendarE@Base 4:15.08.0
 _ZTIN4KPIM16KDatePickerPopupE@Base 4:15.08.0
 _ZTIN4KPIM16KPrefsWidManagerE@Base 4:15.08.0
 _ZTIN4KPIM17AddEmailDiplayJobE@Base 4:15.08.0
 _ZTIN4KPIM17AddresseeLineEditE@Base 4:15.08.0
 _ZTIN4KPIM17FreeBusyItemModelE@Base 4:15.08.0
 _ZTIN4KPIM17KPrefsWidDurationE@Base 4:15.08.0
 _ZTIN4KPIM17TagSelectionComboE@Base 4:15.08.0
 _ZTIN4KPIM18AddEmailAddressJobE@Base 4:15.08.0
 _ZTIN4KPIM18KWeekdayCheckComboE@Base 4:15.08.0
 _ZTIN4KPIM18TagSelectionDialogE@Base 4:15.08.0
 _ZTIN4KPIM19CollectionSearchJobE@Base 4:15.08.0
 _ZTIN4KPIM19OpenEmailAddressJobE@Base 4:15.08.0
 _ZTIN4KPIM19RecentAddressDialogE@Base 4:15.08.0
 _ZTIN4KPIM20QuotaColorProxyModelE@Base 4:15.08.0
 _ZTIN4KPIM21CompletionOrderEditorE@Base 4:15.08.0
 _ZTIN4KPIM21CompletionOrderWidgetE@Base 4:15.08.0
 _ZTIN4KPIM21MultiplyingLineEditorE@Base 4:15.08.0
 _ZTIN4KPIM22MultiplyingLineFactoryE@Base 4:15.08.0
 _ZTIN4KPIM22ProgressIndicatorLabelE@Base 4:15.08.0
 _ZTIN4KPIM23BlackListBalooEmailListE@Base 4:15.08.0
 _ZTIN4KPIM23KColumnFilterProxyModelE@Base 4:15.08.0
 _ZTIN4KPIM23ProgressIndicatorWidgetE@Base 4:15.08.0
 _ZTIN4KPIM23ProgressStatusBarWidgetE@Base 4:15.08.0
 _ZTIN4KPIM23StatusbarProgressWidgetE@Base 4:15.08.0
 _ZTIN4KPIM25CompletionConfigureDialogE@Base 4:15.08.0
 _ZTIN4KPIM27BlackListBalooEmailListItemE@Base 4:15.08.0
 _ZTIN4KPIM28BlackListBalooEmailSearchJobE@Base 4:15.08.0
 _ZTIN4KPIM35BlackListBalooEmailCompletionDialogE@Base 4:15.08.0
 _ZTIN4KPIM8TagComboE@Base 4:15.08.0
 _ZTIN4KPIM9KPrefsWidE@Base 4:15.08.0
 _ZTIN4KPIM9TagWidgetE@Base 4:15.08.0
 _ZTIN5KLDAP10LdapClientE@Base 4:15.08.0
 _ZTIN5KLDAP16LdapClientSearchE@Base 4:15.08.0
 _ZTIN5KLDAP16LdapSearchDialogE@Base 4:15.08.0
 _ZTIN5KLDAP22LdapClientSearchConfigE@Base 4:15.08.0
 _ZTS13AddHostDialog@Base 4:15.08.0
 _ZTSN4KPIM12KPrefsDialogE@Base 4:15.08.0
 _ZTSN4KPIM12KPrefsModuleE@Base 4:15.08.0
 _ZTSN4KPIM12KPrefsWidIntE@Base 4:15.08.0
 _ZTSN4KPIM12ProgressItemE@Base 4:15.08.0
 _ZTSN4KPIM13AddContactJobE@Base 4:15.08.0
 _ZTSN4KPIM13KPrefsWidBoolE@Base 4:15.08.0
 _ZTSN4KPIM13KPrefsWidDateE@Base 4:15.08.0
 _ZTSN4KPIM13KPrefsWidFontE@Base 4:15.08.0
 _ZTSN4KPIM13KPrefsWidPathE@Base 4:15.08.0
 _ZTSN4KPIM13KPrefsWidTimeE@Base 4:15.08.0
 _ZTSN4KPIM13KWidgetListerE@Base 4:15.08.0
 _ZTSN4KPIM13OverlayWidgetE@Base 4:15.08.0
 _ZTSN4KPIM14EmailValidatorE@Base 4:15.08.0
 _ZTSN4KPIM14KCheckComboBoxE@Base 4:15.08.0
 _ZTSN4KPIM14KPrefsWidColorE@Base 4:15.08.0
 _ZTSN4KPIM14KPrefsWidComboE@Base 4:15.08.0
 _ZTSN4KPIM14ProgressDialogE@Base 4:15.08.0
 _ZTSN4KPIM15BroadcastStatusE@Base 4:15.08.0
 _ZTSN4KPIM15CustomLogWidgetE@Base 4:15.08.0
 _ZTSN4KPIM15FreePeriodModelE@Base 4:15.08.0
 _ZTSN4KPIM15KPrefsWidRadiosE@Base 4:15.08.0
 _ZTSN4KPIM15KPrefsWidStringE@Base 4:15.08.0
 _ZTSN4KPIM15MultiplyingLineE@Base 4:15.08.0
 _ZTSN4KPIM15PersonSearchJobE@Base 4:15.08.0
 _ZTSN4KPIM15ProgressManagerE@Base 4:15.08.0
 _ZTSN4KPIM16FreeBusyCalendarE@Base 4:15.08.0
 _ZTSN4KPIM16KDatePickerPopupE@Base 4:15.08.0
 _ZTSN4KPIM16KPrefsWidManagerE@Base 4:15.08.0
 _ZTSN4KPIM17AddEmailDiplayJobE@Base 4:15.08.0
 _ZTSN4KPIM17AddresseeLineEditE@Base 4:15.08.0
 _ZTSN4KPIM17FreeBusyItemModelE@Base 4:15.08.0
 _ZTSN4KPIM17KPrefsWidDurationE@Base 4:15.08.0
 _ZTSN4KPIM17TagSelectionComboE@Base 4:15.08.0
 _ZTSN4KPIM18AddEmailAddressJobE@Base 4:15.08.0
 _ZTSN4KPIM18KWeekdayCheckComboE@Base 4:15.08.0
 _ZTSN4KPIM18TagSelectionDialogE@Base 4:15.08.0
 _ZTSN4KPIM19CollectionSearchJobE@Base 4:15.08.0
 _ZTSN4KPIM19OpenEmailAddressJobE@Base 4:15.08.0
 _ZTSN4KPIM19RecentAddressDialogE@Base 4:15.08.0
 _ZTSN4KPIM20QuotaColorProxyModelE@Base 4:15.08.0
 _ZTSN4KPIM21CompletionOrderEditorE@Base 4:15.08.0
 _ZTSN4KPIM21CompletionOrderWidgetE@Base 4:15.08.0
 _ZTSN4KPIM21MultiplyingLineEditorE@Base 4:15.08.0
 _ZTSN4KPIM22MultiplyingLineFactoryE@Base 4:15.08.0
 _ZTSN4KPIM22ProgressIndicatorLabelE@Base 4:15.08.0
 _ZTSN4KPIM23BlackListBalooEmailListE@Base 4:15.08.0
 _ZTSN4KPIM23KColumnFilterProxyModelE@Base 4:15.08.0
 _ZTSN4KPIM23ProgressIndicatorWidgetE@Base 4:15.08.0
 _ZTSN4KPIM23ProgressStatusBarWidgetE@Base 4:15.08.0
 _ZTSN4KPIM23StatusbarProgressWidgetE@Base 4:15.08.0
 _ZTSN4KPIM25CompletionConfigureDialogE@Base 4:15.08.0
 _ZTSN4KPIM27BlackListBalooEmailListItemE@Base 4:15.08.0
 _ZTSN4KPIM28BlackListBalooEmailSearchJobE@Base 4:15.08.0
 _ZTSN4KPIM35BlackListBalooEmailCompletionDialogE@Base 4:15.08.0
 _ZTSN4KPIM8TagComboE@Base 4:15.08.0
 _ZTSN4KPIM9KPrefsWidE@Base 4:15.08.0
 _ZTSN4KPIM9TagWidgetE@Base 4:15.08.0
 _ZTSN5KLDAP10LdapClientE@Base 4:15.08.0
 _ZTSN5KLDAP16LdapClientSearchE@Base 4:15.08.0
 _ZTSN5KLDAP16LdapSearchDialogE@Base 4:15.08.0
 _ZTSN5KLDAP22LdapClientSearchConfigE@Base 4:15.08.0
 _ZTV13AddHostDialog@Base 4:15.08.0
 _ZTVN4KPIM12KPrefsDialogE@Base 4:15.08.0
 _ZTVN4KPIM12KPrefsModuleE@Base 4:15.08.0
 _ZTVN4KPIM12KPrefsWidIntE@Base 4:15.08.0
 _ZTVN4KPIM12ProgressItemE@Base 4:15.08.0
 _ZTVN4KPIM13AddContactJobE@Base 4:15.08.0
 _ZTVN4KPIM13KPrefsWidBoolE@Base 4:15.08.0
 _ZTVN4KPIM13KPrefsWidDateE@Base 4:15.08.0
 _ZTVN4KPIM13KPrefsWidFontE@Base 4:15.08.0
 _ZTVN4KPIM13KPrefsWidPathE@Base 4:15.08.0
 _ZTVN4KPIM13KPrefsWidTimeE@Base 4:15.08.0
 _ZTVN4KPIM13KWidgetListerE@Base 4:15.08.0
 _ZTVN4KPIM13OverlayWidgetE@Base 4:15.08.0
 _ZTVN4KPIM14EmailValidatorE@Base 4:15.08.0
 _ZTVN4KPIM14KCheckComboBoxE@Base 4:15.08.0
 _ZTVN4KPIM14KPrefsWidColorE@Base 4:15.08.0
 _ZTVN4KPIM14KPrefsWidComboE@Base 4:15.08.0
 _ZTVN4KPIM14ProgressDialogE@Base 4:15.08.0
 _ZTVN4KPIM15BroadcastStatusE@Base 4:15.08.0
 _ZTVN4KPIM15CustomLogWidgetE@Base 4:15.08.0
 _ZTVN4KPIM15FreePeriodModelE@Base 4:15.08.0
 _ZTVN4KPIM15KPrefsWidRadiosE@Base 4:15.08.0
 _ZTVN4KPIM15KPrefsWidStringE@Base 4:15.08.0
 _ZTVN4KPIM15MultiplyingLineE@Base 4:15.08.0
 _ZTVN4KPIM15PersonSearchJobE@Base 4:15.08.0
 _ZTVN4KPIM15ProgressManagerE@Base 4:15.08.0
 _ZTVN4KPIM16FreeBusyCalendarE@Base 4:15.08.0
 _ZTVN4KPIM16KDatePickerPopupE@Base 4:15.08.0
 _ZTVN4KPIM16KPrefsWidManagerE@Base 4:15.08.0
 _ZTVN4KPIM17AddEmailDiplayJobE@Base 4:15.08.0
 _ZTVN4KPIM17AddresseeLineEditE@Base 4:15.08.0
 _ZTVN4KPIM17FreeBusyItemModelE@Base 4:15.08.0
 _ZTVN4KPIM17KPrefsWidDurationE@Base 4:15.08.0
 _ZTVN4KPIM17TagSelectionComboE@Base 4:15.08.0
 _ZTVN4KPIM18AddEmailAddressJobE@Base 4:15.08.0
 _ZTVN4KPIM18KWeekdayCheckComboE@Base 4:15.08.0
 _ZTVN4KPIM18TagSelectionDialogE@Base 4:15.08.0
 _ZTVN4KPIM19CollectionSearchJobE@Base 4:15.08.0
 _ZTVN4KPIM19OpenEmailAddressJobE@Base 4:15.08.0
 _ZTVN4KPIM19RecentAddressDialogE@Base 4:15.08.0
 _ZTVN4KPIM20QuotaColorProxyModelE@Base 4:15.08.0
 _ZTVN4KPIM21CompletionOrderEditorE@Base 4:15.08.0
 _ZTVN4KPIM21CompletionOrderWidgetE@Base 4:15.08.0
 _ZTVN4KPIM21MultiplyingLineEditorE@Base 4:15.08.0
 _ZTVN4KPIM22MultiplyingLineFactoryE@Base 4:15.08.0
 _ZTVN4KPIM22ProgressIndicatorLabelE@Base 4:15.08.0
 _ZTVN4KPIM23BlackListBalooEmailListE@Base 4:15.08.0
 _ZTVN4KPIM23KColumnFilterProxyModelE@Base 4:15.08.0
 _ZTVN4KPIM23ProgressIndicatorWidgetE@Base 4:15.08.0
 _ZTVN4KPIM23ProgressStatusBarWidgetE@Base 4:15.08.0
 _ZTVN4KPIM23StatusbarProgressWidgetE@Base 4:15.08.0
 _ZTVN4KPIM25CompletionConfigureDialogE@Base 4:15.08.0
 _ZTVN4KPIM27BlackListBalooEmailListItemE@Base 4:15.08.0
 _ZTVN4KPIM28BlackListBalooEmailSearchJobE@Base 4:15.08.0
 _ZTVN4KPIM35BlackListBalooEmailCompletionDialogE@Base 4:15.08.0
 _ZTVN4KPIM8TagComboE@Base 4:15.08.0
 _ZTVN4KPIM9KPrefsWidE@Base 4:15.08.0
 _ZTVN4KPIM9TagWidgetE@Base 4:15.08.0
 _ZTVN5KLDAP10LdapClientE@Base 4:15.08.0
 _ZTVN5KLDAP16LdapClientSearchE@Base 4:15.08.0
 _ZTVN5KLDAP16LdapSearchDialogE@Base 4:15.08.0
 _ZTVN5KLDAP22LdapClientSearchConfigE@Base 4:15.08.0
 _ZZZN4KPIM13AddContactJob7Private18slotAddContactDoneEP4KJobENKUlvE_clEvE15qstring_literal@Base 4:15.08.0
 _ZZZN4KPIM17AddEmailDiplayJob7Private13modifyContactEvENKUlvE0_clEvE15qstring_literal@Base 4:15.08.0
 _ZZZN4KPIM17AddEmailDiplayJob7Private13modifyContactEvENKUlvE1_clEvE15qstring_literal@Base 4:15.08.0
 _ZZZN4KPIM17AddEmailDiplayJob7Private13modifyContactEvENKUlvE2_clEvE15qstring_literal@Base 4:15.08.0
 _ZZZN4KPIM17AddEmailDiplayJob7Private13modifyContactEvENKUlvE3_clEvE15qstring_literal@Base 4:15.08.0
 _ZZZN4KPIM17AddEmailDiplayJob7Private13modifyContactEvENKUlvE4_clEvE15qstring_literal@Base 4:15.08.0
 _ZZZN4KPIM17AddEmailDiplayJob7Private13modifyContactEvENKUlvE5_clEvE15qstring_literal@Base 4:15.08.0
 _ZZZN4KPIM17AddEmailDiplayJob7Private13modifyContactEvENKUlvE6_clEvE15qstring_literal@Base 4:15.08.0
 _ZZZN4KPIM17AddEmailDiplayJob7Private13modifyContactEvENKUlvE_clEvE15qstring_literal@Base 4:15.08.0
 _ZZZN4KPIM17AddEmailDiplayJob7Private14slotSearchDoneEP4KJobENKUlvE0_clEvE15qstring_literal@Base 4:15.08.0
 _ZZZN4KPIM17AddEmailDiplayJob7Private14slotSearchDoneEP4KJobENKUlvE1_clEvE15qstring_literal@Base 4:15.08.0
 _ZZZN4KPIM17AddEmailDiplayJob7Private14slotSearchDoneEP4KJobENKUlvE2_clEvE15qstring_literal@Base 4:15.08.0
 _ZZZN4KPIM17AddEmailDiplayJob7Private14slotSearchDoneEP4KJobENKUlvE3_clEvE15qstring_literal@Base 4:15.08.0
 _ZZZN4KPIM17AddEmailDiplayJob7Private14slotSearchDoneEP4KJobENKUlvE4_clEvE15qstring_literal@Base 4:15.08.0
 _ZZZN4KPIM17AddEmailDiplayJob7Private14slotSearchDoneEP4KJobENKUlvE5_clEvE15qstring_literal@Base 4:15.08.0
 _ZZZN4KPIM17AddEmailDiplayJob7Private14slotSearchDoneEP4KJobENKUlvE6_clEvE15qstring_literal@Base 4:15.08.0
 _ZZZN4KPIM17AddEmailDiplayJob7Private14slotSearchDoneEP4KJobENKUlvE_clEvE15qstring_literal@Base 4:15.08.0
 _ZZZN4KPIM17AddEmailDiplayJob7Private22slotCollectionsFetchedEP4KJobENKUlvE0_clEvE15qstring_literal@Base 4:15.08.0
 _ZZZN4KPIM17AddEmailDiplayJob7Private22slotCollectionsFetchedEP4KJobENKUlvE1_clEvE15qstring_literal@Base 4:15.08.0
 _ZZZN4KPIM17AddEmailDiplayJob7Private22slotCollectionsFetchedEP4KJobENKUlvE2_clEvE15qstring_literal@Base 4:15.08.0
 _ZZZN4KPIM17AddEmailDiplayJob7Private22slotCollectionsFetchedEP4KJobENKUlvE3_clEvE15qstring_literal@Base 4:15.08.0
 _ZZZN4KPIM17AddEmailDiplayJob7Private22slotCollectionsFetchedEP4KJobENKUlvE4_clEvE15qstring_literal@Base 4:15.08.0
 _ZZZN4KPIM17AddEmailDiplayJob7Private22slotCollectionsFetchedEP4KJobENKUlvE5_clEvE15qstring_literal@Base 4:15.08.0
 _ZZZN4KPIM17AddEmailDiplayJob7Private22slotCollectionsFetchedEP4KJobENKUlvE6_clEvE15qstring_literal@Base 4:15.08.0
 _ZZZN4KPIM17AddEmailDiplayJob7Private22slotCollectionsFetchedEP4KJobENKUlvE7_clEvE15qstring_literal@Base 4:15.08.0
 _ZZZN4KPIM17AddEmailDiplayJob7Private22slotCollectionsFetchedEP4KJobENKUlvE_clEvE15qstring_literal@Base 4:15.08.0
 _ZZZN4KPIM18AddEmailAddressJob7Private14slotSearchDoneEP4KJobENKUlvE_clEvE15qstring_literal@Base 4:15.08.0
 _ZZZN4KPIM18AddEmailAddressJob7Private18slotAddContactDoneEP4KJobENKUlvE_clEvE15qstring_literal@Base 4:15.08.0
 _ZZZN4KPIM18AddEmailAddressJob7Private22slotCollectionsFetchedEP4KJobENKUlvE_clEvE15qstring_literal@Base 4:15.08.0
 (c++)"non-virtual thunk to AddHostDialog::~AddHostDialog()@Base" 4:15.08.0
 (c++)"non-virtual thunk to KLDAP::LdapSearchDialog::~LdapSearchDialog()@Base" 4:15.08.0
 (c++)"non-virtual thunk to KPIM::AddresseeLineEdit::~AddresseeLineEdit()@Base" 4:15.08.0
 (c++)"non-virtual thunk to KPIM::BlackListBalooEmailCompletionDialog::~BlackListBalooEmailCompletionDialog()@Base" 4:15.08.0
 (c++)"non-virtual thunk to KPIM::BlackListBalooEmailList::~BlackListBalooEmailList()@Base" 4:15.08.0
 (c++)"non-virtual thunk to KPIM::CompletionConfigureDialog::~CompletionConfigureDialog()@Base" 4:15.08.0
 (c++)"non-virtual thunk to KPIM::CompletionOrderEditor::~CompletionOrderEditor()@Base" 4:15.08.0
 (c++)"non-virtual thunk to KPIM::CompletionOrderWidget::~CompletionOrderWidget()@Base" 4:15.08.0
 (c++)"non-virtual thunk to KPIM::CustomLogWidget::~CustomLogWidget()@Base" 4:15.08.0
 (c++)"non-virtual thunk to KPIM::KCheckComboBox::~KCheckComboBox()@Base" 4:15.08.0
 (c++)"non-virtual thunk to KPIM::KDatePickerPopup::~KDatePickerPopup()@Base" 4:15.08.0
 (c++)"non-virtual thunk to KPIM::KPrefsDialog::~KPrefsDialog()@Base" 4:15.08.0
 (c++)"non-virtual thunk to KPIM::KPrefsModule::addWid(KPIM::KPrefsWid*)@Base" 4:15.08.0
 (c++)"non-virtual thunk to KPIM::KWeekdayCheckCombo::~KWeekdayCheckCombo()@Base" 4:15.08.0
 (c++)"non-virtual thunk to KPIM::KWidgetLister::~KWidgetLister()@Base" 4:15.08.0
 (c++)"non-virtual thunk to KPIM::MultiplyingLineEditor::~MultiplyingLineEditor()@Base" 4:15.08.0
 (c++)"non-virtual thunk to KPIM::OverlayWidget::~OverlayWidget()@Base" 4:15.08.0
 (c++)"non-virtual thunk to KPIM::ProgressDialog::~ProgressDialog()@Base" 4:15.08.0
 (c++)"non-virtual thunk to KPIM::ProgressIndicatorLabel::~ProgressIndicatorLabel()@Base" 4:15.08.0
 (c++)"non-virtual thunk to KPIM::ProgressIndicatorWidget::~ProgressIndicatorWidget()@Base" 4:15.08.0
 (c++)"non-virtual thunk to KPIM::RecentAddressDialog::~RecentAddressDialog()@Base" 4:15.08.0
