# SymbolsHelper-Confirmed: 4:15.08.0 amd64
libksieveui.so.5 libksieveui5 #MINVER#
 _ZN11KIconEngineD0Ev@Base 4:15.08.0
 _ZN11KIconEngineD1Ev@Base 4:15.08.0
 _ZN11KIconEngineD2Ev@Base 4:15.08.0
 (optional=templinst)_ZN12KConfigGroup10writeEntryIiEEvPKcRK5QListIT_E6QFlagsIN11KConfigBase15WriteConfigFlagEE@Base 4:15.08.0
 _ZN29SieveScriptParsingErrorDialog10readConfigEv@Base 4:15.08.0
 _ZN29SieveScriptParsingErrorDialog10slotSaveAsEv@Base 4:15.08.0
 _ZN29SieveScriptParsingErrorDialog11qt_metacallEN11QMetaObject4CallEiPPv@Base 4:15.08.0
 _ZN29SieveScriptParsingErrorDialog11qt_metacastEPKc@Base 4:15.08.0
 _ZN29SieveScriptParsingErrorDialog11writeConfigEv@Base 4:15.08.0
 _ZN29SieveScriptParsingErrorDialog16staticMetaObjectE@Base 4:15.08.0
 _ZN29SieveScriptParsingErrorDialog8setErrorE7QStringS0_@Base 4:15.08.0
 _ZN29SieveScriptParsingErrorDialogC1EP7QWidget@Base 4:15.08.0
 _ZN29SieveScriptParsingErrorDialogC2EP7QWidget@Base 4:15.08.0
 _ZN29SieveScriptParsingErrorDialogD0Ev@Base 4:15.08.0
 _ZN29SieveScriptParsingErrorDialogD1Ev@Base 4:15.08.0
 _ZN29SieveScriptParsingErrorDialogD2Ev@Base 4:15.08.0
 _ZN8KSieveUi11SieveEditor10readConfigEv@Base 4:15.08.0
 _ZN8KSieveUi11SieveEditor10resultDoneEv@Base 4:15.08.0
 _ZN8KSieveUi11SieveEditor11checkSyntaxEv@Base 4:15.08.0
 _ZN8KSieveUi11SieveEditor11qt_metacallEN11QMetaObject4CallEiPPv@Base 4:15.08.0
 _ZN8KSieveUi11SieveEditor11qt_metacastEPKc@Base 4:15.08.0
 _ZN8KSieveUi11SieveEditor11writeConfigEv@Base 4:15.08.0
 _ZN8KSieveUi11SieveEditor12addOkMessageERK7QString@Base 4:15.08.0
 _ZN8KSieveUi11SieveEditor12slotAcceptedEv@Base 4:15.08.0
 _ZN8KSieveUi11SieveEditor12slotCanceledEv@Base 4:15.08.0
 _ZN8KSieveUi11SieveEditor12valueChangedEb@Base 4:15.08.0
 _ZN8KSieveUi11SieveEditor13cancelClickedEv@Base 4:15.08.0
 _ZN8KSieveUi11SieveEditor13setScriptNameERK7QString@Base 4:15.08.0
 _ZN8KSieveUi11SieveEditor14setDebugScriptERK7QString@Base 4:15.08.0
 _ZN8KSieveUi11SieveEditor16addFailedMessageERK7QString@Base 4:15.08.0
 _ZN8KSieveUi11SieveEditor16staticMetaObjectE@Base 4:15.08.0
 _ZN8KSieveUi11SieveEditor18slotEnableButtonOkEb@Base 4:15.08.0
 _ZN8KSieveUi11SieveEditor20setSieveCapabilitiesERK11QStringList@Base 4:15.08.0
 _ZN8KSieveUi11SieveEditor5eventEP6QEvent@Base 4:15.08.0
 _ZN8KSieveUi11SieveEditor9okClickedEv@Base 4:15.08.0
 _ZN8KSieveUi11SieveEditor9setScriptERK7QString@Base 4:15.08.0
 _ZN8KSieveUi11SieveEditorC1EP7QWidget@Base 4:15.08.0
 _ZN8KSieveUi11SieveEditorC2EP7QWidget@Base 4:15.08.0
 _ZN8KSieveUi11SieveEditorD0Ev@Base 4:15.08.0
 _ZN8KSieveUi11SieveEditorD1Ev@Base 4:15.08.0
 _ZN8KSieveUi11SieveEditorD2Ev@Base 4:15.08.0
 _ZN8KSieveUi13SieveTextEdit11qt_metacallEN11QMetaObject4CallEiPPv@Base 4:15.08.0
 _ZN8KSieveUi13SieveTextEdit11qt_metacastEPKc@Base 4:15.08.0
 _ZN8KSieveUi13SieveTextEdit11resizeEventEP12QResizeEvent@Base 4:15.08.0
 _ZN8KSieveUi13SieveTextEdit11reverseCaseEv@Base 4:15.08.0
 _ZN8KSieveUi13SieveTextEdit12sentenceCaseEv@Base 4:15.08.0
 _ZN8KSieveUi13SieveTextEdit13initCompleterEv@Base 4:15.08.0
 _ZN8KSieveUi13SieveTextEdit13keyPressEventEP9QKeyEvent@Base 4:15.08.0
 _ZN8KSieveUi13SieveTextEdit14clearDecoratorEv@Base 4:15.08.0
 _ZN8KSieveUi13SieveTextEdit15setShowHelpMenuEb@Base 4:15.08.0
 _ZN8KSieveUi13SieveTextEdit16openVariableHelpEv@Base 4:15.08.0
 _ZN8KSieveUi13SieveTextEdit16overrideShortcutEP9QKeyEvent@Base 4:15.08.0
 _ZN8KSieveUi13SieveTextEdit16setCompleterListERK11QStringList@Base 4:15.08.0
 _ZN8KSieveUi13SieveTextEdit16staticMetaObjectE@Base 4:15.08.0
 _ZN8KSieveUi13SieveTextEdit17addExtraMenuEntryEP5QMenuRK6QPoint@Base 4:15.08.0
 _ZN8KSieveUi13SieveTextEdit17createHighlighterEv@Base 4:15.08.0
 _ZN8KSieveUi13SieveTextEdit17updateHighLighterEv@Base 4:15.08.0
 _ZN8KSieveUi13SieveTextEdit20setSieveCapabilitiesERK11QStringList@Base 4:15.08.0
 _ZN8KSieveUi13SieveTextEdit24lineNumberAreaPaintEventEP11QPaintEvent@Base 4:15.08.0
 _ZN8KSieveUi13SieveTextEdit24slotUpdateLineNumberAreaERK5QRecti@Base 4:15.08.0
 _ZN8KSieveUi13SieveTextEdit25createSpellCheckDecoratorEv@Base 4:15.08.0
 _ZN8KSieveUi13SieveTextEdit29slotUpdateLineNumberAreaWidthEi@Base 4:15.08.0
 _ZN8KSieveUi13SieveTextEdit5eventEP6QEvent@Base 4:15.08.0
 _ZN8KSieveUi13SieveTextEdit7commentEv@Base 4:15.08.0
 _ZN8KSieveUi13SieveTextEdit8openHelpERK7QString@Base 4:15.08.0
 _ZN8KSieveUi13SieveTextEdit8slotHelpEv@Base 4:15.08.0
 _ZN8KSieveUi13SieveTextEdit9lowerCaseEv@Base 4:15.08.0
 _ZN8KSieveUi13SieveTextEdit9uncommentEv@Base 4:15.08.0
 _ZN8KSieveUi13SieveTextEdit9upperCaseEv@Base 4:15.08.0
 _ZN8KSieveUi13SieveTextEditC1EP7QWidget@Base 4:15.08.0
 _ZN8KSieveUi13SieveTextEditC2EP7QWidget@Base 4:15.08.0
 _ZN8KSieveUi13SieveTextEditD0Ev@Base 4:15.08.0
 _ZN8KSieveUi13SieveTextEditD1Ev@Base 4:15.08.0
 _ZN8KSieveUi13SieveTextEditD2Ev@Base 4:15.08.0
 _ZN8KSieveUi15VacationManager11qt_metacallEN11QMetaObject4CallEiPPv@Base 4:15.08.0
 _ZN8KSieveUi15VacationManager11qt_metacastEPKc@Base 4:15.08.0
 _ZN8KSieveUi15VacationManager12editVacationEv@Base 4:15.08.0
 _ZN8KSieveUi15VacationManager12slotDialogOkEv@Base 4:15.08.0
 _ZN8KSieveUi15VacationManager13checkVacationEv@Base 4:15.08.0
 _ZN8KSieveUi15VacationManager16slotEditVacationERK7QString@Base 4:15.08.0
 _ZN8KSieveUi15VacationManager16staticMetaObjectE@Base 4:15.08.0
 _ZN8KSieveUi15VacationManager18slotDialogCanceledEv@Base 4:15.08.0
 _ZN8KSieveUi15VacationManager26updateVacationScriptStatusEbRK7QString@Base 4:15.08.0
 _ZN8KSieveUi15VacationManagerC1EP7QWidget@Base 4:15.08.0
 _ZN8KSieveUi15VacationManagerC2EP7QWidget@Base 4:15.08.0
 _ZN8KSieveUi15VacationManagerD0Ev@Base 4:15.08.0
 _ZN8KSieveUi15VacationManagerD1Ev@Base 4:15.08.0
 _ZN8KSieveUi15VacationManagerD2Ev@Base 4:15.08.0
 _ZN8KSieveUi16SieveDebugDialog10readConfigEv@Base 4:15.08.0
 _ZN8KSieveUi16SieveDebugDialog11qt_metacallEN11QMetaObject4CallEiPPv@Base 4:15.08.0
 _ZN8KSieveUi16SieveDebugDialog11qt_metacastEPKc@Base 4:15.08.0
 _ZN8KSieveUi16SieveDebugDialog11writeConfigEv@Base 4:15.08.0
 _ZN8KSieveUi16SieveDebugDialog13slotGetScriptEPN12KManageSieve8SieveJobEbRK7QStringb@Base 4:15.08.0
 _ZN8KSieveUi16SieveDebugDialog16staticMetaObjectE@Base 4:15.08.0
 _ZN8KSieveUi16SieveDebugDialog17slotGetScriptListEPN12KManageSieve8SieveJobEbRK11QStringListRK7QString@Base 4:15.08.0
 _ZN8KSieveUi16SieveDebugDialog18slotDiagNextScriptEv@Base 4:15.08.0
 _ZN8KSieveUi16SieveDebugDialog19slotDiagNextAccountEv@Base 4:15.08.0
 _ZN8KSieveUi16SieveDebugDialog6resultEb@Base 4:15.08.0
 _ZN8KSieveUi16SieveDebugDialogC1EP7QWidget@Base 4:15.08.0
 _ZN8KSieveUi16SieveDebugDialogC2EP7QWidget@Base 4:15.08.0
 _ZN8KSieveUi16SieveDebugDialogD0Ev@Base 4:15.08.0
 _ZN8KSieveUi16SieveDebugDialogD1Ev@Base 4:15.08.0
 _ZN8KSieveUi16SieveDebugDialogD2Ev@Base 4:15.08.0
 _ZN8KSieveUi17ManageSieveWidget10editScriptERK4QUrlRK11QStringList@Base 4:15.08.0
 _ZN8KSieveUi17ManageSieveWidget11killAllJobsEv@Base 4:15.08.0
 _ZN8KSieveUi17ManageSieveWidget11qt_metacallEN11QMetaObject4CallEiPPv@Base 4:15.08.0
 _ZN8KSieveUi17ManageSieveWidget11qt_metacastEPKc@Base 4:15.08.0
 _ZN8KSieveUi17ManageSieveWidget11slotGotListEPN12KManageSieve8SieveJobEbRK11QStringListRK7QString@Base 4:15.08.0
 _ZN8KSieveUi17ManageSieveWidget11slotRefreshEv@Base 4:15.08.0
 _ZN8KSieveUi17ManageSieveWidget13scriptDeletedERK4QUrl@Base 4:15.08.0
 _ZN8KSieveUi17ManageSieveWidget13slotNewScriptEv@Base 4:15.08.0
 _ZN8KSieveUi17ManageSieveWidget13updateButtonsEP15QTreeWidgetItem@Base 4:15.08.0
 _ZN8KSieveUi17ManageSieveWidget14slotEditScriptEv@Base 4:15.08.0
 _ZN8KSieveUi17ManageSieveWidget15isProtectedNameERK7QString@Base 4:15.08.0
 _ZN8KSieveUi17ManageSieveWidget15slotCancelFetchEv@Base 4:15.08.0
 _ZN8KSieveUi17ManageSieveWidget15slotItemChangedEP15QTreeWidgetItemi@Base 4:15.08.0
 _ZN8KSieveUi17ManageSieveWidget16serverSieveFoundEb@Base 4:15.08.0
 _ZN8KSieveUi17ManageSieveWidget16slotDeleteScriptEv@Base 4:15.08.0
 _ZN8KSieveUi17ManageSieveWidget16staticMetaObjectE@Base 4:15.08.0
 _ZN8KSieveUi17ManageSieveWidget17slotDoubleClickedEP15QTreeWidgetItem@Base 4:15.08.0
 _ZN8KSieveUi17ManageSieveWidget17slotUpdateButtonsEv@Base 4:15.08.0
 _ZN8KSieveUi17ManageSieveWidget18changeActiveScriptEP15QTreeWidgetItemb@Base 4:15.08.0
 _ZN8KSieveUi17ManageSieveWidget20enableDisableActionsERbS1_S1_S1_@Base 4:15.08.0
 _ZN8KSieveUi17ManageSieveWidget20slotDeactivateScriptEv@Base 4:15.08.0
 _ZN8KSieveUi17ManageSieveWidget22slotCheckNetworkStatusEv@Base 4:15.08.0
 _ZN8KSieveUi17ManageSieveWidget24slotContextMenuRequestedERK6QPoint@Base 4:15.08.0
 _ZN8KSieveUi17ManageSieveWidget35slotSystemNetworkOnlineStateChangedEb@Base 4:15.08.0
 _ZN8KSieveUi17ManageSieveWidget5clearEv@Base 4:15.08.0
 _ZN8KSieveUi17ManageSieveWidget9newScriptERK4QUrlRK11QStringList@Base 4:15.08.0
 _ZN8KSieveUi17ManageSieveWidgetC1EP7QWidget@Base 4:15.08.0
 _ZN8KSieveUi17ManageSieveWidgetC2EP7QWidget@Base 4:15.08.0
 _ZN8KSieveUi17ManageSieveWidgetD0Ev@Base 4:15.08.0
 _ZN8KSieveUi17ManageSieveWidgetD1Ev@Base 4:15.08.0
 _ZN8KSieveUi17ManageSieveWidgetD2Ev@Base 4:15.08.0
 _ZN8KSieveUi17SieveEditorWidget10changeModeENS0_10EditorModeE@Base 4:15.08.0
 _ZN8KSieveUi17SieveEditorWidget10resultDoneEv@Base 4:15.08.0
 _ZN8KSieveUi17SieveEditorWidget10slotImportEv@Base 4:15.08.0
 _ZN8KSieveUi17SieveEditorWidget10slotSaveAsEv@Base 4:15.08.0
 _ZN8KSieveUi17SieveEditorWidget11checkSyntaxEv@Base 4:15.08.0
 _ZN8KSieveUi17SieveEditorWidget11qt_metacallEN11QMetaObject4CallEiPPv@Base 4:15.08.0
 _ZN8KSieveUi17SieveEditorWidget11qt_metacastEPKc@Base 4:15.08.0
 _ZN8KSieveUi17SieveEditorWidget11reverseCaseEv@Base 4:15.08.0
 _ZN8KSieveUi17SieveEditorWidget11setModifiedEb@Base 4:15.08.0
 _ZN8KSieveUi17SieveEditorWidget11setReadOnlyEb@Base 4:15.08.0
 _ZN8KSieveUi17SieveEditorWidget12addOkMessageERK7QString@Base 4:15.08.0
 _ZN8KSieveUi17SieveEditorWidget12sentenceCaseEv@Base 4:15.08.0
 _ZN8KSieveUi17SieveEditorWidget12slotModifiedEv@Base 4:15.08.0
 _ZN8KSieveUi17SieveEditorWidget12valueChangedEb@Base 4:15.08.0
 _ZN8KSieveUi17SieveEditorWidget13checkSpellingEv@Base 4:15.08.0
 _ZN8KSieveUi17SieveEditorWidget13copyAvailableEb@Base 4:15.08.0
 _ZN8KSieveUi17SieveEditorWidget13redoAvailableEb@Base 4:15.08.0
 _ZN8KSieveUi17SieveEditorWidget13setScriptNameERK7QString@Base 4:15.08.0
 _ZN8KSieveUi17SieveEditorWidget13undoAvailableEb@Base 4:15.08.0
 _ZN8KSieveUi17SieveEditorWidget14enableButtonOkEb@Base 4:15.08.0
 _ZN8KSieveUi17SieveEditorWidget14setDebugScriptERK7QString@Base 4:15.08.0
 _ZN8KSieveUi17SieveEditorWidget14slotSwitchModeEv@Base 4:15.08.0
 _ZN8KSieveUi17SieveEditorWidget15addMessageEntryERK7QStringRK6QColor@Base 4:15.08.0
 _ZN8KSieveUi17SieveEditorWidget15openBookmarkUrlERK4QUrl@Base 4:15.08.0
 _ZN8KSieveUi17SieveEditorWidget15slotCheckSyntaxEv@Base 4:15.08.0
 _ZN8KSieveUi17SieveEditorWidget15slotGenerateXmlEv@Base 4:15.08.0
 _ZN8KSieveUi17SieveEditorWidget16addFailedMessageERK7QString@Base 4:15.08.0
 _ZN8KSieveUi17SieveEditorWidget16changeModeEditorEb@Base 4:15.08.0
 _ZN8KSieveUi17SieveEditorWidget16debugSieveScriptEv@Base 4:15.08.0
 _ZN8KSieveUi17SieveEditorWidget16staticMetaObjectE@Base 4:15.08.0
 _ZN8KSieveUi17SieveEditorWidget17modeEditorChangedENS0_10EditorModeE@Base 4:15.08.0
 _ZN8KSieveUi17SieveEditorWidget17slotUploadScriptsEv@Base 4:15.08.0
 _ZN8KSieveUi17SieveEditorWidget18slotEnableButtonOkEb@Base 4:15.08.0
 _ZN8KSieveUi17SieveEditorWidget18slotSwitchTextModeERK7QString@Base 4:15.08.0
 _ZN8KSieveUi17SieveEditorWidget20setSieveCapabilitiesERK11QStringList@Base 4:15.08.0
 _ZN8KSieveUi17SieveEditorWidget22changeSwitchButtonTextEv@Base 4:15.08.0
 _ZN8KSieveUi17SieveEditorWidget23slotAutoGenerateScriptsEv@Base 4:15.08.0
 _ZN8KSieveUi17SieveEditorWidget25slotSwitchToGraphicalModeEv@Base 4:15.08.0
 _ZN8KSieveUi17SieveEditorWidget3cutEv@Base 4:15.08.0
 _ZN8KSieveUi17SieveEditorWidget4copyEv@Base 4:15.08.0
 _ZN8KSieveUi17SieveEditorWidget4findEv@Base 4:15.08.0
 _ZN8KSieveUi17SieveEditorWidget4redoEv@Base 4:15.08.0
 _ZN8KSieveUi17SieveEditorWidget4undoEv@Base 4:15.08.0
 _ZN8KSieveUi17SieveEditorWidget5pasteEv@Base 4:15.08.0
 _ZN8KSieveUi17SieveEditorWidget6zoomInEv@Base 4:15.08.0
 _ZN8KSieveUi17SieveEditorWidget7commentEv@Base 4:15.08.0
 _ZN8KSieveUi17SieveEditorWidget7replaceEv@Base 4:15.08.0
 _ZN8KSieveUi17SieveEditorWidget7zoomOutEv@Base 4:15.08.0
 _ZN8KSieveUi17SieveEditorWidget8goToLineEv@Base 4:15.08.0
 _ZN8KSieveUi17SieveEditorWidget9lowerCaseEv@Base 4:15.08.0
 _ZN8KSieveUi17SieveEditorWidget9selectAllEv@Base 4:15.08.0
 _ZN8KSieveUi17SieveEditorWidget9setScriptERK7QString@Base 4:15.08.0
 _ZN8KSieveUi17SieveEditorWidget9uncommentEv@Base 4:15.08.0
 _ZN8KSieveUi17SieveEditorWidget9upperCaseEv@Base 4:15.08.0
 _ZN8KSieveUi17SieveEditorWidgetC1EbP7QWidget@Base 4:15.08.0
 _ZN8KSieveUi17SieveEditorWidgetC2EbP7QWidget@Base 4:15.08.0
 _ZN8KSieveUi17SieveEditorWidgetD0Ev@Base 4:15.08.0
 _ZN8KSieveUi17SieveEditorWidgetD1Ev@Base 4:15.08.0
 _ZN8KSieveUi17SieveEditorWidgetD2Ev@Base 4:15.08.0
 _ZN8KSieveUi17VacationHelperJob11qt_metacallEN11QMetaObject4CallEiPPv@Base 4:15.08.0
 _ZN8KSieveUi17VacationHelperJob11qt_metacastEPKc@Base 4:15.08.0
 _ZN8KSieveUi17VacationHelperJob15searchActiveJobEv@Base 4:15.08.0
 _ZN8KSieveUi17VacationHelperJob16scriptListResultERK11QStringListRK7QStringb@Base 4:15.08.0
 _ZN8KSieveUi17VacationHelperJob16staticMetaObjectE@Base 4:15.08.0
 _ZN8KSieveUi17VacationHelperJob17slotGetScriptListEPN12KManageSieve8SieveJobEbRK11QStringListRK7QString@Base 4:15.08.0
 _ZN8KSieveUi17VacationHelperJob19canNotGetScriptListEv@Base 4:15.08.0
 _ZN8KSieveUi17VacationHelperJob26resourceHasNotSieveSupportEv@Base 4:15.08.0
 _ZN8KSieveUi17VacationHelperJob7killJobEv@Base 4:15.08.0
 _ZN8KSieveUi17VacationHelperJobC1ERK4QUrlP7QObject@Base 4:15.08.0
 _ZN8KSieveUi17VacationHelperJobC2ERK4QUrlP7QObject@Base 4:15.08.0
 _ZN8KSieveUi17VacationHelperJobD0Ev@Base 4:15.08.0
 _ZN8KSieveUi17VacationHelperJobD1Ev@Base 4:15.08.0
 _ZN8KSieveUi17VacationHelperJobD2Ev@Base 4:15.08.0
 _ZN8KSieveUi18ParseUserScriptJob11loadIncludeERK11QDomElement@Base 4:15.08.0
 _ZN8KSieveUi18ParseUserScriptJob11parsescriptERK7QStringRb@Base 4:15.08.0
 _ZN8KSieveUi18ParseUserScriptJob11qt_metacallEN11QMetaObject4CallEiPPv@Base 4:15.08.0
 _ZN8KSieveUi18ParseUserScriptJob11qt_metacastEPKc@Base 4:15.08.0
 _ZN8KSieveUi18ParseUserScriptJob13slotGetResultEPN12KManageSieve8SieveJobEbRK7QStringb@Base 4:15.08.0
 _ZN8KSieveUi18ParseUserScriptJob16staticMetaObjectE@Base 4:15.08.0
 _ZN8KSieveUi18ParseUserScriptJob19extractActiveScriptERK12QDomDocument@Base 4:15.08.0
 _ZN8KSieveUi18ParseUserScriptJob5errorERK7QString@Base 4:15.08.0
 _ZN8KSieveUi18ParseUserScriptJob5startEv@Base 4:15.08.0
 _ZN8KSieveUi18ParseUserScriptJob7successERK11QStringList@Base 4:15.08.0
 _ZN8KSieveUi18ParseUserScriptJob9scriptUrlERK4QUrl@Base 4:15.08.0
 _ZN8KSieveUi18ParseUserScriptJobC1EP7QObject@Base 4:15.08.0
 _ZN8KSieveUi18ParseUserScriptJobC2EP7QObject@Base 4:15.08.0
 _ZN8KSieveUi18ParseUserScriptJobD0Ev@Base 4:15.08.0
 _ZN8KSieveUi18ParseUserScriptJobD1Ev@Base 4:15.08.0
 _ZN8KSieveUi18ParseUserScriptJobD2Ev@Base 4:15.08.0
 _ZN8KSieveUi19ManageSieveTreeView11qt_metacallEN11QMetaObject4CallEiPPv@Base 4:15.08.0
 _ZN8KSieveUi19ManageSieveTreeView11qt_metacastEPKc@Base 4:15.08.0
 _ZN8KSieveUi19ManageSieveTreeView14setNetworkDownEb@Base 4:15.08.0
 _ZN8KSieveUi19ManageSieveTreeView14setNoImapFoundEb@Base 4:15.08.0
 _ZN8KSieveUi19ManageSieveTreeView16staticMetaObjectE@Base 4:15.08.0
 _ZN8KSieveUi19ManageSieveTreeViewC1EP7QWidget@Base 4:15.08.0
 _ZN8KSieveUi19ManageSieveTreeViewC2EP7QWidget@Base 4:15.08.0
 _ZN8KSieveUi19ManageSieveTreeViewD0Ev@Base 4:15.08.0
 _ZN8KSieveUi19ManageSieveTreeViewD1Ev@Base 4:15.08.0
 _ZN8KSieveUi19ManageSieveTreeViewD2Ev@Base 4:15.08.0
 _ZN8KSieveUi19ParsingResultDialog10readConfigEv@Base 4:15.08.0
 _ZN8KSieveUi19ParsingResultDialog10slotSaveAsEv@Base 4:15.08.0
 _ZN8KSieveUi19ParsingResultDialog11qt_metacallEN11QMetaObject4CallEiPPv@Base 4:15.08.0
 _ZN8KSieveUi19ParsingResultDialog11qt_metacastEPKc@Base 4:15.08.0
 _ZN8KSieveUi19ParsingResultDialog11writeConfigEv@Base 4:15.08.0
 _ZN8KSieveUi19ParsingResultDialog16setResultParsingERK7QString@Base 4:15.08.0
 _ZN8KSieveUi19ParsingResultDialog16staticMetaObjectE@Base 4:15.08.0
 _ZN8KSieveUi19ParsingResultDialogC1EP7QWidget@Base 4:15.08.0
 _ZN8KSieveUi19ParsingResultDialogC2EP7QWidget@Base 4:15.08.0
 _ZN8KSieveUi19ParsingResultDialogD0Ev@Base 4:15.08.0
 _ZN8KSieveUi19ParsingResultDialogD1Ev@Base 4:15.08.0
 _ZN8KSieveUi19ParsingResultDialogD2Ev@Base 4:15.08.0
 _ZN8KSieveUi19SieveTextEditWidget10initializeEPNS_13SieveTextEditE@Base 4:15.08.0
 _ZN8KSieveUi19SieveTextEditWidget11qt_metacallEN11QMetaObject4CallEiPPv@Base 4:15.08.0
 _ZN8KSieveUi19SieveTextEditWidget11qt_metacastEPKc@Base 4:15.08.0
 _ZN8KSieveUi19SieveTextEditWidget11setReadOnlyEb@Base 4:15.08.0
 _ZN8KSieveUi19SieveTextEditWidget11slotReplaceEv@Base 4:15.08.0
 _ZN8KSieveUi19SieveTextEditWidget16staticMetaObjectE@Base 4:15.08.0
 _ZN8KSieveUi19SieveTextEditWidget8slotFindEv@Base 4:15.08.0
 _ZN8KSieveUi19SieveTextEditWidgetC1EP7QWidget@Base 4:15.08.0
 _ZN8KSieveUi19SieveTextEditWidgetC1EPNS_13SieveTextEditEP7QWidget@Base 4:15.08.0
 _ZN8KSieveUi19SieveTextEditWidgetC2EP7QWidget@Base 4:15.08.0
 _ZN8KSieveUi19SieveTextEditWidgetC2EPNS_13SieveTextEditEP7QWidget@Base 4:15.08.0
 _ZN8KSieveUi19SieveTextEditWidgetD0Ev@Base 4:15.08.0
 _ZN8KSieveUi19SieveTextEditWidgetD1Ev@Base 4:15.08.0
 _ZN8KSieveUi19SieveTextEditWidgetD2Ev@Base 4:15.08.0
 _ZN8KSieveUi19SieveTreeWidgetItem13stopAnimationEv@Base 4:15.08.0
 _ZN8KSieveUi19SieveTreeWidgetItem14setDefaultIconEv@Base 4:15.08.0
 _ZN8KSieveUi19SieveTreeWidgetItem14startAnimationEv@Base 4:15.08.0
 _ZN8KSieveUi19SieveTreeWidgetItem20setProgressAnimationERK7QPixmap@Base 4:15.08.0
 _ZN8KSieveUi19SieveTreeWidgetItemC1EP11QTreeWidgetP15QTreeWidgetItem@Base 4:15.08.0
 _ZN8KSieveUi19SieveTreeWidgetItemC2EP11QTreeWidgetP15QTreeWidgetItem@Base 4:15.08.0
 _ZN8KSieveUi19SieveTreeWidgetItemD0Ev@Base 4:15.08.0
 _ZN8KSieveUi19SieveTreeWidgetItemD1Ev@Base 4:15.08.0
 _ZN8KSieveUi19SieveTreeWidgetItemD2Ev@Base 4:15.08.0
 _ZN8KSieveUi22AutoCreateScriptDialog10loadScriptERK12QDomDocumentR7QString@Base 4:15.08.0
 _ZN8KSieveUi22AutoCreateScriptDialog10readConfigEv@Base 4:15.08.0
 _ZN8KSieveUi22AutoCreateScriptDialog11qt_metacallEN11QMetaObject4CallEiPPv@Base 4:15.08.0
 _ZN8KSieveUi22AutoCreateScriptDialog11qt_metacastEPKc@Base 4:15.08.0
 _ZN8KSieveUi22AutoCreateScriptDialog11writeConfigEv@Base 4:15.08.0
 _ZN8KSieveUi22AutoCreateScriptDialog16staticMetaObjectE@Base 4:15.08.0
 _ZN8KSieveUi22AutoCreateScriptDialog20setSieveCapabilitiesERK11QStringList@Base 4:15.08.0
 _ZN8KSieveUi22AutoCreateScriptDialog5eventEP6QEvent@Base 4:15.08.0
 _ZN8KSieveUi22AutoCreateScriptDialogC1EP7QWidget@Base 4:15.08.0
 _ZN8KSieveUi22AutoCreateScriptDialogC2EP7QWidget@Base 4:15.08.0
 _ZN8KSieveUi22AutoCreateScriptDialogD0Ev@Base 4:15.08.0
 _ZN8KSieveUi22AutoCreateScriptDialogD1Ev@Base 4:15.08.0
 _ZN8KSieveUi22AutoCreateScriptDialogD2Ev@Base 4:15.08.0
 _ZN8KSieveUi23MultiImapVacationDialog10createPageERK7QStringRK4QUrl@Base 4:15.08.0
 _ZN8KSieveUi23MultiImapVacationDialog10readConfigEv@Base 4:15.08.0
 _ZN8KSieveUi23MultiImapVacationDialog11qt_metacallEN11QMetaObject4CallEiPPv@Base 4:15.08.0
 _ZN8KSieveUi23MultiImapVacationDialog11qt_metacastEPKc@Base 4:15.08.0
 _ZN8KSieveUi23MultiImapVacationDialog11writeConfigEv@Base 4:15.08.0
 _ZN8KSieveUi23MultiImapVacationDialog12slotCanceledEv@Base 4:15.08.0
 _ZN8KSieveUi23MultiImapVacationDialog13cancelClickedEv@Base 4:15.08.0
 _ZN8KSieveUi23MultiImapVacationDialog13slotOkClickedEv@Base 4:15.08.0
 _ZN8KSieveUi23MultiImapVacationDialog16staticMetaObjectE@Base 4:15.08.0
 _ZN8KSieveUi23MultiImapVacationDialog18slotDefaultClickedEv@Base 4:15.08.0
 _ZN8KSieveUi23MultiImapVacationDialog22switchToServerNamePageERK7QString@Base 4:15.08.0
 _ZN8KSieveUi23MultiImapVacationDialog4initEv@Base 4:15.08.0
 _ZN8KSieveUi23MultiImapVacationDialog9okClickedEv@Base 4:15.08.0
 _ZN8KSieveUi23MultiImapVacationDialogC1EP7QWidget@Base 4:15.08.0
 _ZN8KSieveUi23MultiImapVacationDialogC2EP7QWidget@Base 4:15.08.0
 _ZN8KSieveUi23MultiImapVacationDialogD0Ev@Base 4:15.08.0
 _ZN8KSieveUi23MultiImapVacationDialogD1Ev@Base 4:15.08.0
 _ZN8KSieveUi23MultiImapVacationDialogD2Ev@Base 4:15.08.0
 _ZN8KSieveUi23VacationCreateScriptJob11qt_metacallEN11QMetaObject4CallEiPPv@Base 4:15.08.0
 _ZN8KSieveUi23VacationCreateScriptJob11qt_metacastEPKc@Base 4:15.08.0
 _ZN8KSieveUi23VacationCreateScriptJob12scriptActiveEbRK7QString@Base 4:15.08.0
 _ZN8KSieveUi23VacationCreateScriptJob12setServerUrlERK4QUrl@Base 4:15.08.0
 _ZN8KSieveUi23VacationCreateScriptJob13setServerNameERK7QString@Base 4:15.08.0
 _ZN8KSieveUi23VacationCreateScriptJob15handlePutResultEPN12KManageSieve8SieveJobEbb@Base 4:15.08.0
 _ZN8KSieveUi23VacationCreateScriptJob16staticMetaObjectE@Base 4:15.08.0
 _ZN8KSieveUi23VacationCreateScriptJob19slotPutActiveResultEPN12KManageSieve8SieveJobEb@Base 4:15.08.0
 _ZN8KSieveUi23VacationCreateScriptJob21slotPutInactiveResultEPN12KManageSieve8SieveJobEb@Base 4:15.08.0
 _ZN8KSieveUi23VacationCreateScriptJob5startEv@Base 4:15.08.0
 _ZN8KSieveUi23VacationCreateScriptJob6resultEb@Base 4:15.08.0
 _ZN8KSieveUi23VacationCreateScriptJob9setScriptERK7QString@Base 4:15.08.0
 _ZN8KSieveUi23VacationCreateScriptJob9setStatusEbb@Base 4:15.08.0
 _ZN8KSieveUi23VacationCreateScriptJobC1EP7QObject@Base 4:15.08.0
 _ZN8KSieveUi23VacationCreateScriptJobC2EP7QObject@Base 4:15.08.0
 _ZN8KSieveUi23VacationCreateScriptJobD0Ev@Base 4:15.08.0
 _ZN8KSieveUi23VacationCreateScriptJobD1Ev@Base 4:15.08.0
 _ZN8KSieveUi23VacationCreateScriptJobD2Ev@Base 4:15.08.0
 _ZN8KSieveUi24ManageSieveScriptsDialog11qt_metacallEN11QMetaObject4CallEiPPv@Base 4:15.08.0
 _ZN8KSieveUi24ManageSieveScriptsDialog11qt_metacastEPKc@Base 4:15.08.0
 _ZN8KSieveUi24ManageSieveScriptsDialog13slotGetResultEPN12KManageSieve8SieveJobEbRK7QStringb@Base 4:15.08.0
 _ZN8KSieveUi24ManageSieveScriptsDialog13slotNewScriptERK4QUrlRK11QStringList@Base 4:15.08.0
 _ZN8KSieveUi24ManageSieveScriptsDialog13slotPutResultEPN12KManageSieve8SieveJobEb@Base 4:15.08.0
 _ZN8KSieveUi24ManageSieveScriptsDialog14slotEditScriptERK4QUrlRK11QStringList@Base 4:15.08.0
 _ZN8KSieveUi24ManageSieveScriptsDialog16staticMetaObjectE@Base 4:15.08.0
 _ZN8KSieveUi24ManageSieveScriptsDialog17slotUpdateButtonsEP15QTreeWidgetItem@Base 4:15.08.0
 _ZN8KSieveUi24ManageSieveScriptsDialog18slotPutResultDebugEPN12KManageSieve8SieveJobEbRK7QString@Base 4:15.08.0
 _ZN8KSieveUi24ManageSieveScriptsDialog24slotSieveEditorOkClickedEv@Base 4:15.08.0
 _ZN8KSieveUi24ManageSieveScriptsDialog27disableManagerScriptsDialogEb@Base 4:15.08.0
 _ZN8KSieveUi24ManageSieveScriptsDialog28slotSieveEditorCancelClickedEv@Base 4:15.08.0
 _ZN8KSieveUi24ManageSieveScriptsDialog33slotSieveEditorCheckSyntaxClickedEv@Base 4:15.08.0
 _ZN8KSieveUi24ManageSieveScriptsDialog8finishedEv@Base 4:15.08.0
 _ZN8KSieveUi24ManageSieveScriptsDialog9hideEventEP10QHideEvent@Base 4:15.08.0
 _ZN8KSieveUi24ManageSieveScriptsDialogC1EP7QWidget@Base 4:15.08.0
 _ZN8KSieveUi24ManageSieveScriptsDialogC2EP7QWidget@Base 4:15.08.0
 _ZN8KSieveUi24ManageSieveScriptsDialogD0Ev@Base 4:15.08.0
 _ZN8KSieveUi24ManageSieveScriptsDialogD1Ev@Base 4:15.08.0
 _ZN8KSieveUi24ManageSieveScriptsDialogD2Ev@Base 4:15.08.0
 _ZN8KSieveUi24MultiImapVacationManager11qt_metacallEN11QMetaObject4CallEiPPv@Base 4:15.08.0
 _ZN8KSieveUi24MultiImapVacationManager11qt_metacastEPKc@Base 4:15.08.0
 _ZN8KSieveUi24MultiImapVacationManager12scriptActiveEbRK7QString@Base 4:15.08.0
 _ZN8KSieveUi24MultiImapVacationManager13checkVacationEv@Base 4:15.08.0
 _ZN8KSieveUi24MultiImapVacationManager16slotScriptActiveEbRK7QString@Base 4:15.08.0
 _ZN8KSieveUi24MultiImapVacationManager16staticMetaObjectE@Base 4:15.08.0
 _ZN8KSieveUi24MultiImapVacationManager19requestEditVacationEv@Base 4:15.08.0
 _ZN8KSieveUi24MultiImapVacationManagerC1EP7QObject@Base 4:15.08.0
 _ZN8KSieveUi24MultiImapVacationManagerC2EP7QObject@Base 4:15.08.0
 _ZN8KSieveUi24MultiImapVacationManagerD0Ev@Base 4:15.08.0
 _ZN8KSieveUi24MultiImapVacationManagerD1Ev@Base 4:15.08.0
 _ZN8KSieveUi24MultiImapVacationManagerD2Ev@Base 4:15.08.0
 _ZN8KSieveUi24XMLPrintingScriptBuilder10blockStartEv@Base 4:15.08.0
 _ZN8KSieveUi24XMLPrintingScriptBuilder10commandEndEv@Base 4:15.08.0
 _ZN8KSieveUi24XMLPrintingScriptBuilder11hashCommentERK7QString@Base 4:15.08.0
 _ZN8KSieveUi24XMLPrintingScriptBuilder11testListEndEv@Base 4:15.08.0
 _ZN8KSieveUi24XMLPrintingScriptBuilder12commandStartERK7QString@Base 4:15.08.0
 _ZN8KSieveUi24XMLPrintingScriptBuilder13testListStartEv@Base 4:15.08.0
 _ZN8KSieveUi24XMLPrintingScriptBuilder14bracketCommentERK7QString@Base 4:15.08.0
 _ZN8KSieveUi24XMLPrintingScriptBuilder14numberArgumentEmc@Base 4:15.08.0
 _ZN8KSieveUi24XMLPrintingScriptBuilder14stringArgumentERK7QStringbS3_@Base 4:15.08.0
 _ZN8KSieveUi24XMLPrintingScriptBuilder14taggedArgumentERK7QString@Base 4:15.08.0
 _ZN8KSieveUi24XMLPrintingScriptBuilder15stringListEntryERK7QStringbS3_@Base 4:15.08.0
 _ZN8KSieveUi24XMLPrintingScriptBuilder21stringListArgumentEndEv@Base 4:15.08.0
 _ZN8KSieveUi24XMLPrintingScriptBuilder23stringListArgumentStartEv@Base 4:15.08.0
 _ZN8KSieveUi24XMLPrintingScriptBuilder5clearEv@Base 4:15.08.0
 _ZN8KSieveUi24XMLPrintingScriptBuilder5errorERKN6KSieve5ErrorE@Base 4:15.08.0
 _ZN8KSieveUi24XMLPrintingScriptBuilder5writeERK7QString@Base 4:15.08.0
 _ZN8KSieveUi24XMLPrintingScriptBuilder5writeERK7QStringS3_@Base 4:15.08.0
 _ZN8KSieveUi24XMLPrintingScriptBuilder5writeERK7QStringS3_S3_@Base 4:15.08.0
 _ZN8KSieveUi24XMLPrintingScriptBuilder7testEndEv@Base 4:15.08.0
 _ZN8KSieveUi24XMLPrintingScriptBuilder8blockEndEv@Base 4:15.08.0
 _ZN8KSieveUi24XMLPrintingScriptBuilder8finishedEv@Base 4:15.08.0
 _ZN8KSieveUi24XMLPrintingScriptBuilder8lineFeedEv@Base 4:15.08.0
 _ZN8KSieveUi24XMLPrintingScriptBuilder9testStartERK7QString@Base 4:15.08.0
 _ZN8KSieveUi24XMLPrintingScriptBuilderC1Ev@Base 4:15.08.0
 _ZN8KSieveUi24XMLPrintingScriptBuilderC2Ev@Base 4:15.08.0
 _ZN8KSieveUi24XMLPrintingScriptBuilderD0Ev@Base 4:15.08.0
 _ZN8KSieveUi24XMLPrintingScriptBuilderD1Ev@Base 4:15.08.0
 _ZN8KSieveUi24XMLPrintingScriptBuilderD2Ev@Base 4:15.08.0
 _ZN8KSieveUi25SieveScriptDebuggerDialog10readConfigEv@Base 4:15.08.0
 _ZN8KSieveUi25SieveScriptDebuggerDialog11qt_metacallEN11QMetaObject4CallEiPPv@Base 4:15.08.0
 _ZN8KSieveUi25SieveScriptDebuggerDialog11qt_metacastEPKc@Base 4:15.08.0
 _ZN8KSieveUi25SieveScriptDebuggerDialog11writeConfigEv@Base 4:15.08.0
 _ZN8KSieveUi25SieveScriptDebuggerDialog16staticMetaObjectE@Base 4:15.08.0
 _ZN8KSieveUi25SieveScriptDebuggerDialog9setScriptERK7QString@Base 4:15.08.0
 _ZN8KSieveUi25SieveScriptDebuggerDialogC1EP7QWidget@Base 4:15.08.0
 _ZN8KSieveUi25SieveScriptDebuggerDialogC2EP7QWidget@Base 4:15.08.0
 _ZN8KSieveUi25SieveScriptDebuggerDialogD0Ev@Base 4:15.08.0
 _ZN8KSieveUi25SieveScriptDebuggerDialogD1Ev@Base 4:15.08.0
 _ZN8KSieveUi25SieveScriptDebuggerDialogD2Ev@Base 4:15.08.0
 _ZN8KSieveUi25SieveScriptDebuggerWidget11qt_metacallEN11QMetaObject4CallEiPPv@Base 4:15.08.0
 _ZN8KSieveUi25SieveScriptDebuggerWidget11qt_metacastEPKc@Base 4:15.08.0
 _ZN8KSieveUi25SieveScriptDebuggerWidget16staticMetaObjectE@Base 4:15.08.0
 _ZN8KSieveUi25SieveScriptDebuggerWidget25checkSieveTestApplicationEv@Base 4:15.08.0
 _ZN8KSieveUi25SieveScriptDebuggerWidget9setScriptERK7QString@Base 4:15.08.0
 _ZN8KSieveUi25SieveScriptDebuggerWidgetC1EP7QWidget@Base 4:15.08.0
 _ZN8KSieveUi25SieveScriptDebuggerWidgetC2EP7QWidget@Base 4:15.08.0
 _ZN8KSieveUi25SieveScriptDebuggerWidgetD0Ev@Base 4:15.08.0
 _ZN8KSieveUi25SieveScriptDebuggerWidgetD1Ev@Base 4:15.08.0
 _ZN8KSieveUi25SieveScriptDebuggerWidgetD2Ev@Base 4:15.08.0
 _ZN8KSieveUi26SieveScriptDebuggerWarning11qt_metacallEN11QMetaObject4CallEiPPv@Base 4:15.08.0
 _ZN8KSieveUi26SieveScriptDebuggerWarning11qt_metacastEPKc@Base 4:15.08.0
 _ZN8KSieveUi26SieveScriptDebuggerWarning15setErrorMessageERK7QString@Base 4:15.08.0
 _ZN8KSieveUi26SieveScriptDebuggerWarning16staticMetaObjectE@Base 4:15.08.0
 _ZN8KSieveUi26SieveScriptDebuggerWarning17setWarningMessageERK7QString@Base 4:15.08.0
 _ZN8KSieveUi26SieveScriptDebuggerWarningC1EP7QWidget@Base 4:15.08.0
 _ZN8KSieveUi26SieveScriptDebuggerWarningC2EP7QWidget@Base 4:15.08.0
 _ZN8KSieveUi26SieveScriptDebuggerWarningD0Ev@Base 4:15.08.0
 _ZN8KSieveUi26SieveScriptDebuggerWarningD1Ev@Base 4:15.08.0
 _ZN8KSieveUi26SieveScriptDebuggerWarningD2Ev@Base 4:15.08.0
 _ZN8KSieveUi27SieveScriptDebuggerTextEdit11qt_metacallEN11QMetaObject4CallEiPPv@Base 4:15.08.0
 _ZN8KSieveUi27SieveScriptDebuggerTextEdit11qt_metacastEPKc@Base 4:15.08.0
 _ZN8KSieveUi27SieveScriptDebuggerTextEdit16staticMetaObjectE@Base 4:15.08.0
 _ZN8KSieveUi27SieveScriptDebuggerTextEdit17addExtraMenuEntryEP5QMenuRK6QPoint@Base 4:15.08.0
 _ZN8KSieveUi27SieveScriptDebuggerTextEditC1EP7QWidget@Base 4:15.08.0
 _ZN8KSieveUi27SieveScriptDebuggerTextEditC2EP7QWidget@Base 4:15.08.0
 _ZN8KSieveUi27SieveScriptDebuggerTextEditD0Ev@Base 4:15.08.0
 _ZN8KSieveUi27SieveScriptDebuggerTextEditD1Ev@Base 4:15.08.0
 _ZN8KSieveUi27SieveScriptDebuggerTextEditD2Ev@Base 4:15.08.0
 _ZN8KSieveUi33SieveScriptDebuggerFrontEndWidget11qt_metacallEN11QMetaObject4CallEiPPv@Base 4:15.08.0
 _ZN8KSieveUi33SieveScriptDebuggerFrontEndWidget11qt_metacastEPKc@Base 4:15.08.0
 _ZN8KSieveUi33SieveScriptDebuggerFrontEndWidget15slotDebugScriptEv@Base 4:15.08.0
 _ZN8KSieveUi33SieveScriptDebuggerFrontEndWidget16slotEmailChangedERK7QString@Base 4:15.08.0
 _ZN8KSieveUi33SieveScriptDebuggerFrontEndWidget16staticMetaObjectE@Base 4:15.08.0
 _ZN8KSieveUi33SieveScriptDebuggerFrontEndWidget17slotDebugFinishedEv@Base 4:15.08.0
 _ZN8KSieveUi33SieveScriptDebuggerFrontEndWidget19slotReadErrorOutputEv@Base 4:15.08.0
 _ZN8KSieveUi33SieveScriptDebuggerFrontEndWidget22slotReadStandardOutputEv@Base 4:15.08.0
 _ZN8KSieveUi33SieveScriptDebuggerFrontEndWidget9setScriptERK7QString@Base 4:15.08.0
 _ZN8KSieveUi33SieveScriptDebuggerFrontEndWidgetC1EP7QWidget@Base 4:15.08.0
 _ZN8KSieveUi33SieveScriptDebuggerFrontEndWidgetC2EP7QWidget@Base 4:15.08.0
 _ZN8KSieveUi33SieveScriptDebuggerFrontEndWidgetD0Ev@Base 4:15.08.0
 _ZN8KSieveUi33SieveScriptDebuggerFrontEndWidgetD1Ev@Base 4:15.08.0
 _ZN8KSieveUi33SieveScriptDebuggerFrontEndWidgetD2Ev@Base 4:15.08.0
 _ZN8KSieveUi4Util18imapAgentInstancesEv@Base 4:15.08.0
 _ZN8KSieveUi4Util22findSieveUrlForAccountERK7QString@Base 4:15.08.0
 _ZN8KSieveUi4Util24allowOutOfOfficeSettingsEv@Base 4:15.08.0
 _ZN8KSieveUi4Util25checkOutOfOfficeOnStartupEv@Base 4:15.08.0
 _ZN8KSieveUi8Vacation11qt_metacallEN11QMetaObject4CallEiPPv@Base 4:15.08.0
 _ZN8KSieveUi8Vacation11qt_metacastEPKc@Base 4:15.08.0
 _ZN8KSieveUi8Vacation12scriptActiveEbRK7QString@Base 4:15.08.0
 _ZN8KSieveUi8Vacation12slotDialogOkEv@Base 4:15.08.0
 _ZN8KSieveUi8Vacation13slotGetResultEPN12KManageSieve8SieveJobEbRK7QStringb@Base 4:15.08.0
 _ZN8KSieveUi8Vacation15handlePutResultEPN12KManageSieve8SieveJobEbb@Base 4:15.08.0
 _ZN8KSieveUi8Vacation16slotDialogCancelEv@Base 4:15.08.0
 _ZN8KSieveUi8Vacation16staticMetaObjectE@Base 4:15.08.0
 _ZN8KSieveUi8Vacation18showVacationDialogEv@Base 4:15.08.0
 _ZN8KSieveUi8Vacation19requestEditVacationEv@Base 4:15.08.0
 _ZN8KSieveUi8Vacation19slotPutActiveResultEPN12KManageSieve8SieveJobEb@Base 4:15.08.0
 _ZN8KSieveUi8Vacation21slotPutInactiveResultEPN12KManageSieve8SieveJobEb@Base 4:15.08.0
 _ZN8KSieveUi8Vacation6resultEb@Base 4:15.08.0
 _ZN8KSieveUi8VacationC1EP7QObjectbRK4QUrl@Base 4:15.08.0
 _ZN8KSieveUi8VacationC2EP7QObjectbRK4QUrl@Base 4:15.08.0
 _ZN8KSieveUi8VacationD0Ev@Base 4:15.08.0
 _ZN8KSieveUi8VacationD1Ev@Base 4:15.08.0
 _ZN8KSieveUi8VacationD2Ev@Base 4:15.08.0
 (optional=templinst)_ZNK12KConfigGroup9readEntryI5QSizeEET_PKcRKS2_@Base 4:15.08.0
 (optional=templinst)_ZNK12KConfigGroup9readEntryIiEE5QListIT_EPKcRKS3_@Base 4:15.08.0
 _ZNK29SieveScriptParsingErrorDialog10metaObjectEv@Base 4:15.08.0
 _ZNK8KSieveUi11SieveEditor10metaObjectEv@Base 4:15.08.0
 _ZNK8KSieveUi11SieveEditor14originalScriptEv@Base 4:15.08.0
 _ZNK8KSieveUi11SieveEditor6scriptEv@Base 4:15.08.0
 _ZNK8KSieveUi13SieveTextEdit10metaObjectEv@Base 4:15.08.0
 _ZNK8KSieveUi13SieveTextEdit12selectedWordERK6QPoint@Base 4:15.08.0
 _ZNK8KSieveUi13SieveTextEdit13completerListEv@Base 4:15.08.0
 _ZNK8KSieveUi13SieveTextEdit19lineNumberAreaWidthEv@Base 4:15.08.0
 _ZNK8KSieveUi15VacationManager10metaObjectEv@Base 4:15.08.0
 _ZNK8KSieveUi16SieveDebugDialog10metaObjectEv@Base 4:15.08.0
 _ZNK8KSieveUi17ManageSieveWidget10metaObjectEv@Base 4:15.08.0
 _ZNK8KSieveUi17ManageSieveWidget13itemIsActivedEP15QTreeWidgetItem@Base 4:15.08.0
 _ZNK8KSieveUi17ManageSieveWidget14isFileNameItemEP15QTreeWidgetItem@Base 4:15.08.0
 _ZNK8KSieveUi17ManageSieveWidget14serverHasErrorEP15QTreeWidgetItem@Base 4:15.08.0
 _ZNK8KSieveUi17ManageSieveWidget8treeViewEv@Base 4:15.08.0
 _ZNK8KSieveUi17SieveEditorWidget10isModifiedEv@Base 4:15.08.0
 _ZNK8KSieveUi17SieveEditorWidget10metaObjectEv@Base 4:15.08.0
 _ZNK8KSieveUi17SieveEditorWidget12hasSelectionEv@Base 4:15.08.0
 _ZNK8KSieveUi17SieveEditorWidget14currentHelpUrlEv@Base 4:15.08.0
 _ZNK8KSieveUi17SieveEditorWidget14originalScriptEv@Base 4:15.08.0
 _ZNK8KSieveUi17SieveEditorWidget15isRedoAvailableEv@Base 4:15.08.0
 _ZNK8KSieveUi17SieveEditorWidget15isUndoAvailableEv@Base 4:15.08.0
 _ZNK8KSieveUi17SieveEditorWidget16currentHelpTitleEv@Base 4:15.08.0
 _ZNK8KSieveUi17SieveEditorWidget4modeEv@Base 4:15.08.0
 _ZNK8KSieveUi17SieveEditorWidget6scriptEv@Base 4:15.08.0
 _ZNK8KSieveUi17VacationHelperJob10metaObjectEv@Base 4:15.08.0
 _ZNK8KSieveUi18ParseUserScriptJob10metaObjectEv@Base 4:15.08.0
 _ZNK8KSieveUi19ManageSieveTreeView10metaObjectEv@Base 4:15.08.0
 _ZNK8KSieveUi19ParsingResultDialog10metaObjectEv@Base 4:15.08.0
 _ZNK8KSieveUi19SieveTextEditWidget10metaObjectEv@Base 4:15.08.0
 _ZNK8KSieveUi19SieveTextEditWidget8textEditEv@Base 4:15.08.0
 _ZNK8KSieveUi22AutoCreateScriptDialog10metaObjectEv@Base 4:15.08.0
 _ZNK8KSieveUi22AutoCreateScriptDialog6scriptER7QString@Base 4:15.08.0
 _ZNK8KSieveUi23MultiImapVacationDialog10metaObjectEv@Base 4:15.08.0
 _ZNK8KSieveUi23MultiImapVacationDialog13listCreateJobEv@Base 4:15.08.0
 _ZNK8KSieveUi23VacationCreateScriptJob10metaObjectEv@Base 4:15.08.0
 _ZNK8KSieveUi24ManageSieveScriptsDialog10metaObjectEv@Base 4:15.08.0
 _ZNK8KSieveUi24MultiImapVacationManager10metaObjectEv@Base 4:15.08.0
 _ZNK8KSieveUi24XMLPrintingScriptBuilder5errorEv@Base 4:15.08.0
 _ZNK8KSieveUi24XMLPrintingScriptBuilder5toDomEv@Base 4:15.08.0
 _ZNK8KSieveUi24XMLPrintingScriptBuilder6resultEv@Base 4:15.08.0
 _ZNK8KSieveUi24XMLPrintingScriptBuilder8hasErrorEv@Base 4:15.08.0
 _ZNK8KSieveUi25SieveScriptDebuggerDialog10metaObjectEv@Base 4:15.08.0
 _ZNK8KSieveUi25SieveScriptDebuggerDialog6scriptEv@Base 4:15.08.0
 _ZNK8KSieveUi25SieveScriptDebuggerWidget10metaObjectEv@Base 4:15.08.0
 _ZNK8KSieveUi25SieveScriptDebuggerWidget6scriptEv@Base 4:15.08.0
 _ZNK8KSieveUi26SieveScriptDebuggerWarning10metaObjectEv@Base 4:15.08.0
 _ZNK8KSieveUi27SieveScriptDebuggerTextEdit10metaObjectEv@Base 4:15.08.0
 _ZNK8KSieveUi33SieveScriptDebuggerFrontEndWidget10metaObjectEv@Base 4:15.08.0
 _ZNK8KSieveUi33SieveScriptDebuggerFrontEndWidget6scriptEv@Base 4:15.08.0
 _ZNK8KSieveUi8Vacation10metaObjectEv@Base 4:15.08.0
 _ZNK8KSieveUi8Vacation7findURLER7QString@Base 4:15.08.0
 (optional=templinst)_ZNKSt8_Rb_treeI7QStringSt4pairIKS0_S0_ESt10_Select1stIS3_ESt4lessIS0_ESaIS3_EE4findERS2_@Base 4:15.08.0
 (optional=templinst)_ZNSt8_Rb_treeI7QStringSt4pairIKS0_S0_ESt10_Select1stIS3_ESt4lessIS0_ESaIS3_EE22_M_emplace_hint_uniqueIIRKSt21piecewise_construct_tSt5tupleIIOS0_EESE_IIEEEEESt17_Rb_tree_iteratorIS3_ESt23_Rb_tree_const_iteratorIS3_EDpOT_@Base 4:15.08.0
 (optional=templinst)_ZNSt8_Rb_treeI7QStringSt4pairIKS0_S0_ESt10_Select1stIS3_ESt4lessIS0_ESaIS3_EE22_M_emplace_hint_uniqueIJRKSt21piecewise_construct_tSt5tupleIJOS0_EESE_IJEEEEESt17_Rb_tree_iteratorIS3_ESt23_Rb_tree_const_iteratorIS3_EDpOT_@Base 4:15.08.0
 (optional=templinst)_ZNSt8_Rb_treeI7QStringSt4pairIKS0_S0_ESt10_Select1stIS3_ESt4lessIS0_ESaIS3_EE24_M_get_insert_unique_posERS2_@Base 4:15.08.0
 (optional=templinst)_ZNSt8_Rb_treeI7QStringSt4pairIKS0_S0_ESt10_Select1stIS3_ESt4lessIS0_ESaIS3_EE29_M_get_insert_hint_unique_posESt23_Rb_tree_const_iteratorIS3_ERS2_@Base 4:15.08.0
 (optional=templinst)_ZNSt8_Rb_treeI7QStringSt4pairIKS0_S0_ESt10_Select1stIS3_ESt4lessIS0_ESaIS3_EE8_M_eraseEPSt13_Rb_tree_nodeIS3_E@Base 4:15.08.0
 (optional=templinst)_ZNSt8_Rb_treeIjjSt9_IdentityIjESt4lessIjESaIjEE16_M_insert_uniqueIRKjEESt4pairISt17_Rb_tree_iteratorIjEbEOT_@Base 4:15.08.0
 (optional=templinst)_ZNSt8_Rb_treeIjjSt9_IdentityIjESt4lessIjESaIjEE8_M_eraseEPSt13_Rb_tree_nodeIjE@Base 4:15.08.0
 _ZTI11KIconEngine@Base 4:15.08.0
 _ZTI29SieveScriptParsingErrorDialog@Base 4:15.08.0
 _ZTIN8KSieveUi11SieveEditorE@Base 4:15.08.0
 _ZTIN8KSieveUi13SieveTextEditE@Base 4:15.08.0
 _ZTIN8KSieveUi15VacationManagerE@Base 4:15.08.0
 _ZTIN8KSieveUi16SieveDebugDialogE@Base 4:15.08.0
 _ZTIN8KSieveUi17ManageSieveWidgetE@Base 4:15.08.0
 _ZTIN8KSieveUi17SieveEditorWidgetE@Base 4:15.08.0
 _ZTIN8KSieveUi17VacationHelperJobE@Base 4:15.08.0
 _ZTIN8KSieveUi18ParseUserScriptJobE@Base 4:15.08.0
 _ZTIN8KSieveUi19ManageSieveTreeViewE@Base 4:15.08.0
 _ZTIN8KSieveUi19ParsingResultDialogE@Base 4:15.08.0
 _ZTIN8KSieveUi19SieveTextEditWidgetE@Base 4:15.08.0
 _ZTIN8KSieveUi19SieveTreeWidgetItemE@Base 4:15.08.0
 _ZTIN8KSieveUi22AutoCreateScriptDialogE@Base 4:15.08.0
 _ZTIN8KSieveUi23MultiImapVacationDialogE@Base 4:15.08.0
 _ZTIN8KSieveUi23VacationCreateScriptJobE@Base 4:15.08.0
 _ZTIN8KSieveUi24ManageSieveScriptsDialogE@Base 4:15.08.0
 _ZTIN8KSieveUi24MultiImapVacationManagerE@Base 4:15.08.0
 _ZTIN8KSieveUi24XMLPrintingScriptBuilderE@Base 4:15.08.0
 _ZTIN8KSieveUi25SieveScriptDebuggerDialogE@Base 4:15.08.0
 _ZTIN8KSieveUi25SieveScriptDebuggerWidgetE@Base 4:15.08.0
 _ZTIN8KSieveUi26SieveScriptDebuggerWarningE@Base 4:15.08.0
 _ZTIN8KSieveUi27SieveScriptDebuggerTextEditE@Base 4:15.08.0
 _ZTIN8KSieveUi33SieveScriptDebuggerFrontEndWidgetE@Base 4:15.08.0
 _ZTIN8KSieveUi8VacationE@Base 4:15.08.0
 _ZTS11KIconEngine@Base 4:15.08.0
 _ZTS29SieveScriptParsingErrorDialog@Base 4:15.08.0
 _ZTSN8KSieveUi11SieveEditorE@Base 4:15.08.0
 _ZTSN8KSieveUi13SieveTextEditE@Base 4:15.08.0
 _ZTSN8KSieveUi15VacationManagerE@Base 4:15.08.0
 _ZTSN8KSieveUi16SieveDebugDialogE@Base 4:15.08.0
 _ZTSN8KSieveUi17ManageSieveWidgetE@Base 4:15.08.0
 _ZTSN8KSieveUi17SieveEditorWidgetE@Base 4:15.08.0
 _ZTSN8KSieveUi17VacationHelperJobE@Base 4:15.08.0
 _ZTSN8KSieveUi18ParseUserScriptJobE@Base 4:15.08.0
 _ZTSN8KSieveUi19ManageSieveTreeViewE@Base 4:15.08.0
 _ZTSN8KSieveUi19ParsingResultDialogE@Base 4:15.08.0
 _ZTSN8KSieveUi19SieveTextEditWidgetE@Base 4:15.08.0
 _ZTSN8KSieveUi19SieveTreeWidgetItemE@Base 4:15.08.0
 _ZTSN8KSieveUi22AutoCreateScriptDialogE@Base 4:15.08.0
 _ZTSN8KSieveUi23MultiImapVacationDialogE@Base 4:15.08.0
 _ZTSN8KSieveUi23VacationCreateScriptJobE@Base 4:15.08.0
 _ZTSN8KSieveUi24ManageSieveScriptsDialogE@Base 4:15.08.0
 _ZTSN8KSieveUi24MultiImapVacationManagerE@Base 4:15.08.0
 _ZTSN8KSieveUi24XMLPrintingScriptBuilderE@Base 4:15.08.0
 _ZTSN8KSieveUi25SieveScriptDebuggerDialogE@Base 4:15.08.0
 _ZTSN8KSieveUi25SieveScriptDebuggerWidgetE@Base 4:15.08.0
 _ZTSN8KSieveUi26SieveScriptDebuggerWarningE@Base 4:15.08.0
 _ZTSN8KSieveUi27SieveScriptDebuggerTextEditE@Base 4:15.08.0
 _ZTSN8KSieveUi33SieveScriptDebuggerFrontEndWidgetE@Base 4:15.08.0
 _ZTSN8KSieveUi8VacationE@Base 4:15.08.0
 _ZTV11KIconEngine@Base 4:15.08.0
 _ZTV29SieveScriptParsingErrorDialog@Base 4:15.08.0
 _ZTVN8KSieveUi11SieveEditorE@Base 4:15.08.0
 _ZTVN8KSieveUi13SieveTextEditE@Base 4:15.08.0
 _ZTVN8KSieveUi15VacationManagerE@Base 4:15.08.0
 _ZTVN8KSieveUi16SieveDebugDialogE@Base 4:15.08.0
 _ZTVN8KSieveUi17ManageSieveWidgetE@Base 4:15.08.0
 _ZTVN8KSieveUi17SieveEditorWidgetE@Base 4:15.08.0
 _ZTVN8KSieveUi17VacationHelperJobE@Base 4:15.08.0
 _ZTVN8KSieveUi18ParseUserScriptJobE@Base 4:15.08.0
 _ZTVN8KSieveUi19ManageSieveTreeViewE@Base 4:15.08.0
 _ZTVN8KSieveUi19ParsingResultDialogE@Base 4:15.08.0
 _ZTVN8KSieveUi19SieveTextEditWidgetE@Base 4:15.08.0
 _ZTVN8KSieveUi19SieveTreeWidgetItemE@Base 4:15.08.0
 _ZTVN8KSieveUi22AutoCreateScriptDialogE@Base 4:15.08.0
 _ZTVN8KSieveUi23MultiImapVacationDialogE@Base 4:15.08.0
 _ZTVN8KSieveUi23VacationCreateScriptJobE@Base 4:15.08.0
 _ZTVN8KSieveUi24ManageSieveScriptsDialogE@Base 4:15.08.0
 _ZTVN8KSieveUi24MultiImapVacationManagerE@Base 4:15.08.0
 _ZTVN8KSieveUi24XMLPrintingScriptBuilderE@Base 4:15.08.0
 _ZTVN8KSieveUi25SieveScriptDebuggerDialogE@Base 4:15.08.0
 _ZTVN8KSieveUi25SieveScriptDebuggerWidgetE@Base 4:15.08.0
 _ZTVN8KSieveUi26SieveScriptDebuggerWarningE@Base 4:15.08.0
 _ZTVN8KSieveUi27SieveScriptDebuggerTextEditE@Base 4:15.08.0
 _ZTVN8KSieveUi33SieveScriptDebuggerFrontEndWidgetE@Base 4:15.08.0
 _ZTVN8KSieveUi8VacationE@Base 4:15.08.0
 (c++)"non-virtual thunk to KSieveUi::AutoCreateScriptDialog::~AutoCreateScriptDialog()@Base" 4:15.08.0
 (c++)"non-virtual thunk to KSieveUi::ManageSieveScriptsDialog::~ManageSieveScriptsDialog()@Base" 4:15.08.0
 (c++)"non-virtual thunk to KSieveUi::ManageSieveTreeView::~ManageSieveTreeView()@Base" 4:15.08.0
 (c++)"non-virtual thunk to KSieveUi::ManageSieveWidget::~ManageSieveWidget()@Base" 4:15.08.0
 (c++)"non-virtual thunk to KSieveUi::MultiImapVacationDialog::~MultiImapVacationDialog()@Base" 4:15.08.0
 (c++)"non-virtual thunk to KSieveUi::ParsingResultDialog::~ParsingResultDialog()@Base" 4:15.08.0
 (c++)"non-virtual thunk to KSieveUi::SieveDebugDialog::~SieveDebugDialog()@Base" 4:15.08.0
 (c++)"non-virtual thunk to KSieveUi::SieveEditor::~SieveEditor()@Base" 4:15.08.0
 (c++)"non-virtual thunk to KSieveUi::SieveEditorWidget::~SieveEditorWidget()@Base" 4:15.08.0
 (c++)"non-virtual thunk to KSieveUi::SieveScriptDebuggerDialog::~SieveScriptDebuggerDialog()@Base" 4:15.08.0
 (c++)"non-virtual thunk to KSieveUi::SieveScriptDebuggerFrontEndWidget::~SieveScriptDebuggerFrontEndWidget()@Base" 4:15.08.0
 (c++)"non-virtual thunk to KSieveUi::SieveScriptDebuggerTextEdit::~SieveScriptDebuggerTextEdit()@Base" 4:15.08.0
 (c++)"non-virtual thunk to KSieveUi::SieveScriptDebuggerWarning::~SieveScriptDebuggerWarning()@Base" 4:15.08.0
 (c++)"non-virtual thunk to KSieveUi::SieveScriptDebuggerWidget::~SieveScriptDebuggerWidget()@Base" 4:15.08.0
 (c++)"non-virtual thunk to KSieveUi::SieveTextEdit::~SieveTextEdit()@Base" 4:15.08.0
 (c++)"non-virtual thunk to KSieveUi::SieveTextEditWidget::~SieveTextEditWidget()@Base" 4:15.08.0
 (c++)"non-virtual thunk to SieveScriptParsingErrorDialog::~SieveScriptParsingErrorDialog()@Base" 4:15.08.0
