# SymbolsHelper-Confirmed: 4:15.08.1 i386
libkpgp.so.5 libkpgp5 #MINVER#
 (optional=templinst)_ZN12KConfigGroup10writeEntryIbEEvPKcRKT_6QFlagsIN11KConfigBase15WriteConfigFlagEE@Base 4:15.08.0
 (optional=templinst)_ZN12KConfigGroup10writeEntryIiEEvPKcRKT_6QFlagsIN11KConfigBase15WriteConfigFlagEE@Base 4:15.08.0
 _ZN4Kpgp12KeyRequester11qt_metacallEN11QMetaObject4CallEiPPv@Base 4:15.08.0
 _ZN4Kpgp12KeyRequester11qt_metacastEPKc@Base 4:15.08.0
 _ZN4Kpgp12KeyRequester12virtual_hookEiPv@Base 4:15.08.0
 _ZN4Kpgp12KeyRequester14setAllowedKeysEi@Base 4:15.08.0
 _ZN4Kpgp12KeyRequester16setDialogCaptionERK7QString@Base 4:15.08.0
 _ZN4Kpgp12KeyRequester16setDialogMessageERK7QString@Base 4:15.08.0
 _ZN4Kpgp12KeyRequester16staticMetaObjectE@Base 4:15.08.0
 _ZN4Kpgp12KeyRequester22setMultipleKeysEnabledEb@Base 4:15.08.0
 _ZN4Kpgp12KeyRequester22slotEraseButtonClickedEv@Base 4:15.08.0
 _ZN4Kpgp12KeyRequester23slotDialogButtonClickedEv@Base 4:15.08.0
 _ZN4Kpgp12KeyRequester7changedEv@Base 4:15.08.0
 _ZN4Kpgp12KeyRequester9setKeyIDsERKNS_9KeyIDListE@Base 4:15.08.0
 _ZN4Kpgp12KeyRequesterC1EP7QWidgetbjPKc@Base 4:15.08.0
 _ZN4Kpgp12KeyRequesterC2EP7QWidgetbjPKc@Base 4:15.08.0
 _ZN4Kpgp12KeyRequesterD0Ev@Base 4:15.08.0
 _ZN4Kpgp12KeyRequesterD1Ev@Base 4:15.08.0
 _ZN4Kpgp12KeyRequesterD2Ev@Base 4:15.08.0
 _ZN4Kpgp16CipherTextDialog11qt_metacallEN11QMetaObject4CallEiPPv@Base 4:15.08.0
 _ZN4Kpgp16CipherTextDialog11qt_metacastEPKc@Base 4:15.08.0
 _ZN4Kpgp16CipherTextDialog14setMinimumSizeEv@Base 4:15.08.0
 _ZN4Kpgp16CipherTextDialog16staticMetaObjectE@Base 4:15.08.0
 _ZN4Kpgp16CipherTextDialogC1ERK10QByteArrayS3_P7QWidget@Base 4:15.08.0
 _ZN4Kpgp16CipherTextDialogC2ERK10QByteArrayS3_P7QWidget@Base 4:15.08.0
 _ZN4Kpgp16PassphraseDialog10passphraseEv@Base 4:15.08.0
 _ZN4Kpgp16PassphraseDialog11qt_metacallEN11QMetaObject4CallEiPPv@Base 4:15.08.0
 _ZN4Kpgp16PassphraseDialog11qt_metacastEPKc@Base 4:15.08.0
 _ZN4Kpgp16PassphraseDialog16staticMetaObjectE@Base 4:15.08.0
 _ZN4Kpgp16PassphraseDialogC1EP7QWidgetRK7QStringS5_@Base 4:15.08.0
 _ZN4Kpgp16PassphraseDialogC2EP7QWidgetRK7QStringS5_@Base 4:15.08.0
 _ZN4Kpgp16PassphraseDialogD0Ev@Base 4:15.08.0
 _ZN4Kpgp16PassphraseDialogD1Ev@Base 4:15.08.0
 _ZN4Kpgp16PassphraseDialogD2Ev@Base 4:15.08.0
 _ZN4Kpgp17KeyApprovalDialog10slotCancelEv@Base 4:15.08.0
 _ZN4Kpgp17KeyApprovalDialog11qt_metacallEN11QMetaObject4CallEiPPv@Base 4:15.08.0
 _ZN4Kpgp17KeyApprovalDialog11qt_metacastEPKc@Base 4:15.08.0
 _ZN4Kpgp17KeyApprovalDialog16staticMetaObjectE@Base 4:15.08.0
 _ZN4Kpgp17KeyApprovalDialog23slotChangeEncryptionKeyEi@Base 4:15.08.0
 _ZN4Kpgp17KeyApprovalDialog6slotOkEv@Base 4:15.08.0
 _ZN4Kpgp17KeyApprovalDialogC1ERK11QStringListRK7QVectorINS_9KeyIDListEEiP7QWidget@Base 4:15.08.0
 _ZN4Kpgp17KeyApprovalDialogC2ERK11QStringListRK7QVectorINS_9KeyIDListEEiP7QWidget@Base 4:15.08.0
 _ZN4Kpgp18KeySelectionDialog10slotCancelEv@Base 4:15.08.0
 _ZN4Kpgp18KeySelectionDialog10slotFilterEv@Base 4:15.08.0
 _ZN4Kpgp18KeySelectionDialog10slotSearchERK7QString@Base 4:15.08.0
 _ZN4Kpgp18KeySelectionDialog11filterByUIDERK7QString@Base 4:15.08.0
 _ZN4Kpgp18KeySelectionDialog11initKeylistERK5QListIPNS_3KeyEERKNS_9KeyIDListE@Base 4:15.08.0
 _ZN4Kpgp18KeySelectionDialog11qt_metacallEN11QMetaObject4CallEiPPv@Base 4:15.08.0
 _ZN4Kpgp18KeySelectionDialog11qt_metacastEPKc@Base 4:15.08.0
 _ZN4Kpgp18KeySelectionDialog12showAllItemsEv@Base 4:15.08.0
 _ZN4Kpgp18KeySelectionDialog13filterByKeyIDERK7QString@Base 4:15.08.0
 _ZN4Kpgp18KeySelectionDialog14slotRecheckKeyEv@Base 4:15.08.0
 _ZN4Kpgp18KeySelectionDialog14slotRereadKeysEv@Base 4:15.08.0
 _ZN4Kpgp18KeySelectionDialog16staticMetaObjectE@Base 4:15.08.0
 _ZN4Kpgp18KeySelectionDialog18filterByKeyIDOrUIDERK7QString@Base 4:15.08.0
 _ZN4Kpgp18KeySelectionDialog18slotCheckSelectionEP15QTreeWidgetItem@Base 4:15.08.0
 _ZN4Kpgp18KeySelectionDialog20sCheckSelectionDelayE@Base 4:15.08.0
 _ZN4Kpgp18KeySelectionDialog20slotSelectionChangedEv@Base 4:15.08.0
 _ZN4Kpgp18KeySelectionDialog6slotOkEv@Base 4:15.08.0
 _ZN4Kpgp18KeySelectionDialog7slotRMBERK6QPoint@Base 4:15.08.0
 _ZN4Kpgp18KeySelectionDialogC1ERK5QListIPNS_3KeyEERK7QStringS9_RKNS_9KeyIDListEbjbP7QWidget@Base 4:15.08.0
 _ZN4Kpgp18KeySelectionDialogC2ERK5QListIPNS_3KeyEERK7QStringS9_RKNS_9KeyIDListEbjbP7QWidget@Base 4:15.08.0
 _ZN4Kpgp18KeySelectionDialogD0Ev@Base 4:15.08.0
 _ZN4Kpgp18KeySelectionDialogD1Ev@Base 4:15.08.0
 _ZN4Kpgp18KeySelectionDialogD2Ev@Base 4:15.08.0
 _ZN4Kpgp18PublicKeyRequester11qt_metacallEN11QMetaObject4CallEiPPv@Base 4:15.08.0
 _ZN4Kpgp18PublicKeyRequester11qt_metacastEPKc@Base 4:15.08.0
 _ZN4Kpgp18PublicKeyRequester12virtual_hookEiPv@Base 4:15.08.0
 _ZN4Kpgp18PublicKeyRequester16staticMetaObjectE@Base 4:15.08.0
 _ZN4Kpgp18PublicKeyRequesterC1EP7QWidgetbjPKc@Base 4:15.08.0
 _ZN4Kpgp18PublicKeyRequesterC2EP7QWidgetbjPKc@Base 4:15.08.0
 _ZN4Kpgp18PublicKeyRequesterD0Ev@Base 4:15.08.0
 _ZN4Kpgp18PublicKeyRequesterD1Ev@Base 4:15.08.0
 _ZN4Kpgp18PublicKeyRequesterD2Ev@Base 4:15.08.0
 _ZN4Kpgp18SecretKeyRequester11qt_metacallEN11QMetaObject4CallEiPPv@Base 4:15.08.0
 _ZN4Kpgp18SecretKeyRequester11qt_metacastEPKc@Base 4:15.08.0
 _ZN4Kpgp18SecretKeyRequester12virtual_hookEiPv@Base 4:15.08.0
 _ZN4Kpgp18SecretKeyRequester16staticMetaObjectE@Base 4:15.08.0
 _ZN4Kpgp18SecretKeyRequesterC1EP7QWidgetbjPKc@Base 4:15.08.0
 _ZN4Kpgp18SecretKeyRequesterC2EP7QWidgetbjPKc@Base 4:15.08.0
 _ZN4Kpgp18SecretKeyRequesterD0Ev@Base 4:15.08.0
 _ZN4Kpgp18SecretKeyRequesterD1Ev@Base 4:15.08.0
 _ZN4Kpgp18SecretKeyRequesterD2Ev@Base 4:15.08.0
 _ZN4Kpgp5Block5clearEv@Base 4:15.08.0
 _ZN4Kpgp5Block5resetEv@Base 4:15.08.0
 _ZN4Kpgp5Block6verifyEv@Base 4:15.08.0
 _ZN4Kpgp5Block7decryptEv@Base 4:15.08.0
 _ZN4Kpgp5Block7encryptERK11QStringListRK10QByteArraybS6_@Base 4:15.08.0
 _ZN4Kpgp5Block9clearsignERK10QByteArrayS3_@Base 4:15.08.0
 _ZN4Kpgp5BlockC1ERK10QByteArray@Base 4:15.08.0
 _ZN4Kpgp5BlockC2ERK10QByteArray@Base 4:15.08.0
 _ZN4Kpgp5BlockD1Ev@Base 4:15.08.0
 _ZN4Kpgp5BlockD2Ev@Base 4:15.08.0
 _ZN4Kpgp6Config11qt_metacallEN11QMetaObject4CallEiPPv@Base 4:15.08.0
 _ZN4Kpgp6Config11qt_metacastEPKc@Base 4:15.08.0
 _ZN4Kpgp6Config13applySettingsEv@Base 4:15.08.0
 _ZN4Kpgp6Config16staticMetaObjectE@Base 4:15.08.0
 _ZN4Kpgp6Config7changedEv@Base 4:15.08.0
 _ZN4Kpgp6Config9setValuesEv@Base 4:15.08.0
 _ZN4Kpgp6ConfigC1EP7QWidgetb@Base 4:15.08.0
 _ZN4Kpgp6ConfigC2EP7QWidgetb@Base 4:15.08.0
 _ZN4Kpgp6ConfigD0Ev@Base 4:15.08.0
 _ZN4Kpgp6ConfigD1Ev@Base 4:15.08.0
 _ZN4Kpgp6ConfigD2Ev@Base 4:15.08.0
 _ZN4Kpgp6Module10publicKeysEv@Base 4:15.08.0
 _ZN4Kpgp6Module10readConfigEv@Base 4:15.08.0
 _ZN4Kpgp6Module10secretKeysEv@Base 4:15.08.0
 _ZN4Kpgp6Module10selectKeysERK5QListIPNS_3KeyEERK7QStringS9_RKNS_9KeyIDListEj@Base 4:15.08.0
 _ZN4Kpgp6Module10selectKeysERbRK5QListIPNS_3KeyEERK7QStringSA_RKNS_9KeyIDListEj@Base 4:15.08.0
 _ZN4Kpgp6Module11checkForPGPEv@Base 4:15.08.0
 _ZN4Kpgp6Module11writeConfigEb@Base 4:15.08.0
 _ZN4Kpgp6Module13assignPGPBaseEv@Base 4:15.08.0
 _ZN4Kpgp6Module13setPassPhraseERK7QString@Base 4:15.08.0
 _ZN4Kpgp6Module14keysForAddressERK7QString@Base 4:15.08.0
 _ZN4Kpgp6Module14readPublicKeysEb@Base 4:15.08.0
 _ZN4Kpgp6Module14readSecretKeysEb@Base 4:15.08.0
 _ZN4Kpgp6Module14wipePassPhraseEb@Base 4:15.08.0
 _ZN4Kpgp6Module15readAddressDataEv@Base 4:15.08.0
 _ZN4Kpgp6Module15selectPublicKeyERK7QStringS3_RK10QByteArrayS3_j@Base 4:15.08.0
 _ZN4Kpgp6Module15selectSecretKeyERK7QStringS3_RK10QByteArray@Base 4:15.08.0
 _ZN4Kpgp6Module16canonicalAddressERK7QString@Base 4:15.08.0
 _ZN4Kpgp6Module16changePassPhraseEv@Base 4:15.08.0
 _ZN4Kpgp6Module16selectPublicKeysERK7QStringS3_RKNS_9KeyIDListES3_j@Base 4:15.08.0
 _ZN4Kpgp6Module16setEncryptToSelfEb@Base 4:15.08.0
 _ZN4Kpgp6Module16writeAddressDataEv@Base 4:15.08.0
 _ZN4Kpgp6Module17getAsciiPublicKeyERK10QByteArray@Base 4:15.08.0
 _ZN4Kpgp6Module17getEncryptionKeysERK7QString@Base 4:15.08.0
 _ZN4Kpgp6Module17getEncryptionKeysERNS_9KeyIDListERK11QStringListRK10QByteArray@Base 4:15.08.0
 _ZN4Kpgp6Module17setKeysForAddressERK7QStringRKNS_9KeyIDListE@Base 4:15.08.0
 _ZN4Kpgp6Module17setShowCipherTextEb@Base 4:15.08.0
 _ZN4Kpgp6Module18encryptionPossibleERK11QStringList@Base 4:15.08.0
 _ZN4Kpgp6Module18setStorePassPhraseEb@Base 4:15.08.0
 _ZN4Kpgp6Module20encryptionPreferenceERK7QString@Base 4:15.08.0
 _ZN4Kpgp6Module23setEncryptionPreferenceERK7QStringNS_11EncryptPrefE@Base 4:15.08.0
 _ZN4Kpgp6Module24haveTrustedEncryptionKeyERK7QString@Base 4:15.08.0
 _ZN4Kpgp6Module27prepareMessageForDecryptionERK10QByteArrayR5QListINS_5BlockEERS4_IS1_E@Base 4:15.08.0
 _ZN4Kpgp6Module4initEv@Base 4:15.08.0
 _ZN4Kpgp6Module5clearEb@Base 4:15.08.0
 _ZN4Kpgp6Module6verifyERNS_5BlockE@Base 4:15.08.0
 _ZN4Kpgp6Module7decryptERNS_5BlockE@Base 4:15.08.0
 _ZN4Kpgp6Module7encryptERNS_5BlockERK11QStringListRK10QByteArraybS8_@Base 4:15.08.0
 _ZN4Kpgp6Module7getKpgpEv@Base 4:15.08.0
 _ZN4Kpgp6Module7prepareEbPNS_5BlockE@Base 4:15.08.0
 _ZN4Kpgp6Module7setUserERK10QByteArray@Base 4:15.08.0
 _ZN4Kpgp6Module7signKeyERK10QByteArray@Base 4:15.08.0
 _ZN4Kpgp6Module8keyTrustERK10QByteArray@Base 4:15.08.0
 _ZN4Kpgp6Module8keyTrustERK7QString@Base 4:15.08.0
 _ZN4Kpgp6Module9clearsignERNS_5BlockERK10QByteArrayS5_@Base 4:15.08.0
 _ZN4Kpgp6Module9doEncSignERNS_5BlockERKNS_9KeyIDListEb@Base 4:15.08.0
 _ZN4Kpgp6Module9getConfigEv@Base 4:15.08.0
 _ZN4Kpgp6Module9isTrustedERK10QByteArray@Base 4:15.08.0
 _ZN4Kpgp6Module9publicKeyERK10QByteArray@Base 4:15.08.0
 _ZN4Kpgp6Module9publicKeyERK7QString@Base 4:15.08.0
 _ZN4Kpgp6Module9rereadKeyERK10QByteArrayb@Base 4:15.08.0
 _ZN4Kpgp6Module9secretKeyERK10QByteArray@Base 4:15.08.0
 _ZN4Kpgp6Module9selectKeyERK5QListIPNS_3KeyEERK7QStringS9_RK10QByteArrayj@Base 4:15.08.0
 _ZN4Kpgp6Module9selectKeyERbRK5QListIPNS_3KeyEERK7QStringSA_RK10QByteArrayj@Base 4:15.08.0
 _ZN4Kpgp6ModuleC1Ev@Base 4:15.08.0
 _ZN4Kpgp6ModuleC2Ev@Base 4:15.08.0
 _ZN4Kpgp6ModuleD0Ev@Base 4:15.08.0
 _ZN4Kpgp6ModuleD1Ev@Base 4:15.08.0
 _ZN4Kpgp6ModuleD2Ev@Base 4:15.08.0
#MISSING: 4:15.08.1# (optional=templinst)_ZNK12KConfigGroup9readEntryI5QSizeEET_PKcRKS2_@Base 4:15.08.0
 (optional=templinst)_ZNK12KConfigGroup9readEntryIbEET_PKcRKS1_@Base 4:15.08.0
 (optional=templinst)_ZNK12KConfigGroup9readEntryIiEET_PKcRKS1_@Base 4:15.08.0
 _ZNK4Kpgp12KeyRequester10metaObjectEv@Base 4:15.08.0
 _ZNK4Kpgp12KeyRequester11allowedKeysEv@Base 4:15.08.0
 _ZNK4Kpgp12KeyRequester21isMultipleKeysEnabledEv@Base 4:15.08.0
 _ZNK4Kpgp12KeyRequester6keyIDsEv@Base 4:15.08.0
 _ZNK4Kpgp16CipherTextDialog10metaObjectEv@Base 4:15.08.0
 _ZNK4Kpgp16PassphraseDialog10metaObjectEv@Base 4:15.08.0
 _ZNK4Kpgp17KeyApprovalDialog10metaObjectEv@Base 4:15.08.0
 _ZNK4Kpgp18KeySelectionDialog10metaObjectEv@Base 4:15.08.0
 _ZNK4Kpgp18KeySelectionDialog11keyValidityEPKNS_3KeyE@Base 4:15.08.0
 _ZNK4Kpgp18KeySelectionDialog13updateKeyInfoEPKNS_3KeyEP15QTreeWidgetItem@Base 4:15.08.0
 _ZNK4Kpgp18KeySelectionDialog15anyChildMatchesEPK15QTreeWidgetItemR7QRegExp@Base 4:15.08.0
 _ZNK4Kpgp18KeySelectionDialog16keyAdmissibilityEP15QTreeWidgetItemNS0_14TrustCheckModeE@Base 4:15.08.0
 _ZNK4Kpgp18KeySelectionDialog19beautifyFingerprintERK10QByteArray@Base 4:15.08.0
 _ZNK4Kpgp18KeySelectionDialog3keyEv@Base 4:15.08.0
 _ZNK4Kpgp18KeySelectionDialog7keyInfoEPKNS_3KeyE@Base 4:15.08.0
 _ZNK4Kpgp18KeySelectionDialog8getKeyIdEPK15QTreeWidgetItem@Base 4:15.08.0
 _ZNK4Kpgp18KeySelectionDialog9checkKeysERK5QListIP15QTreeWidgetItemE@Base 4:15.08.0
 _ZNK4Kpgp18PublicKeyRequester10metaObjectEv@Base 4:15.08.0
 _ZNK4Kpgp18PublicKeyRequester14keyRequestHookEPNS_6ModuleE@Base 4:15.08.0
 _ZNK4Kpgp18SecretKeyRequester10metaObjectEv@Base 4:15.08.0
 _ZNK4Kpgp18SecretKeyRequester14keyRequestHookEPNS_6ModuleE@Base 4:15.08.0
 _ZNK4Kpgp5Block13determineTypeEv@Base 4:15.08.0
 _ZNK4Kpgp6Config10metaObjectEv@Base 4:15.08.0
 _ZNK4Kpgp6Module12lastErrorMsgEv@Base 4:15.08.0
 _ZNK4Kpgp6Module13encryptToSelfEv@Base 4:15.08.0
 _ZNK4Kpgp6Module14showCipherTextEv@Base 4:15.08.0
 _ZNK4Kpgp6Module15storePassPhraseEv@Base 4:15.08.0
 _ZNK4Kpgp6Module4userEv@Base 4:15.08.0
 _ZNK4Kpgp6Module7havePGPEv@Base 4:15.08.0
 _ZTIN4Kpgp12KeyRequesterE@Base 4:15.08.0
 _ZTIN4Kpgp16CipherTextDialogE@Base 4:15.08.0
 _ZTIN4Kpgp16PassphraseDialogE@Base 4:15.08.0
 _ZTIN4Kpgp17KeyApprovalDialogE@Base 4:15.08.0
 _ZTIN4Kpgp18KeySelectionDialogE@Base 4:15.08.0
 _ZTIN4Kpgp18PublicKeyRequesterE@Base 4:15.08.0
 _ZTIN4Kpgp18SecretKeyRequesterE@Base 4:15.08.0
 _ZTIN4Kpgp6ConfigE@Base 4:15.08.0
 _ZTIN4Kpgp6ModuleE@Base 4:15.08.0
 _ZTSN4Kpgp12KeyRequesterE@Base 4:15.08.0
 _ZTSN4Kpgp16CipherTextDialogE@Base 4:15.08.0
 _ZTSN4Kpgp16PassphraseDialogE@Base 4:15.08.0
 _ZTSN4Kpgp17KeyApprovalDialogE@Base 4:15.08.0
 _ZTSN4Kpgp18KeySelectionDialogE@Base 4:15.08.0
 _ZTSN4Kpgp18PublicKeyRequesterE@Base 4:15.08.0
 _ZTSN4Kpgp18SecretKeyRequesterE@Base 4:15.08.0
 _ZTSN4Kpgp6ConfigE@Base 4:15.08.0
 _ZTSN4Kpgp6ModuleE@Base 4:15.08.0
 _ZTVN4Kpgp12KeyRequesterE@Base 4:15.08.0
 _ZTVN4Kpgp16CipherTextDialogE@Base 4:15.08.0
 _ZTVN4Kpgp16PassphraseDialogE@Base 4:15.08.0
 _ZTVN4Kpgp17KeyApprovalDialogE@Base 4:15.08.0
 _ZTVN4Kpgp18KeySelectionDialogE@Base 4:15.08.0
 _ZTVN4Kpgp18PublicKeyRequesterE@Base 4:15.08.0
 _ZTVN4Kpgp18SecretKeyRequesterE@Base 4:15.08.0
 _ZTVN4Kpgp6ConfigE@Base 4:15.08.0
 _ZTVN4Kpgp6ModuleE@Base 4:15.08.0
 (c++)"non-virtual thunk to Kpgp::Config::~Config()@Base" 4:15.08.0
 (c++)"non-virtual thunk to Kpgp::KeyRequester::~KeyRequester()@Base" 4:15.08.0
 (c++)"non-virtual thunk to Kpgp::KeySelectionDialog::~KeySelectionDialog()@Base" 4:15.08.0
 (c++)"non-virtual thunk to Kpgp::PassphraseDialog::~PassphraseDialog()@Base" 4:15.08.0
 (c++)"non-virtual thunk to Kpgp::PublicKeyRequester::~PublicKeyRequester()@Base" 4:15.08.0
 (c++)"non-virtual thunk to Kpgp::SecretKeyRequester::~SecretKeyRequester()@Base" 4:15.08.0
