# SymbolsHelper-Confirmed: 4:15.08.0 amd64
libkmanagesieve.so.5 libkmanagesieve5 #MINVER#
 _ZN12KManageSieve8SieveJob10deactivateERK4QUrl@Base 4:15.08.0
 _ZN12KManageSieve8SieveJob11qt_metacallEN11QMetaObject4CallEiPPv@Base 4:15.08.0
 _ZN12KManageSieve8SieveJob11qt_metacastEPKc@Base 4:15.08.0
 _ZN12KManageSieve8SieveJob12errorMessageEPS0_bRK7QString@Base 4:15.08.0
 _ZN12KManageSieve8SieveJob14setInteractiveEb@Base 4:15.08.0
 _ZN12KManageSieve8SieveJob16staticMetaObjectE@Base 4:15.08.0
 _ZN12KManageSieve8SieveJob3delERK4QUrl@Base 4:15.08.0
 _ZN12KManageSieve8SieveJob3getERK4QUrl@Base 4:15.08.0
 _ZN12KManageSieve8SieveJob3putERK4QUrlRK7QStringbb@Base 4:15.08.0
 _ZN12KManageSieve8SieveJob4itemEPS0_RK7QStringb@Base 4:15.08.0
 _ZN12KManageSieve8SieveJob4killEN4KJob13KillVerbosityE@Base 4:15.08.0
 _ZN12KManageSieve8SieveJob4listERK4QUrl@Base 4:15.08.0
 _ZN12KManageSieve8SieveJob6resultEPS0_bRK7QStringb@Base 4:15.08.0
 _ZN12KManageSieve8SieveJob7Private13m_sessionPoolE@Base 4:15.08.0
 _ZN12KManageSieve8SieveJob7Private13sessionForUrlERK4QUrl@Base 4:15.08.0
 _ZN12KManageSieve8SieveJob7Private14handleResponseERKNS_8ResponseERK10QByteArray@Base 4:15.08.0
 _ZN12KManageSieve8SieveJob7Private3runEPNS_7SessionE@Base 4:15.08.0
 _ZN12KManageSieve8SieveJob7Private6killedEv@Base 4:15.08.0
 _ZN12KManageSieve8SieveJob7gotListEPS0_bRK11QStringListRK7QString@Base 4:15.08.0
 _ZN12KManageSieve8SieveJob8activateERK4QUrl@Base 4:15.08.0
 _ZN12KManageSieve8SieveJob9gotScriptEPS0_bRK7QStringb@Base 4:15.08.0
 _ZN12KManageSieve8SieveJobC1EP7QObject@Base 4:15.08.0
 _ZN12KManageSieve8SieveJobC2EP7QObject@Base 4:15.08.0
 _ZN12KManageSieve8SieveJobD0Ev@Base 4:15.08.0
 _ZN12KManageSieve8SieveJobD1Ev@Base 4:15.08.0
 _ZN12KManageSieve8SieveJobD2Ev@Base 4:15.08.0
 _ZNK12KManageSieve8SieveJob10fileExistsEv@Base 4:15.08.0
 _ZNK12KManageSieve8SieveJob10metaObjectEv@Base 4:15.08.0
 _ZNK12KManageSieve8SieveJob17sieveCapabilitiesEv@Base 4:15.08.0
 _ZTIN12KManageSieve8SieveJobE@Base 4:15.08.0
 _ZTSN12KManageSieve8SieveJobE@Base 4:15.08.0
 _ZTVN12KManageSieve8SieveJobE@Base 4:15.08.0
