# SymbolsHelper-Confirmed: 4:15.08.0 amd64
libksieve.so.5 libksieve5 #MINVER#
 _ZN6KSieve5Error12typeToStringENS0_4TypeE@Base 4:15.08.0
 _ZN6KSieve5Lexer4Impl11parseNumberER7QString@Base 4:15.08.0
 _ZN6KSieve5Lexer4Impl12parseCommentER7QStringb@Base 4:15.08.0
 _ZN6KSieve5Lexer4Impl14parseMultiLineER7QString@Base 4:15.08.0
 _ZN6KSieve5Lexer4Impl15parseIdentifierER7QString@Base 4:15.08.0
 _ZN6KSieve5Lexer4Impl16parseHashCommentER7QStringb@Base 4:15.08.0
 _ZN6KSieve5Lexer4Impl17parseQuotedStringER7QString@Base 4:15.08.0
 _ZN6KSieve5Lexer4Impl19parseBracketCommentER7QStringb@Base 4:15.08.0
 _ZN6KSieve5Lexer4Impl20makeIllegalCharErrorEc@Base 4:15.08.0
 _ZN6KSieve5Lexer4Impl5eatWSEv@Base 4:15.08.0
 _ZN6KSieve5Lexer4Impl6eatCWSEv@Base 4:15.08.0
 _ZN6KSieve5Lexer4Impl7eatCRLFEv@Base 4:15.08.0
 _ZN6KSieve5Lexer4Impl8parseTagER7QString@Base 4:15.08.0
 _ZN6KSieve5Lexer4Impl9nextTokenER7QString@Base 4:15.08.0
 _ZN6KSieve5Lexer4ImplC1EPKcS3_i@Base 4:15.08.0
 _ZN6KSieve5Lexer4ImplC2EPKcS3_i@Base 4:15.08.0
 _ZN6KSieve5Lexer4saveEv@Base 4:15.08.0
 _ZN6KSieve5Lexer7restoreEv@Base 4:15.08.0
 _ZN6KSieve5Lexer9nextTokenER7QString@Base 4:15.08.0
 _ZN6KSieve5LexerC1EPKcS2_i@Base 4:15.08.0
 _ZN6KSieve5LexerC2EPKcS2_i@Base 4:15.08.0
 _ZN6KSieve5LexerD1Ev@Base 4:15.08.0
 _ZN6KSieve5LexerD2Ev@Base 4:15.08.0
 _ZN6KSieve6Parser16setScriptBuilderEPNS_13ScriptBuilderE@Base 4:15.08.0
 _ZN6KSieve6Parser4Impl10parseBlockEv@Base 4:15.08.0
 _ZN6KSieve6Parser4Impl11obtainTokenEv@Base 4:15.08.0
 _ZN6KSieve6Parser4Impl11parseNumberEv@Base 4:15.08.0
 _ZN6KSieve6Parser4Impl12parseCommandEv@Base 4:15.08.0
 _ZN6KSieve6Parser4Impl13parseArgumentEv@Base 4:15.08.0
 _ZN6KSieve6Parser4Impl13parseTestListEv@Base 4:15.08.0
 _ZN6KSieve6Parser4Impl15parseStringListEv@Base 4:15.08.0
 _ZN6KSieve6Parser4Impl16parseCommandListEv@Base 4:15.08.0
 _ZN6KSieve6Parser4Impl17parseArgumentListEv@Base 4:15.08.0
 _ZN6KSieve6Parser4Impl5parseEv@Base 4:15.08.0
 _ZN6KSieve6Parser4Impl9parseTestEv@Base 4:15.08.0
 _ZN6KSieve6Parser4ImplC1EPKcS3_i@Base 4:15.08.0
 _ZN6KSieve6Parser4ImplC2EPKcS3_i@Base 4:15.08.0
 _ZN6KSieve6Parser5parseEv@Base 4:15.08.0
 _ZN6KSieve6ParserC1EPKcS2_i@Base 4:15.08.0
 _ZN6KSieve6ParserC2EPKcS2_i@Base 4:15.08.0
 _ZN6KSieve6ParserD1Ev@Base 4:15.08.0
 _ZN6KSieve6ParserD2Ev@Base 4:15.08.0
 _ZNK6KSieve5Error8asStringEv@Base 4:15.08.0
 _ZNK6KSieve5Lexer14ignoreCommentsEv@Base 4:15.08.0
 _ZNK6KSieve5Lexer4lineEv@Base 4:15.08.0
 _ZNK6KSieve5Lexer5atEndEv@Base 4:15.08.0
 _ZNK6KSieve5Lexer5errorEv@Base 4:15.08.0
 _ZNK6KSieve5Lexer6columnEv@Base 4:15.08.0
 _ZNK6KSieve6Parser13scriptBuilderEv@Base 4:15.08.0
 _ZNK6KSieve6Parser4Impl13isStringTokenEv@Base 4:15.08.0
 _ZNK6KSieve6Parser4Impl15isArgumentTokenEv@Base 4:15.08.0
 _ZNK6KSieve6Parser5errorEv@Base 4:15.08.0
