# SymbolsHelper-Confirmed: 4:15.08.1 amd64 i386
libmessagelist.so.5 libmessagelist5 #MINVER#
 _ZN11MessageList12StorageModel11qt_metacallEN11QMetaObject4CallEiPPv@Base 4:15.08.0
 _ZN11MessageList12StorageModel11qt_metacastEPKc@Base 4:15.08.0
 _ZN11MessageList12StorageModel14prepareForScanEv@Base 4:15.08.0
 _ZN11MessageList12StorageModel16staticMetaObjectE@Base 4:15.08.0
 _ZN11MessageList12StorageModel17resetModelStorageEv@Base 4:15.08.0
 _ZN11MessageList12StorageModel20setMessageItemStatusEPNS_4Core11MessageItemEiRKN7Akonadi13MessageStatusE@Base 4:15.08.0
 _ZN11MessageList12StorageModel7Private12loadSettingsEv@Base 4:15.08.0
 _ZN11MessageList12StorageModel7Private18onSelectionChangedEv@Base 4:15.08.0
 _ZN11MessageList12StorageModel7Private19onSourceDataChangedERK11QModelIndexS4_@Base 4:15.08.0
 _ZN11MessageList12StorageModelC1EP18QAbstractItemModelP19QItemSelectionModelP7QObject@Base 4:15.08.0
 _ZN11MessageList12StorageModelC2EP18QAbstractItemModelP19QItemSelectionModelP7QObject@Base 4:15.08.0
 _ZN11MessageList12StorageModelD0Ev@Base 4:15.08.0
 _ZN11MessageList12StorageModelD1Ev@Base 4:15.08.0
 _ZN11MessageList12StorageModelD2Ev@Base 4:15.08.0
 _ZN11MessageList4Core11MessageItem13subTreeToListER5QListIPS1_E@Base 4:15.08.0
 _ZN11MessageList4Core11MessageItem14accessibleTextEPKNS0_5ThemeEi@Base 4:15.08.0
 _ZN11MessageList4Core11MessageItem14editAnnotationEv@Base 4:15.08.0
 _ZN11MessageList4Core11MessageItem14setAkonadiItemERKN7Akonadi4ItemE@Base 4:15.08.0
 _ZN11MessageList4Core11MessageItem14setGeneralFontERK5QFont@Base 4:15.08.0
 _ZN11MessageList4Core11MessageItem14topmostMessageEv@Base 4:15.08.0
 _ZN11MessageList4Core11MessageItem15setMessageIdMD5ERK10QByteArray@Base 4:15.08.0
 _ZN11MessageList4Core11MessageItem17setInReplyToIdMD5ERK10QByteArray@Base 4:15.08.0
 _ZN11MessageList4Core11MessageItem17setSignatureStateENS1_14SignatureStateE@Base 4:15.08.0
 _ZN11MessageList4Core11MessageItem18invalidateTagCacheEv@Base 4:15.08.0
 _ZN11MessageList4Core11MessageItem18setEncryptionStateENS1_15EncryptionStateE@Base 4:15.08.0
 _ZN11MessageList4Core11MessageItem18setReferencesIdMD5ERK10QByteArray@Base 4:15.08.0
 _ZN11MessageList4Core11MessageItem18setThreadingStatusENS1_15ThreadingStatusE@Base 4:15.08.0
 _ZN11MessageList4Core11MessageItem18setToDoMessageFontERK5QFont@Base 4:15.08.0
 _ZN11MessageList4Core11MessageItem19setAboutToBeRemovedEb@Base 4:15.08.0
 _ZN11MessageList4Core11MessageItem19setToDoMessageColorERK6QColor@Base 4:15.08.0
 _ZN11MessageList4Core11MessageItem20setSubjectIsPrefixedEb@Base 4:15.08.0
 _ZN11MessageList4Core11MessageItem20setUnreadMessageFontERK5QFont@Base 4:15.08.0
 _ZN11MessageList4Core11MessageItem21setStrippedSubjectMD5ERK10QByteArray@Base 4:15.08.0
 _ZN11MessageList4Core11MessageItem21setUnreadMessageColorERK6QColor@Base 4:15.08.0
 _ZN11MessageList4Core11MessageItem22accessibleTextForFieldENS0_5Theme11ContentItem4TypeE@Base 4:15.08.0
 _ZN11MessageList4Core11MessageItem23setImportantMessageFontERK5QFont@Base 4:15.08.0
 _ZN11MessageList4Core11MessageItem24setImportantMessageColorERK6QColor@Base 4:15.08.0
 _ZN11MessageList4Core11MessageItem25invalidateAnnotationCacheEv@Base 4:15.08.0
 _ZN11MessageList4Core11MessageItem3Tag11setPriorityEi@Base 4:15.08.0
 _ZN11MessageList4Core11MessageItem3Tag12setTextColorERK6QColor@Base 4:15.08.0
 _ZN11MessageList4Core11MessageItem3Tag18setBackgroundColorERK6QColor@Base 4:15.08.0
 _ZN11MessageList4Core11MessageItem3Tag7setFontERK5QFont@Base 4:15.08.0
 _ZN11MessageList4Core11MessageItem3TagC1ERK7QPixmapRK7QStringS8_@Base 4:15.08.0
 _ZN11MessageList4Core11MessageItem3TagC2ERK7QPixmapRK7QStringS8_@Base 4:15.08.0
 _ZN11MessageList4Core11MessageItem3TagD1Ev@Base 4:15.08.0
 _ZN11MessageList4Core11MessageItem3TagD2Ev@Base 4:15.08.0
 _ZN11MessageList4Core11MessageItemC1EPNS0_18MessageItemPrivateE@Base 4:15.08.0
 _ZN11MessageList4Core11MessageItemC1Ev@Base 4:15.08.0
 _ZN11MessageList4Core11MessageItemC2EPNS0_18MessageItemPrivateE@Base 4:15.08.0
 _ZN11MessageList4Core11MessageItemC2Ev@Base 4:15.08.0
 _ZN11MessageList4Core11MessageItemD0Ev@Base 4:15.08.0
 _ZN11MessageList4Core11MessageItemD1Ev@Base 4:15.08.0
 _ZN11MessageList4Core11MessageItemD2Ev@Base 4:15.08.0
 _ZN11MessageList4Core12StorageModel11qt_metacallEN11QMetaObject4CallEiPPv@Base 4:15.08.0
 _ZN11MessageList4Core12StorageModel11qt_metacastEPKc@Base 4:15.08.0
 _ZN11MessageList4Core12StorageModel16staticMetaObjectE@Base 4:15.08.0
 _ZN11MessageList4Core12StorageModel22savePreSelectedMessageEm@Base 4:15.08.0
 _ZN11MessageList4Core12StorageModelC1EP7QObject@Base 4:15.08.0
 _ZN11MessageList4Core12StorageModelC2EP7QObject@Base 4:15.08.0
 _ZN11MessageList4Core12StorageModelD0Ev@Base 4:15.08.0
 _ZN11MessageList4Core12StorageModelD1Ev@Base 4:15.08.0
 _ZN11MessageList4Core12StorageModelD2Ev@Base 4:15.08.0
 _ZN11MessageList4Core15QuickSearchLine11eventFilterEP7QObjectP6QEvent@Base 4:15.08.0
 _ZN11MessageList4Core15QuickSearchLine11qt_metacallEN11QMetaObject4CallEiPPv@Base 4:15.08.0
 _ZN11MessageList4Core15QuickSearchLine11qt_metacastEPKc@Base 4:15.08.0
 _ZN11MessageList4Core15QuickSearchLine11resetFilterEv@Base 4:15.08.0
 _ZN11MessageList4Core15QuickSearchLine12slotSearchByEv@Base 4:15.08.0
 _ZN11MessageList4Core15QuickSearchLine16focusQuickSearchERK7QString@Base 4:15.08.0
 _ZN11MessageList4Core15QuickSearchLine16staticMetaObjectE@Base 4:15.08.0
 _ZN11MessageList4Core15QuickSearchLine18clearButtonClickedEv@Base 4:15.08.0
 _ZN11MessageList4Core15QuickSearchLine19searchOptionChangedEv@Base 4:15.08.0
 _ZN11MessageList4Core15QuickSearchLine20searchEditTextEditedERK7QString@Base 4:15.08.0
 _ZN11MessageList4Core15QuickSearchLine20statusButtonsClickedEv@Base 4:15.08.0
 _ZN11MessageList4Core15QuickSearchLine21slotLockSearchClickedEb@Base 4:15.08.0
 _ZN11MessageList4Core15QuickSearchLine21slotMoreOptionClickedEb@Base 4:15.08.0
 _ZN11MessageList4Core15QuickSearchLine22slotClearButtonClickedEv@Base 4:15.08.0
 _ZN11MessageList4Core15QuickSearchLine23createQuickSearchButtonERK5QIconRK7QStringiP7QLayout@Base 4:15.08.0
 _ZN11MessageList4Core15QuickSearchLine23slotSearchOptionChangedEv@Base 4:15.08.0
 _ZN11MessageList4Core15QuickSearchLine24slotSearchEditTextEditedERK7QString@Base 4:15.08.0
 _ZN11MessageList4Core15QuickSearchLine24updateComboboxVisibilityEv@Base 4:15.08.0
 _ZN11MessageList4Core15QuickSearchLine27changeQuicksearchVisibilityEb@Base 4:15.08.0
 _ZN11MessageList4Core15QuickSearchLine27setContainsOutboundMessagesEb@Base 4:15.08.0
 _ZN11MessageList4Core15QuickSearchLine28initializeStatusSearchButtonEP7QLayout@Base 4:15.08.0
 _ZN11MessageList4Core15QuickSearchLine31changeSearchAgainstFromOrToTextEv@Base 4:15.08.0
 _ZN11MessageList4Core15QuickSearchLineC1EP7QWidget@Base 4:15.08.0
 _ZN11MessageList4Core15QuickSearchLineC2EP7QWidget@Base 4:15.08.0
 _ZN11MessageList4Core15QuickSearchLineD0Ev@Base 4:15.08.0
 _ZN11MessageList4Core15QuickSearchLineD1Ev@Base 4:15.08.0
 _ZN11MessageList4Core15QuickSearchLineD2Ev@Base 4:15.08.0
 _ZN11MessageList4Core18QuickSearchWarning11qt_metacallEN11QMetaObject4CallEiPPv@Base 4:15.08.0
 _ZN11MessageList4Core18QuickSearchWarning11qt_metacastEPKc@Base 4:15.08.0
 _ZN11MessageList4Core18QuickSearchWarning13setSearchTextERK7QString@Base 4:15.08.0
 _ZN11MessageList4Core18QuickSearchWarning16staticMetaObjectE@Base 4:15.08.0
 _ZN11MessageList4Core18QuickSearchWarningC1EP7QWidget@Base 4:15.08.0
 _ZN11MessageList4Core18QuickSearchWarningC2EP7QWidget@Base 4:15.08.0
 _ZN11MessageList4Core18QuickSearchWarningD0Ev@Base 4:15.08.0
 _ZN11MessageList4Core18QuickSearchWarningD1Ev@Base 4:15.08.0
 _ZN11MessageList4Core18QuickSearchWarningD2Ev@Base 4:15.08.0
 _ZN11MessageList4Core19ModelInvariantIndex20currentModelIndexRowEv@Base 4:15.08.0
 _ZN11MessageList4Core19ModelInvariantIndexC1Ev@Base 4:15.08.0
 _ZN11MessageList4Core19ModelInvariantIndexC2Ev@Base 4:15.08.0
 _ZN11MessageList4Core19ModelInvariantIndexD0Ev@Base 4:15.08.0
 _ZN11MessageList4Core19ModelInvariantIndexD1Ev@Base 4:15.08.0
 _ZN11MessageList4Core19ModelInvariantIndexD2Ev@Base 4:15.08.0
 _ZN11MessageList4Core23ModelInvariantRowMapper10modelResetEv@Base 4:15.08.0
 _ZN11MessageList4Core23ModelInvariantRowMapper11qt_metacallEN11QMetaObject4CallEiPPv@Base 4:15.08.0
 _ZN11MessageList4Core23ModelInvariantRowMapper11qt_metacastEPKc@Base 4:15.08.0
 _ZN11MessageList4Core23ModelInvariantRowMapper16modelRowsRemovedEii@Base 4:15.08.0
 _ZN11MessageList4Core23ModelInvariantRowMapper16staticMetaObjectE@Base 4:15.08.0
 _ZN11MessageList4Core23ModelInvariantRowMapper17modelRowsInsertedEii@Base 4:15.08.0
 _ZN11MessageList4Core23ModelInvariantRowMapper25createModelInvariantIndexEiPNS0_19ModelInvariantIndexE@Base 4:15.08.0
 _ZN11MessageList4Core23ModelInvariantRowMapper25setLazyUpdateIdleIntervalEi@Base 4:15.08.0
 _ZN11MessageList4Core23ModelInvariantRowMapper26setLazyUpdateChunkIntervalEi@Base 4:15.08.0
 _ZN11MessageList4Core23ModelInvariantRowMapper34modelIndexRowToModelInvariantIndexEi@Base 4:15.08.0
 _ZN11MessageList4Core23ModelInvariantRowMapper34modelInvariantIndexToModelIndexRowEPNS0_19ModelInvariantIndexE@Base 4:15.08.0
 _ZN11MessageList4Core23ModelInvariantRowMapper43modelIndexRowRangeToModelInvariantIndexListEii@Base 4:15.08.0
 _ZN11MessageList4Core23ModelInvariantRowMapperC1Ev@Base 4:15.08.0
 _ZN11MessageList4Core23ModelInvariantRowMapperC2Ev@Base 4:15.08.0
 _ZN11MessageList4Core23ModelInvariantRowMapperD0Ev@Base 4:15.08.0
 _ZN11MessageList4Core23ModelInvariantRowMapperD1Ev@Base 4:15.08.0
 _ZN11MessageList4Core23ModelInvariantRowMapperD2Ev@Base 4:15.08.0
 _ZN11MessageList4Core4Item10setMaxDateEl@Base 4:15.08.0
 _ZN11MessageList4Core4Item10setSubjectERK7QString@Base 4:15.08.0
 _ZN11MessageList4Core4Item11deepestItemEv@Base 4:15.08.0
 _ZN11MessageList4Core4Item11setReceiverERK7QString@Base 4:15.08.0
 _ZN11MessageList4Core4Item11setViewableEPNS0_5ModelEb@Base 4:15.08.0
 (subst)_ZN11MessageList4Core4Item12initialSetupEl{size_t}RK7QStringS4_b@Base 4:15.08.0
 _ZN11MessageList4Core4Item13setIndexGuessEi@Base 4:15.08.0
 _ZN11MessageList4Core4Item13takeChildItemEPNS0_5ModelEPS1_@Base 4:15.08.0
 _ZN11MessageList4Core4Item14itemAboveChildEPS1_@Base 4:15.08.0
 _ZN11MessageList4Core4Item14itemBelowChildEPS1_@Base 4:15.08.0
 _ZN11MessageList4Core4Item14topmostNonRootEv@Base 4:15.08.0
 _ZN11MessageList4Core4Item15appendChildItemEPNS0_5ModelEPS1_@Base 4:15.08.0
 _ZN11MessageList4Core4Item16recomputeMaxDateEv@Base 4:15.08.0
 _ZN11MessageList4Core4Item17killAllChildItemsEv@Base 4:15.08.0
 _ZN11MessageList4Core4Item18rawAppendChildItemEPS1_@Base 4:15.08.0
 _ZN11MessageList4Core4Item19setSubjectAndStatusERK7QStringRKN7Akonadi13MessageStatusE@Base 4:15.08.0
 _ZN11MessageList4Core4Item21setParentCollectionIdEx@Base 4:15.08.0
 _ZN11MessageList4Core4Item22setInitialExpandStatusENS1_19InitialExpandStatusE@Base 4:15.08.0
 _ZN11MessageList4Core4Item4dumpERK7QString@Base 4:15.08.0
 _ZN11MessageList4Core4Item7setDateEl@Base 4:15.08.0
 (subst)_ZN11MessageList4Core4Item7setSizeE{size_t}@Base 4:15.08.0
 _ZN11MessageList4Core4Item9itemAboveEv@Base 4:15.08.0
 _ZN11MessageList4Core4Item9itemBelowEv@Base 4:15.08.0
 _ZN11MessageList4Core4Item9setItemIdEx@Base 4:15.08.0
 _ZN11MessageList4Core4Item9setParentEPS1_@Base 4:15.08.0
 _ZN11MessageList4Core4Item9setSenderERK7QString@Base 4:15.08.0
 _ZN11MessageList4Core4Item9setStatusERKN7Akonadi13MessageStatusE@Base 4:15.08.0
 _ZN11MessageList4Core4ItemC1ENS1_4TypeE@Base 4:15.08.0
 _ZN11MessageList4Core4ItemC1ENS1_4TypeEPNS0_11ItemPrivateE@Base 4:15.08.0
 _ZN11MessageList4Core4ItemC2ENS1_4TypeE@Base 4:15.08.0
 _ZN11MessageList4Core4ItemC2ENS1_4TypeEPNS0_11ItemPrivateE@Base 4:15.08.0
 _ZN11MessageList4Core4ItemD0Ev@Base 4:15.08.0
 _ZN11MessageList4Core4ItemD1Ev@Base 4:15.08.0
 _ZN11MessageList4Core4ItemD2Ev@Base 4:15.08.0
 _ZN11MessageList4Core4View11changeEventEP6QEvent@Base 4:15.08.0
 _ZN11MessageList4Core4View11qt_metacallEN11QMetaObject4CallEiPPv@Base 4:15.08.0
 _ZN11MessageList4Core4View11qt_metacastEPKc@Base 4:15.08.0
 _ZN11MessageList4Core4View11resizeEventEP12QResizeEvent@Base 4:15.08.0
 _ZN11MessageList4Core4View12setRowHiddenEiRK11QModelIndexb@Base 4:15.08.0
 _ZN11MessageList4Core4View12setSortOrderEPKNS0_9SortOrderE@Base 4:15.08.0
 _ZN11MessageList4Core4View13dragMoveEventEP14QDragMoveEvent@Base 4:15.08.0
 _ZN11MessageList4Core4View13setExpandItemERK11QModelIndex@Base 4:15.08.0
 _ZN11MessageList4Core4View14dragEnterEventEP15QDragEnterEvent@Base 4:15.08.0
 _ZN11MessageList4Core4View14mouseMoveEventEP11QMouseEvent@Base 4:15.08.0
 _ZN11MessageList4Core4View14setAggregationEPKNS0_11AggregationE@Base 4:15.08.0
 _ZN11MessageList4Core4View15mousePressEventEP11QMouseEvent@Base 4:15.08.0
 _ZN11MessageList4Core4View15nextMessageItemENS0_17MessageTypeFilterEb@Base 4:15.08.0
 _ZN11MessageList4Core4View15setCollapseItemERK11QModelIndex@Base 4:15.08.0
 _ZN11MessageList4Core4View15setStorageModelEPNS0_12StorageModelENS0_16PreSelectionModeE@Base 4:15.08.0
 _ZN11MessageList4Core4View16focusQuickSearchERK7QString@Base 4:15.08.0
 _ZN11MessageList4Core4View16messageItemAfterEPNS0_4ItemENS0_17MessageTypeFilterEb@Base 4:15.08.0
 _ZN11MessageList4Core4View16staticMetaObjectE@Base 4:15.08.0
 _ZN11MessageList4Core4View16updateGeometriesEv@Base 4:15.08.0
 _ZN11MessageList4Core4View17applyThemeColumnsEv@Base 4:15.08.0
 _ZN11MessageList4Core4View17messageItemBeforeEPNS0_4ItemENS0_17MessageTypeFilterEb@Base 4:15.08.0
 _ZN11MessageList4Core4View17modelHasBeenResetEv@Base 4:15.08.0
 _ZN11MessageList4Core4View18selectMessageItemsERK5QListIPNS0_11MessageItemEE@Base 4:15.08.0
 _ZN11MessageList4Core4View18slotShowHideColumnEi@Base 4:15.08.0
 _ZN11MessageList4Core4View19changeMessageStatusEPNS0_11MessageItemERKN7Akonadi13MessageStatusES7_@Base 4:15.08.0
 _ZN11MessageList4Core4View19createPersistentSetERK5QListIPNS0_11MessageItemEE@Base 4:15.08.0
 _ZN11MessageList4Core4View19deletePersistentSetEl@Base 4:15.08.0
 _ZN11MessageList4Core4View19previousMessageItemENS0_17MessageTypeFilterEb@Base 4:15.08.0
 _ZN11MessageList4Core4View19setChildrenExpandedEPKNS0_4ItemEb@Base 4:15.08.0
 _ZN11MessageList4Core4View19slotDisplayTooltipsEb@Base 4:15.08.0
 _ZN11MessageList4Core4View19slotExpandAllGroupsEv@Base 4:15.08.0
 _ZN11MessageList4Core4View20focusNextMessageItemENS0_17MessageTypeFilterEbb@Base 4:15.08.0
 _ZN11MessageList4Core4View20ignoreCurrentChangesEb@Base 4:15.08.0
 _ZN11MessageList4Core4View20modelFinishedLoadingEv@Base 4:15.08.0
 _ZN11MessageList4Core4View20modelJobBatchStartedEv@Base 4:15.08.0
 _ZN11MessageList4Core4View20saveThemeColumnStateEv@Base 4:15.08.0
 _ZN11MessageList4Core4View20setAllGroupsExpandedEb@Base 4:15.08.0
 _ZN11MessageList4Core4View20slotSelectionChangedERK14QItemSelectionS4_@Base 4:15.08.0
 _ZN11MessageList4Core4View20themeMenuAboutToShowEP5QMenu@Base 4:15.08.0
 _ZN11MessageList4Core4View21mouseDoubleClickEventEP11QMouseEvent@Base 4:15.08.0
 _ZN11MessageList4Core4View21selectLastMessageItemENS0_17MessageTypeFilterEb@Base 4:15.08.0
 _ZN11MessageList4Core4View21selectNextMessageItemENS0_17MessageTypeFilterENS0_26ExistingSelectionBehaviourEbb@Base 4:15.08.0
 _ZN11MessageList4Core4View21setAllThreadsExpandedEb@Base 4:15.08.0
 _ZN11MessageList4Core4View21setCurrentMessageItemEPNS0_11MessageItemEb@Base 4:15.08.0
 _ZN11MessageList4Core4View21slotAdjustColumnSizesEv@Base 4:15.08.0
 _ZN11MessageList4Core4View21slotCollapseAllGroupsEv@Base 4:15.08.0
 _ZN11MessageList4Core4View21slotExpandCurrentItemEv@Base 4:15.08.0
 _ZN11MessageList4Core4View22ignoreUpdateGeometriesEb@Base 4:15.08.0
 _ZN11MessageList4Core4View22selectFirstMessageItemENS0_17MessageTypeFilterEb@Base 4:15.08.0
 _ZN11MessageList4Core4View22slotShowDefaultColumnsEv@Base 4:15.08.0
 _ZN11MessageList4Core4View23changeMessageStatusReadEPNS0_11MessageItemEb@Base 4:15.08.0
 _ZN11MessageList4Core4View23modelJobBatchTerminatedEv@Base 4:15.08.0
 _ZN11MessageList4Core4View23slotCollapseCurrentItemEv@Base 4:15.08.0
 _ZN11MessageList4Core4View24focusPreviousMessageItemENS0_17MessageTypeFilterEbb@Base 4:15.08.0
 _ZN11MessageList4Core4View24selectFocusedMessageItemEb@Base 4:15.08.0
 _ZN11MessageList4Core4View24setCurrentThreadExpandedEb@Base 4:15.08.0
 _ZN11MessageList4Core4View24slotHeaderSectionResizedEiii@Base 4:15.08.0
 _ZN11MessageList4Core4View24sortOrderMenuAboutToShowEP5QMenu@Base 4:15.08.0
 _ZN11MessageList4Core4View25modelEmittedLayoutChangedEv@Base 4:15.08.0
 _ZN11MessageList4Core4View25selectPreviousMessageItemENS0_17MessageTypeFilterENS0_26ExistingSelectionBehaviourEbb@Base 4:15.08.0
 _ZN11MessageList4Core4View26aggregationMenuAboutToShowEP5QMenu@Base 4:15.08.0
 _ZN11MessageList4Core4View26setQuickSearchClickMessageERK7QString@Base 4:15.08.0
 _ZN11MessageList4Core4View29growOrShrinkExistingSelectionERK11QModelIndexb@Base 4:15.08.0
 _ZN11MessageList4Core4View29modelAboutToEmitLayoutChangedEv@Base 4:15.08.0
 _ZN11MessageList4Core4View30slotHeaderContextMenuRequestedERK6QPoint@Base 4:15.08.0
 _ZN11MessageList4Core4View31triggerDelayedApplyThemeColumnsEv@Base 4:15.08.0
 _ZN11MessageList4Core4View34ensureDisplayedWithParentsExpandedEPNS0_4ItemE@Base 4:15.08.0
 _ZN11MessageList4Core4View34markMessageItemsAsAboutToBeRemovedER5QListIPNS0_11MessageItemEEb@Base 4:15.08.0
 _ZN11MessageList4Core4View34triggerDelayedSaveThemeColumnStateEv@Base 4:15.08.0
 _ZN11MessageList4Core4View35persistentSetCurrentMessageItemListEl@Base 4:15.08.0
 _ZN11MessageList4Core4View5eventEP6QEvent@Base 4:15.08.0
 _ZN11MessageList4Core4View6reloadEv@Base 4:15.08.0
 _ZN11MessageList4Core4View7Private16expandFullThreadERK11QModelIndex@Base 4:15.08.0
 _ZN11MessageList4Core4View8setThemeEPNS0_5ThemeE@Base 4:15.08.0
 _ZN11MessageList4Core4View9dropEventEP10QDropEvent@Base 4:15.08.0
 _ZN11MessageList4Core4View9showEventEP10QShowEvent@Base 4:15.08.0
 _ZN11MessageList4Core4ViewC1EPNS0_6WidgetE@Base 4:15.08.0
 _ZN11MessageList4Core4ViewC2EPNS0_6WidgetE@Base 4:15.08.0
 _ZN11MessageList4Core4ViewD0Ev@Base 4:15.08.0
 _ZN11MessageList4Core4ViewD1Ev@Base 4:15.08.0
 _ZN11MessageList4Core4ViewD2Ev@Base 4:15.08.0
 _ZN11MessageList4Core5Model11qt_metacallEN11QMetaObject4CallEiPPv@Base 4:15.08.0
 _ZN11MessageList4Core5Model11qt_metacastEPKc@Base 4:15.08.0
 _ZN11MessageList4Core5Model12setSortOrderEPKNS0_9SortOrderE@Base 4:15.08.0
 _ZN11MessageList4Core5Model13statusMessageERK7QString@Base 4:15.08.0
 _ZN11MessageList4Core5Model14setAggregationEPKNS0_11AggregationE@Base 4:15.08.0
 _ZN11MessageList4Core5Model15setStorageModelEPNS0_12StorageModelENS0_16PreSelectionModeE@Base 4:15.08.0
 _ZN11MessageList4Core5Model16staticMetaObjectE@Base 4:15.08.0
 _ZN11MessageList4Core5Model19createPersistentSetERK5QListIPNS0_11MessageItemEE@Base 4:15.08.0
 _ZN11MessageList4Core5Model19deletePersistentSetEl@Base 4:15.08.0
 _ZN11MessageList4Core5Model19setPreSelectionModeENS0_16PreSelectionModeE@Base 4:15.08.0
 _ZN11MessageList4Core5Model35persistentSetCurrentMessageItemListEl@Base 4:15.08.0
 _ZN11MessageList4Core5Model8setThemeEPKNS0_5ThemeE@Base 4:15.08.0
 _ZN11MessageList4Core5Model9setFilterEPKNS0_6FilterE@Base 4:15.08.0
 _ZN11MessageList4Core5ModelC1EPNS0_4ViewE@Base 4:15.08.0
 _ZN11MessageList4Core5ModelC2EPNS0_4ViewE@Base 4:15.08.0
 _ZN11MessageList4Core5ModelD0Ev@Base 4:15.08.0
 _ZN11MessageList4Core5ModelD1Ev@Base 4:15.08.0
 _ZN11MessageList4Core5ModelD2Ev@Base 4:15.08.0
 _ZN11MessageList4Core6Widget11qt_metacallEN11QMetaObject4CallEiPPv@Base 4:15.08.0
 _ZN11MessageList4Core6Widget11qt_metacastEPKc@Base 4:15.08.0
 _ZN11MessageList4Core6Widget11resetFilterEv@Base 4:15.08.0
 _ZN11MessageList4Core6Widget13statusMessageERK7QString@Base 4:15.08.0
 _ZN11MessageList4Core6Widget13tagIdSelectedERK8QVariant@Base 4:15.08.0
 _ZN11MessageList4Core6Widget13themeSelectedEb@Base 4:15.08.0
 _ZN11MessageList4Core6Widget13themesChangedEv@Base 4:15.08.0
 _ZN11MessageList4Core6Widget13viewDropEventEP10QDropEvent@Base 4:15.08.0
 _ZN11MessageList4Core6Widget14statusSelectedEi@Base 4:15.08.0
 _ZN11MessageList4Core6Widget15configureThemesEv@Base 4:15.08.0
 _ZN11MessageList4Core6Widget15setStorageModelEPNS0_12StorageModelENS0_16PreSelectionModeE@Base 4:15.08.0
 _ZN11MessageList4Core6Widget16focusQuickSearchERK7QString@Base 4:15.08.0
 _ZN11MessageList4Core6Widget16searchTimerFiredEv@Base 4:15.08.0
 _ZN11MessageList4Core6Widget16setCurrentFolderERKN7Akonadi10CollectionE@Base 4:15.08.0
 _ZN11MessageList4Core6Widget16staticMetaObjectE@Base 4:15.08.0
 _ZN11MessageList4Core6Widget17addMessageTagItemERK7QPixmapRK7QStringRK8QVariant@Base 4:15.08.0
 _ZN11MessageList4Core6Widget17viewDragMoveEventEP14QDragMoveEvent@Base 4:15.08.0
 _ZN11MessageList4Core6Widget18viewDragEnterEventEP15QDragEnterEvent@Base 4:15.08.0
 _ZN11MessageList4Core6Widget19aggregationSelectedEb@Base 4:15.08.0
 _ZN11MessageList4Core6Widget19aggregationsChangedEv@Base 4:15.08.0
 _ZN11MessageList4Core6Widget19fillMessageTagComboEv@Base 4:15.08.0
 _ZN11MessageList4Core6Widget19viewJobBatchStartedEv@Base 4:15.08.0
 _ZN11MessageList4Core6Widget19viewMessageSelectedEPNS0_11MessageItemE@Base 4:15.08.0
 _ZN11MessageList4Core6Widget20groupSortingSelectedEP7QAction@Base 4:15.08.0
 _ZN11MessageList4Core6Widget20saveCurrentSelectionEv@Base 4:15.08.0
 _ZN11MessageList4Core6Widget20searchEditTextEditedEv@Base 4:15.08.0
 _ZN11MessageList4Core6Widget20themeMenuAboutToShowEP5QMenu@Base 4:15.08.0
 _ZN11MessageList4Core6Widget20themeMenuAboutToShowEv@Base 4:15.08.0
 _ZN11MessageList4Core6Widget20viewMessageActivatedEPNS0_11MessageItemE@Base 4:15.08.0
 _ZN11MessageList4Core6Widget20viewSelectionChangedEv@Base 4:15.08.0
 _ZN11MessageList4Core6Widget20viewStartDragRequestEv@Base 4:15.08.0
 _ZN11MessageList4Core6Widget22messageSortingSelectedEP7QAction@Base 4:15.08.0
 _ZN11MessageList4Core6Widget22viewJobBatchTerminatedEv@Base 4:15.08.0
 _ZN11MessageList4Core6Widget24slotStatusButtonsClickedEv@Base 4:15.08.0
 _ZN11MessageList4Core6Widget24sortOrderMenuAboutToShowEP5QMenu@Base 4:15.08.0
 _ZN11MessageList4Core6Widget24sortOrderMenuAboutToShowEv@Base 4:15.08.0
 _ZN11MessageList4Core6Widget25populateStatusFilterComboEv@Base 4:15.08.0
 _ZN11MessageList4Core6Widget26aggregationMenuAboutToShowEP5QMenu@Base 4:15.08.0
 _ZN11MessageList4Core6Widget26aggregationMenuAboutToShowEv@Base 4:15.08.0
 _ZN11MessageList4Core6Widget26groupSortDirectionSelectedEP7QAction@Base 4:15.08.0
 _ZN11MessageList4Core6Widget26setCurrentStatusFilterItemEv@Base 4:15.08.0
 _ZN11MessageList4Core6Widget27changeQuicksearchVisibilityEb@Base 4:15.08.0
 _ZN11MessageList4Core6Widget28messageSortDirectionSelectedEP7QAction@Base 4:15.08.0
 _ZN11MessageList4Core6Widget28searchEditClearButtonClickedEv@Base 4:15.08.0
 _ZN11MessageList4Core6Widget28slotViewHeaderSectionClickedEi@Base 4:15.08.0
 _ZN11MessageList4Core6Widget29setPrivateSortOrderForStorageEv@Base 4:15.08.0
 _ZN11MessageList4Core6Widget30viewMessageStatusChangeRequestEPNS0_11MessageItemERKN7Akonadi13MessageStatusES7_@Base 4:15.08.0
 _ZN11MessageList4Core6Widget34viewGroupHeaderContextPopupRequestEPNS0_15GroupHeaderItemERK6QPoint@Base 4:15.08.0
 _ZN11MessageList4Core6Widget34viewMessageListContextPopupRequestERK5QListIPNS0_11MessageItemEERK6QPoint@Base 4:15.08.0
 _ZN11MessageList4Core6Widget7Private14checkSortOrderEPKNS0_12StorageModelE@Base 4:15.08.0
 _ZN11MessageList4Core6Widget7Private20switchMessageSortingENS0_9SortOrder14MessageSortingENS3_13SortDirectionEi@Base 4:15.08.0
 _ZN11MessageList4Core6Widget7Private30setDefaultThemeForStorageModelEPKNS0_12StorageModelE@Base 4:15.08.0
 _ZN11MessageList4Core6Widget7Private34setDefaultSortOrderForStorageModelEPKNS0_12StorageModelE@Base 4:15.08.0
 _ZN11MessageList4Core6Widget7Private36setDefaultAggregationForStorageModelEPKNS0_12StorageModelE@Base 4:15.08.0
 _ZN11MessageList4Core6WidgetC1EP7QWidget@Base 4:15.08.0
 _ZN11MessageList4Core6WidgetC2EP7QWidget@Base 4:15.08.0
 _ZN11MessageList4Core6WidgetD0Ev@Base 4:15.08.0
 _ZN11MessageList4Core6WidgetD1Ev@Base 4:15.08.0
 _ZN11MessageList4Core6WidgetD2Ev@Base 4:15.08.0
 _ZN11MessageList4Core8FakeItem11setFakeTagsERK5QListIPNS0_11MessageItem3TagEE@Base 4:15.08.0
 _ZN11MessageList4Core8FakeItemC1Ev@Base 4:15.08.0
 _ZN11MessageList4Core8FakeItemC2Ev@Base 4:15.08.0
 _ZN11MessageList4Core8FakeItemD0Ev@Base 4:15.08.0
 _ZN11MessageList4Core8FakeItemD1Ev@Base 4:15.08.0
 _ZN11MessageList4Core8FakeItemD2Ev@Base 4:15.08.0
 _ZN11MessageList4Core8Settings11tagSelectedEv@Base 4:15.08.0
 _ZN11MessageList4Core8Settings14setTagSelectedERK7QString@Base 4:15.08.0
 _ZN11MessageList4Core8Settings15messageListFontEv@Base 4:15.08.0
 _ZN11MessageList4Core8Settings15showQuickSearchEv@Base 4:15.08.0
 _ZN11MessageList4Core8Settings15tagSelectedItemEv@Base 4:15.08.0
 _ZN11MessageList4Core8Settings15todoMessageFontEv@Base 4:15.08.0
 _ZN11MessageList4Core8Settings16todoMessageColorEv@Base 4:15.08.0
 _ZN11MessageList4Core8Settings17unreadMessageFontEv@Base 4:15.08.0
 _ZN11MessageList4Core8Settings18setMessageListFontERK5QFont@Base 4:15.08.0
 _ZN11MessageList4Core8Settings18setShowQuickSearchEb@Base 4:15.08.0
 _ZN11MessageList4Core8Settings18setTodoMessageFontERK5QFont@Base 4:15.08.0
 _ZN11MessageList4Core8Settings18unreadMessageColorEv@Base 4:15.08.0
 _ZN11MessageList4Core8Settings19messageListFontItemEv@Base 4:15.08.0
 _ZN11MessageList4Core8Settings19setTodoMessageColorERK6QColor@Base 4:15.08.0
 _ZN11MessageList4Core8Settings19showQuickSearchItemEv@Base 4:15.08.0
 _ZN11MessageList4Core8Settings19tabsHaveCloseButtonEv@Base 4:15.08.0
 _ZN11MessageList4Core8Settings19todoMessageFontItemEv@Base 4:15.08.0
 _ZN11MessageList4Core8Settings20importantMessageFontEv@Base 4:15.08.0
 _ZN11MessageList4Core8Settings20setUnreadMessageFontERK5QFont@Base 4:15.08.0
 _ZN11MessageList4Core8Settings20todoMessageColorItemEv@Base 4:15.08.0
 _ZN11MessageList4Core8Settings21importantMessageColorEv@Base 4:15.08.0
 _ZN11MessageList4Core8Settings21messageToolTipEnabledEv@Base 4:15.08.0
 _ZN11MessageList4Core8Settings21setUnreadMessageColorERK6QColor@Base 4:15.08.0
 _ZN11MessageList4Core8Settings21unreadMessageFontItemEv@Base 4:15.08.0
 _ZN11MessageList4Core8Settings22setTabsHaveCloseButtonEb@Base 4:15.08.0
 _ZN11MessageList4Core8Settings22unreadMessageColorItemEv@Base 4:15.08.0
 _ZN11MessageList4Core8Settings23setImportantMessageFontERK5QFont@Base 4:15.08.0
 _ZN11MessageList4Core8Settings23tabsHaveCloseButtonItemEv@Base 4:15.08.0
 _ZN11MessageList4Core8Settings24importantMessageFontItemEv@Base 4:15.08.0
 _ZN11MessageList4Core8Settings24setImportantMessageColorERK6QColor@Base 4:15.08.0
 _ZN11MessageList4Core8Settings24setMessageToolTipEnabledEb@Base 4:15.08.0
 _ZN11MessageList4Core8Settings25importantMessageColorItemEv@Base 4:15.08.0
 _ZN11MessageList4Core8Settings25messageToolTipEnabledItemEv@Base 4:15.08.0
 _ZN11MessageList4Core8Settings27autoHideTabBarWithSingleTabEv@Base 4:15.08.0
 _ZN11MessageList4Core8Settings30setAutoHideTabBarWithSingleTabEb@Base 4:15.08.0
 _ZN11MessageList4Core8Settings31autoHideTabBarWithSingleTabItemEv@Base 4:15.08.0
 _ZN11MessageList4Core8Settings4selfEv@Base 4:15.08.0
 _ZN11MessageList4Core8SettingsC1Ev@Base 4:15.08.0
 _ZN11MessageList4Core8SettingsC2Ev@Base 4:15.08.0
 _ZN11MessageList4Core8SettingsD0Ev@Base 4:15.08.0
 _ZN11MessageList4Core8SettingsD1Ev@Base 4:15.08.0
 _ZN11MessageList4Core8SettingsD2Ev@Base 4:15.08.0
 _ZN11MessageList4Pane10readConfigEb@Base 4:15.08.0
 _ZN11MessageList4Pane11eventFilterEP7QObjectP6QEvent@Base 4:15.08.0
 _ZN11MessageList4Pane11qt_metacallEN11QMetaObject4CallEiPPv@Base 4:15.08.0
 _ZN11MessageList4Pane11qt_metacastEPKc@Base 4:15.08.0
 _ZN11MessageList4Pane11writeConfigEb@Base 4:15.08.0
 _ZN11MessageList4Pane12createNewTabEv@Base 4:15.08.0
 _ZN11MessageList4Pane13statusMessageERK7QString@Base 4:15.08.0
 _ZN11MessageList4Pane15messageSelectedERKN7Akonadi4ItemE@Base 4:15.08.0
 _ZN11MessageList4Pane15setXmlGuiClientEP13KXMLGUIClient@Base 4:15.08.0
 _ZN11MessageList4Pane16focusQuickSearchERK7QString@Base 4:15.08.0
 _ZN11MessageList4Pane16messageActivatedERKN7Akonadi4ItemE@Base 4:15.08.0
 _ZN11MessageList4Pane16selectionChangedEv@Base 4:15.08.0
 _ZN11MessageList4Pane16setCurrentFolderERKN7Akonadi10CollectionEbNS_4Core16PreSelectionModeERK7QString@Base 4:15.08.0
 _ZN11MessageList4Pane16staticMetaObjectE@Base 4:15.08.0
 _ZN11MessageList4Pane17currentTabChangedEv@Base 4:15.08.0
 _ZN11MessageList4Pane17resetModelStorageEv@Base 4:15.08.0
 _ZN11MessageList4Pane17setPreferEmptyTabEb@Base 4:15.08.0
 _ZN11MessageList4Pane17updateTabIconTextERKN7Akonadi10CollectionERK7QStringRK5QIcon@Base 4:15.08.0
 _ZN11MessageList4Pane17updateTagComboBoxEv@Base 4:15.08.0
 _ZN11MessageList4Pane18createStorageModelEP18QAbstractItemModelP19QItemSelectionModelP7QObject@Base 4:15.08.0
 _ZN11MessageList4Pane19deletePersistentSetEl@Base 4:15.08.0
 _ZN11MessageList4Pane20focusNextMessageItemENS_4Core17MessageTypeFilterEbb@Base 4:15.08.0
 _ZN11MessageList4Pane20saveCurrentSelectionEv@Base 4:15.08.0
 _ZN11MessageList4Pane20setAllGroupsExpandedEb@Base 4:15.08.0
 _ZN11MessageList4Pane20themeMenuAboutToShowEv@Base 4:15.08.0
 _ZN11MessageList4Pane21restoreHeaderSettingsEi@Base 4:15.08.0
 _ZN11MessageList4Pane21selectLastMessageItemENS_4Core17MessageTypeFilterEb@Base 4:15.08.0
 _ZN11MessageList4Pane21selectNextMessageItemENS_4Core17MessageTypeFilterENS1_26ExistingSelectionBehaviourEbb@Base 4:15.08.0
 _ZN11MessageList4Pane21setAllThreadsExpandedEb@Base 4:15.08.0
 _ZN11MessageList4Pane22selectFirstMessageItemENS_4Core17MessageTypeFilterEb@Base 4:15.08.0
 _ZN11MessageList4Pane24focusPreviousMessageItemENS_4Core17MessageTypeFilterEbb@Base 4:15.08.0
 _ZN11MessageList4Pane24selectFocusedMessageItemEb@Base 4:15.08.0
 _ZN11MessageList4Pane24setCurrentThreadExpandedEb@Base 4:15.08.0
 _ZN11MessageList4Pane24sortOrderMenuAboutToShowEv@Base 4:15.08.0
 _ZN11MessageList4Pane25currentItemSelectionModelEv@Base 4:15.08.0
 _ZN11MessageList4Pane25itemListFromPersistentSetEl@Base 4:15.08.0
 _ZN11MessageList4Pane25populateStatusFilterComboEv@Base 4:15.08.0
 _ZN11MessageList4Pane25reloadGlobalConfigurationEv@Base 4:15.08.0
 _ZN11MessageList4Pane25selectPreviousMessageItemENS_4Core17MessageTypeFilterENS1_26ExistingSelectionBehaviourEbb@Base 4:15.08.0
 _ZN11MessageList4Pane26aggregationMenuAboutToShowEv@Base 4:15.08.0
 _ZN11MessageList4Pane26messageStatusChangeRequestERKN7Akonadi4ItemERKNS1_13MessageStatusES7_@Base 4:15.08.0
 _ZN11MessageList4Pane26setQuickSearchClickMessageERK7QString@Base 4:15.08.0
 _ZN11MessageList4Pane34markMessageItemsAsAboutToBeRemovedElb@Base 4:15.08.0
 _ZN11MessageList4Pane7Private11activateTabEv@Base 4:15.08.0
 _ZN11MessageList4Pane7Private11moveTabLeftEv@Base 4:15.08.0
 _ZN11MessageList4Pane7Private12moveTabRightEv@Base 4:15.08.0
 _ZN11MessageList4Pane7Private14moveTabForwardEv@Base 4:15.08.0
 _ZN11MessageList4Pane7Private15activateNextTabEv@Base 4:15.08.0
 _ZN11MessageList4Pane7Private15moveTabBackwardEv@Base 4:15.08.0
 _ZN11MessageList4Pane7Private15onNewTabClickedEv@Base 4:15.08.0
 _ZN11MessageList4Pane7Private17onCloseTabClickedEv@Base 4:15.08.0
 _ZN11MessageList4Pane7Private17updateTabControlsEv@Base 4:15.08.0
 _ZN11MessageList4Pane7Private18onSelectionChangedERK14QItemSelectionS4_@Base 4:15.08.0
 _ZN11MessageList4Pane7Private19activatePreviousTabEv@Base 4:15.08.0
 _ZN11MessageList4Pane7Private19onCurrentTabChangedEv@Base 4:15.08.0
 _ZN11MessageList4Pane7Private20addActivateTabActionEi@Base 4:15.08.0
 _ZN11MessageList4Pane7Private21slotTabCloseRequestedEi@Base 4:15.08.1
 _ZN11MessageList4Pane7Private23onTabContextMenuRequestERK6QPoint@Base 4:15.08.0
 _ZN11MessageList4Pane7Private27changeQuicksearchVisibilityEb@Base 4:15.08.0
 _ZN11MessageList4Pane7Private8closeTabEP7QWidget@Base 4:15.08.0
 _ZN11MessageList4Pane9focusViewEv@Base 4:15.08.0
 _ZN11MessageList4Pane9selectAllEv@Base 4:15.08.0
 _ZN11MessageList4PaneC1EbP18QAbstractItemModelP19QItemSelectionModelP7QWidget@Base 4:15.08.0
 _ZN11MessageList4PaneC2EbP18QAbstractItemModelP19QItemSelectionModelP7QWidget@Base 4:15.08.0
 _ZN11MessageList4PaneD0Ev@Base 4:15.08.0
 _ZN11MessageList4PaneD1Ev@Base 4:15.08.0
 _ZN11MessageList4PaneD2Ev@Base 4:15.08.0
 _ZN11MessageList4Util12deleteConfigERK7QString@Base 4:15.08.0
 _ZN11MessageList4Util12fillViewMenuEP5QMenuP7QObject@Base 4:15.08.0
 _ZN11MessageList4Util14contentSummaryERKN7Akonadi4ItemE@Base 4:15.08.0
 _ZN11MessageList4Util22groupSortingConfigNameEv@Base 4:15.08.0
 _ZN11MessageList4Util23storageModelThemesGroupEv@Base 4:15.08.0
 _ZN11MessageList4Util23todoDefaultMessageColorEv@Base 4:15.08.0
 _ZN11MessageList4Util24messageSortingConfigNameEv@Base 4:15.08.0
 _ZN11MessageList4Util25messageUniqueIdConfigNameEv@Base 4:15.08.0
 _ZN11MessageList4Util25unreadDefaultMessageColorEv@Base 4:15.08.0
 _ZN11MessageList4Util26storageModelSortOrderGroupEv@Base 4:15.08.0
 _ZN11MessageList4Util28groupSortDirectionConfigNameEv@Base 4:15.08.0
 _ZN11MessageList4Util28importantDefaultMessageColorEv@Base 4:15.08.0
 _ZN11MessageList4Util28setForStorageModelConfigNameEv@Base 4:15.08.0
 _ZN11MessageList4Util29storageModelAggregationsGroupEv@Base 4:15.08.0
 _ZN11MessageList4Util30messageSortDirectionConfigNameEv@Base 4:15.08.0
 _ZN11MessageList4Util32storageModelSelectedMessageGroupEv@Base 4:15.08.0
 _ZN11MessageList5Utils13ThemeComboBox11qt_metacallEN11QMetaObject4CallEiPPv@Base 4:15.08.0
 _ZN11MessageList5Utils13ThemeComboBox11qt_metacastEPKc@Base 4:15.08.0
 _ZN11MessageList5Utils13ThemeComboBox13selectDefaultEv@Base 4:15.08.0
 _ZN11MessageList5Utils13ThemeComboBox16staticMetaObjectE@Base 4:15.08.0
 _ZN11MessageList5Utils13ThemeComboBox22readStorageModelConfigEPNS_4Core12StorageModelERb@Base 4:15.08.0
 _ZN11MessageList5Utils13ThemeComboBox22readStorageModelConfigERKN7Akonadi10CollectionERb@Base 4:15.08.0
 _ZN11MessageList5Utils13ThemeComboBoxC1EP7QWidget@Base 4:15.08.0
 _ZN11MessageList5Utils13ThemeComboBoxC2EP7QWidget@Base 4:15.08.0
 _ZN11MessageList5Utils13ThemeComboBoxD0Ev@Base 4:15.08.0
 _ZN11MessageList5Utils13ThemeComboBoxD1Ev@Base 4:15.08.0
 _ZN11MessageList5Utils13ThemeComboBoxD2Ev@Base 4:15.08.0
 _ZN11MessageList5Utils17ThemeConfigButton11qt_metacallEN11QMetaObject4CallEiPPv@Base 4:15.08.0
 _ZN11MessageList5Utils17ThemeConfigButton11qt_metacastEPKc@Base 4:15.08.0
 _ZN11MessageList5Utils17ThemeConfigButton16staticMetaObjectE@Base 4:15.08.0
 _ZN11MessageList5Utils17ThemeConfigButton24configureDialogCompletedEv@Base 4:15.08.0
 _ZN11MessageList5Utils17ThemeConfigButtonC1EP7QWidgetPKNS0_13ThemeComboBoxE@Base 4:15.08.0
 _ZN11MessageList5Utils17ThemeConfigButtonC2EP7QWidgetPKNS0_13ThemeComboBoxE@Base 4:15.08.0
 _ZN11MessageList5Utils17ThemeConfigButtonD0Ev@Base 4:15.08.0
 _ZN11MessageList5Utils17ThemeConfigButtonD1Ev@Base 4:15.08.0
 _ZN11MessageList5Utils17ThemeConfigButtonD2Ev@Base 4:15.08.0
 _ZN11MessageList5Utils19AggregationComboBox11qt_metacallEN11QMetaObject4CallEiPPv@Base 4:15.08.0
 _ZN11MessageList5Utils19AggregationComboBox11qt_metacastEPKc@Base 4:15.08.0
 _ZN11MessageList5Utils19AggregationComboBox13selectDefaultEv@Base 4:15.08.0
 _ZN11MessageList5Utils19AggregationComboBox16staticMetaObjectE@Base 4:15.08.0
 _ZN11MessageList5Utils19AggregationComboBox22readStorageModelConfigEPNS_4Core12StorageModelERb@Base 4:15.08.0
 _ZN11MessageList5Utils19AggregationComboBox22readStorageModelConfigERK7QStringRb@Base 4:15.08.0
 _ZN11MessageList5Utils19AggregationComboBox22readStorageModelConfigERKN7Akonadi10CollectionERb@Base 4:15.08.0
 _ZN11MessageList5Utils19AggregationComboBoxC1EP7QWidget@Base 4:15.08.0
 _ZN11MessageList5Utils19AggregationComboBoxC2EP7QWidget@Base 4:15.08.0
 _ZN11MessageList5Utils19AggregationComboBoxD0Ev@Base 4:15.08.0
 _ZN11MessageList5Utils19AggregationComboBoxD1Ev@Base 4:15.08.0
 _ZN11MessageList5Utils19AggregationComboBoxD2Ev@Base 4:15.08.0
 _ZN11MessageList5Utils21ConfigureThemesDialog11qt_metacallEN11QMetaObject4CallEiPPv@Base 4:15.08.0
 _ZN11MessageList5Utils21ConfigureThemesDialog11qt_metacastEPKc@Base 4:15.08.0
 _ZN11MessageList5Utils21ConfigureThemesDialog11selectThemeERK7QString@Base 4:15.08.0
 _ZN11MessageList5Utils21ConfigureThemesDialog16staticMetaObjectE@Base 4:15.08.0
 _ZN11MessageList5Utils21ConfigureThemesDialog7Private12commitEditorEv@Base 4:15.08.0
 _ZN11MessageList5Utils21ConfigureThemesDialog7Private13fillThemeListEv@Base 4:15.08.0
 _ZN11MessageList5Utils21ConfigureThemesDialog7Private15okButtonClickedEv@Base 4:15.08.0
 _ZN11MessageList5Utils21ConfigureThemesDialog7Private17findThemeItemByIdERK7QString@Base 4:15.08.0
 _ZN11MessageList5Utils21ConfigureThemesDialog7Private18uniqueNameForThemeERK7QStringPNS_4Core5ThemeE@Base 4:15.08.0
 _ZN11MessageList5Utils21ConfigureThemesDialog7Private19findThemeItemByNameERK7QStringPNS_4Core5ThemeE@Base 4:15.08.0
 _ZN11MessageList5Utils21ConfigureThemesDialog7Private20findThemeItemByThemeEPNS_4Core5ThemeE@Base 4:15.08.0
 _ZN11MessageList5Utils21ConfigureThemesDialog7Private20themeListItemClickedEP15QListWidgetItem@Base 4:15.08.0
 _ZN11MessageList5Utils21ConfigureThemesDialog7Private21newThemeButtonClickedEv@Base 4:15.08.0
 _ZN11MessageList5Utils21ConfigureThemesDialog7Private22editedThemeNameChangedEv@Base 4:15.08.0
 _ZN11MessageList5Utils21ConfigureThemesDialog7Private23cloneThemeButtonClickedEv@Base 4:15.08.0
 _ZN11MessageList5Utils21ConfigureThemesDialog7Private24deleteThemeButtonClickedEv@Base 4:15.08.0
 _ZN11MessageList5Utils21ConfigureThemesDialog7Private24exportThemeButtonClickedEv@Base 4:15.08.0
 _ZN11MessageList5Utils21ConfigureThemesDialog7Private24importThemeButtonClickedEv@Base 4:15.08.0
 _ZN11MessageList5Utils21ConfigureThemesDialog9okClickedEv@Base 4:15.08.0
 _ZN11MessageList5Utils21ConfigureThemesDialogC1EP7QWidget@Base 4:15.08.0
 _ZN11MessageList5Utils21ConfigureThemesDialogC2EP7QWidget@Base 4:15.08.0
 _ZN11MessageList5Utils21ConfigureThemesDialogD0Ev@Base 4:15.08.0
 _ZN11MessageList5Utils21ConfigureThemesDialogD1Ev@Base 4:15.08.0
 _ZN11MessageList5Utils21ConfigureThemesDialogD2Ev@Base 4:15.08.0
 _ZN11MessageList5Utils23AggregationConfigButton11qt_metacallEN11QMetaObject4CallEiPPv@Base 4:15.08.0
 _ZN11MessageList5Utils23AggregationConfigButton11qt_metacastEPKc@Base 4:15.08.0
 _ZN11MessageList5Utils23AggregationConfigButton16staticMetaObjectE@Base 4:15.08.0
 _ZN11MessageList5Utils23AggregationConfigButton24configureDialogCompletedEv@Base 4:15.08.0
 _ZN11MessageList5Utils23AggregationConfigButtonC1EP7QWidgetPKNS0_19AggregationComboBoxE@Base 4:15.08.0
 _ZN11MessageList5Utils23AggregationConfigButtonC2EP7QWidgetPKNS0_19AggregationComboBoxE@Base 4:15.08.0
 _ZN11MessageList5Utils23AggregationConfigButtonD0Ev@Base 4:15.08.0
 _ZN11MessageList5Utils23AggregationConfigButtonD1Ev@Base 4:15.08.0
 _ZN11MessageList5Utils23AggregationConfigButtonD2Ev@Base 4:15.08.0
 _ZN11MessageList5Utils27ConfigureAggregationsDialog11qt_metacallEN11QMetaObject4CallEiPPv@Base 4:15.08.0
 _ZN11MessageList5Utils27ConfigureAggregationsDialog11qt_metacastEPKc@Base 4:15.08.0
 _ZN11MessageList5Utils27ConfigureAggregationsDialog16staticMetaObjectE@Base 4:15.08.0
 _ZN11MessageList5Utils27ConfigureAggregationsDialog17selectAggregationERK7QString@Base 4:15.08.0
 _ZN11MessageList5Utils27ConfigureAggregationsDialog7Private12commitEditorEv@Base 4:15.08.0
 _ZN11MessageList5Utils27ConfigureAggregationsDialog7Private12updateButtonEP15QListWidgetItem@Base 4:15.08.0
 _ZN11MessageList5Utils27ConfigureAggregationsDialog7Private15okButtonClickedEv@Base 4:15.08.0
 _ZN11MessageList5Utils27ConfigureAggregationsDialog7Private19fillAggregationListEv@Base 4:15.08.0
 _ZN11MessageList5Utils27ConfigureAggregationsDialog7Private23findAggregationItemByIdERK7QString@Base 4:15.08.0
 _ZN11MessageList5Utils27ConfigureAggregationsDialog7Private24uniqueNameForAggregationERK7QStringPNS_4Core11AggregationE@Base 4:15.08.0
 _ZN11MessageList5Utils27ConfigureAggregationsDialog7Private25findAggregationItemByNameERK7QStringPNS_4Core11AggregationE@Base 4:15.08.0
 _ZN11MessageList5Utils27ConfigureAggregationsDialog7Private26aggregationListItemClickedEP15QListWidgetItem@Base 4:15.08.0
 _ZN11MessageList5Utils27ConfigureAggregationsDialog7Private27newAggregationButtonClickedEv@Base 4:15.08.0
 _ZN11MessageList5Utils27ConfigureAggregationsDialog7Private28editedAggregationNameChangedEv@Base 4:15.08.0
 _ZN11MessageList5Utils27ConfigureAggregationsDialog7Private29cloneAggregationButtonClickedEv@Base 4:15.08.0
 _ZN11MessageList5Utils27ConfigureAggregationsDialog7Private30deleteAggregationButtonClickedEv@Base 4:15.08.0
 _ZN11MessageList5Utils27ConfigureAggregationsDialog7Private30exportAggregationButtonClickedEv@Base 4:15.08.0
 _ZN11MessageList5Utils27ConfigureAggregationsDialog7Private30importAggregationButtonClickedEv@Base 4:15.08.0
 _ZN11MessageList5Utils27ConfigureAggregationsDialog7Private32findAggregationItemByAggregationEPNS_4Core11AggregationE@Base 4:15.08.0
 _ZN11MessageList5Utils27ConfigureAggregationsDialog9okClickedEv@Base 4:15.08.0
 _ZN11MessageList5Utils27ConfigureAggregationsDialogC1EP7QWidget@Base 4:15.08.0
 _ZN11MessageList5Utils27ConfigureAggregationsDialogC2EP7QWidget@Base 4:15.08.0
 _ZN11MessageList5Utils27ConfigureAggregationsDialogD0Ev@Base 4:15.08.0
 _ZN11MessageList5Utils27ConfigureAggregationsDialogD1Ev@Base 4:15.08.0
 _ZN11MessageList5Utils27ConfigureAggregationsDialogD2Ev@Base 4:15.08.0
 _ZN11MessageList6Widget11qt_metacallEN11QMetaObject4CallEiPPv@Base 4:15.08.0
 _ZN11MessageList6Widget11qt_metacastEPKc@Base 4:15.08.0
 _ZN11MessageList6Widget13canAcceptDragEPK10QDropEvent@Base 4:15.08.0
 _ZN11MessageList6Widget13viewDropEventEP10QDropEvent@Base 4:15.08.0
 _ZN11MessageList6Widget14slotExpandItemEv@Base 4:15.08.0
 _ZN11MessageList6Widget15messageSelectedERKN7Akonadi4ItemE@Base 4:15.08.0
 _ZN11MessageList6Widget15setXmlGuiClientEP13KXMLGUIClient@Base 4:15.08.0
 _ZN11MessageList6Widget15slotTagsFetchedEP4KJob@Base 4:15.08.0
 _ZN11MessageList6Widget16focusQuickSearchERK7QString@Base 4:15.08.0
 _ZN11MessageList6Widget16messageActivatedERKN7Akonadi4ItemE@Base 4:15.08.0
 _ZN11MessageList6Widget16selectionChangedEv@Base 4:15.08.0
 _ZN11MessageList6Widget16slotCollapseItemEv@Base 4:15.08.0
 _ZN11MessageList6Widget16staticMetaObjectE@Base 4:15.08.0
 _ZN11MessageList6Widget17viewDragMoveEventEP14QDragMoveEvent@Base 4:15.08.0
 _ZN11MessageList6Widget18viewDragEnterEventEP15QDragEnterEvent@Base 4:15.08.0
 _ZN11MessageList6Widget19deletePersistentSetEl@Base 4:15.08.0
 _ZN11MessageList6Widget19fillMessageTagComboEv@Base 4:15.08.0
 _ZN11MessageList6Widget19viewMessageSelectedEPNS_4Core11MessageItemE@Base 4:15.08.0
 _ZN11MessageList6Widget20focusNextMessageItemENS_4Core17MessageTypeFilterEbb@Base 4:15.08.0
 _ZN11MessageList6Widget20setAllGroupsExpandedEb@Base 4:15.08.0
 _ZN11MessageList6Widget20viewMessageActivatedEPNS_4Core11MessageItemE@Base 4:15.08.0
 _ZN11MessageList6Widget20viewSelectionChangedEv@Base 4:15.08.0
 _ZN11MessageList6Widget20viewStartDragRequestEv@Base 4:15.08.0
 _ZN11MessageList6Widget21selectLastMessageItemENS_4Core17MessageTypeFilterEb@Base 4:15.08.0
 _ZN11MessageList6Widget21selectNextMessageItemENS_4Core17MessageTypeFilterENS1_26ExistingSelectionBehaviourEbb@Base 4:15.08.0
 _ZN11MessageList6Widget21setAllThreadsExpandedEb@Base 4:15.08.0
 _ZN11MessageList6Widget22selectFirstMessageItemENS_4Core17MessageTypeFilterEb@Base 4:15.08.0
 _ZN11MessageList6Widget24focusPreviousMessageItemENS_4Core17MessageTypeFilterEbb@Base 4:15.08.0
 _ZN11MessageList6Widget24selectFocusedMessageItemEb@Base 4:15.08.0
 _ZN11MessageList6Widget24setCurrentThreadExpandedEb@Base 4:15.08.0
 _ZN11MessageList6Widget25itemListFromPersistentSetEl@Base 4:15.08.0
 _ZN11MessageList6Widget25selectPreviousMessageItemENS_4Core17MessageTypeFilterENS1_26ExistingSelectionBehaviourEbb@Base 4:15.08.0
 _ZN11MessageList6Widget26messageStatusChangeRequestERKN7Akonadi4ItemERKNS1_13MessageStatusES7_@Base 4:15.08.0
 _ZN11MessageList6Widget26setQuickSearchClickMessageERK7QString@Base 4:15.08.0
 _ZN11MessageList6Widget30viewMessageStatusChangeRequestEPNS_4Core11MessageItemERKN7Akonadi13MessageStatusES7_@Base 4:15.08.0
 _ZN11MessageList6Widget34markMessageItemsAsAboutToBeRemovedElb@Base 4:15.08.0
 _ZN11MessageList6Widget34viewGroupHeaderContextPopupRequestEPNS_4Core15GroupHeaderItemERK6QPoint@Base 4:15.08.0
 _ZN11MessageList6Widget34viewMessageListContextPopupRequestERK5QListIPNS_4Core11MessageItemEERK6QPoint@Base 4:15.08.0
 _ZN11MessageList6Widget9selectAllEv@Base 4:15.08.0
 _ZN11MessageList6WidgetC1EP7QWidget@Base 4:15.08.0
 _ZN11MessageList6WidgetC2EP7QWidget@Base 4:15.08.0
 _ZN11MessageList6WidgetD0Ev@Base 4:15.08.0
 _ZN11MessageList6WidgetD1Ev@Base 4:15.08.0
 _ZN11MessageList6WidgetD2Ev@Base 4:15.08.0
 (optional=templinst)_ZN12KConfigGroup10writeEntryIiEEvPKcRKT_6QFlagsIN11KConfigBase15WriteConfigFlagEE@Base 4:15.08.0
 _ZNK11MessageList12StorageModel10itemForRowEi@Base 4:15.08.0
 _ZNK11MessageList12StorageModel10metaObjectEv@Base 4:15.08.0
 _ZNK11MessageList12StorageModel11columnCountERK11QModelIndex@Base 4:15.08.0
 _ZNK11MessageList12StorageModel13messageForRowEi@Base 4:15.08.0
 _ZNK11MessageList12StorageModel16isOutBoundFolderERKN7Akonadi10CollectionE@Base 4:15.08.0
 _ZNK11MessageList12StorageModel20displayedCollectionsEv@Base 4:15.08.0
 _ZNK11MessageList12StorageModel21initializeMessageItemEPNS_4Core11MessageItemEib@Base 4:15.08.0
 _ZNK11MessageList12StorageModel21updateMessageItemDataEPNS_4Core11MessageItemEi@Base 4:15.08.0
 _ZNK11MessageList12StorageModel22parentCollectionForRowEi@Base 4:15.08.0
 _ZNK11MessageList12StorageModel24containsOutboundMessagesEv@Base 4:15.08.0
 _ZNK11MessageList12StorageModel26initialUnreadRowCountGuessEv@Base 4:15.08.0
 _ZNK11MessageList12StorageModel28fillMessageItemThreadingDataEPNS_4Core11MessageItemEiNS1_12StorageModel19ThreadingDataSubsetE@Base 4:15.08.0
 _ZNK11MessageList12StorageModel2idEv@Base 4:15.08.0
 _ZNK11MessageList12StorageModel4dataERK11QModelIndexi@Base 4:15.08.0
 _ZNK11MessageList12StorageModel5indexEiiRK11QModelIndex@Base 4:15.08.0
 _ZNK11MessageList12StorageModel6parentERK11QModelIndex@Base 4:15.08.0
 _ZNK11MessageList12StorageModel8mimeDataERK5QListIPNS_4Core11MessageItemEE@Base 4:15.08.0
 _ZNK11MessageList12StorageModel8rowCountERK11QModelIndex@Base 4:15.08.0
 _ZNK11MessageList4Core11MessageItem10annotationEv@Base 4:15.08.0
 _ZNK11MessageList4Core11MessageItem11akonadiItemEv@Base 4:15.08.0
 _ZNK11MessageList4Core11MessageItem12messageIdMD5Ev@Base 4:15.08.0
 _ZNK11MessageList4Core11MessageItem13hasAnnotationEv@Base 4:15.08.0
 _ZNK11MessageList4Core11MessageItem14inReplyToIdMD5Ev@Base 4:15.08.0
 _ZNK11MessageList4Core11MessageItem14signatureStateEv@Base 4:15.08.0
 _ZNK11MessageList4Core11MessageItem15backgroundColorEv@Base 4:15.08.0
 _ZNK11MessageList4Core11MessageItem15encryptionStateEv@Base 4:15.08.0
 _ZNK11MessageList4Core11MessageItem15referencesIdMD5Ev@Base 4:15.08.0
 _ZNK11MessageList4Core11MessageItem15threadingStatusEv@Base 4:15.08.0
 _ZNK11MessageList4Core11MessageItem16aboutToBeRemovedEv@Base 4:15.08.0
 _ZNK11MessageList4Core11MessageItem17subjectIsPrefixedEv@Base 4:15.08.0
 _ZNK11MessageList4Core11MessageItem18strippedSubjectMD5Ev@Base 4:15.08.0
 _ZNK11MessageList4Core11MessageItem18tagListDescriptionEv@Base 4:15.08.0
 _ZNK11MessageList4Core11MessageItem3Tag15backgroundColorEv@Base 4:15.08.0
 _ZNK11MessageList4Core11MessageItem3Tag2idEv@Base 4:15.08.0
 _ZNK11MessageList4Core11MessageItem3Tag4fontEv@Base 4:15.08.0
 _ZNK11MessageList4Core11MessageItem3Tag4nameEv@Base 4:15.08.0
 _ZNK11MessageList4Core11MessageItem3Tag6pixmapEv@Base 4:15.08.0
 _ZNK11MessageList4Core11MessageItem3Tag8priorityEv@Base 4:15.08.0
 _ZNK11MessageList4Core11MessageItem3Tag9textColorEv@Base 4:15.08.0
 _ZNK11MessageList4Core11MessageItem4fontEv@Base 4:15.08.0
 _ZNK11MessageList4Core11MessageItem7findTagERK7QString@Base 4:15.08.0
 _ZNK11MessageList4Core11MessageItem7fontKeyEv@Base 4:15.08.0
 _ZNK11MessageList4Core11MessageItem7tagListEv@Base 4:15.08.0
 _ZNK11MessageList4Core11MessageItem8uniqueIdEv@Base 4:15.08.0
 _ZNK11MessageList4Core11MessageItem9textColorEv@Base 4:15.08.0
 _ZNK11MessageList4Core12StorageModel10metaObjectEv@Base 4:15.08.0
 _ZNK11MessageList4Core12StorageModel18preSelectedMessageEv@Base 4:15.08.0
 _ZNK11MessageList4Core12StorageModel26initialUnreadRowCountGuessEv@Base 4:15.08.0
 _ZNK11MessageList4Core15QuickSearchLine10lockSearchEv@Base 4:15.08.0
 _ZNK11MessageList4Core15QuickSearchLine10metaObjectEv@Base 4:15.08.0
 _ZNK11MessageList4Core15QuickSearchLine10searchEditEv@Base 4:15.08.0
 _ZNK11MessageList4Core15QuickSearchLine13searchOptionsEv@Base 4:15.08.0
 _ZNK11MessageList4Core15QuickSearchLine17tagFilterComboBoxEv@Base 4:15.08.0
 _ZNK11MessageList4Core15QuickSearchLine24containsOutboundMessagesEv@Base 4:15.08.0
 _ZNK11MessageList4Core15QuickSearchLine6statusEv@Base 4:15.08.0
 _ZNK11MessageList4Core18QuickSearchWarning10metaObjectEv@Base 4:15.08.0
 _ZNK11MessageList4Core19ModelInvariantIndex7isValidEv@Base 4:15.08.0
 _ZNK11MessageList4Core23ModelInvariantRowMapper10metaObjectEv@Base 4:15.08.0
 _ZNK11MessageList4Core4Item10childItemsEv@Base 4:15.08.0
 _ZNK11MessageList4Core4Item10isViewableEv@Base 4:15.08.0
 _ZNK11MessageList4Core4Item11hasAncestorEPKS1_@Base 4:15.08.0
 _ZNK11MessageList4Core4Item11hasChildrenEv@Base 4:15.08.0
 _ZNK11MessageList4Core4Item11useReceiverEv@Base 4:15.08.0
 _ZNK11MessageList4Core4Item13formattedDateEv@Base 4:15.08.0
 _ZNK11MessageList4Core4Item13formattedSizeEv@Base 4:15.08.0
 _ZNK11MessageList4Core4Item14childItemCountEv@Base 4:15.08.0
 _ZNK11MessageList4Core4Item14childItemStatsERNS1_14ChildItemStatsE@Base 4:15.08.0
 _ZNK11MessageList4Core4Item14firstChildItemEv@Base 4:15.08.0
 _ZNK11MessageList4Core4Item16formattedMaxDateEv@Base 4:15.08.0
 _ZNK11MessageList4Core4Item16indexOfChildItemEPS1_@Base 4:15.08.0
 _ZNK11MessageList4Core4Item16senderOrReceiverEv@Base 4:15.08.0
 _ZNK11MessageList4Core4Item17statusDescriptionEv@Base 4:15.08.0
 _ZNK11MessageList4Core4Item18parentCollectionIdEv@Base 4:15.08.0
 _ZNK11MessageList4Core4Item19initialExpandStatusEv@Base 4:15.08.0
 _ZNK11MessageList4Core4Item4dateEv@Base 4:15.08.0
 _ZNK11MessageList4Core4Item4sizeEv@Base 4:15.08.0
 _ZNK11MessageList4Core4Item4typeEv@Base 4:15.08.0
 _ZNK11MessageList4Core4Item6itemIdEv@Base 4:15.08.0
 _ZNK11MessageList4Core4Item6parentEv@Base 4:15.08.0
 _ZNK11MessageList4Core4Item6senderEv@Base 4:15.08.0
 _ZNK11MessageList4Core4Item6statusEv@Base 4:15.08.0
 _ZNK11MessageList4Core4Item7maxDateEv@Base 4:15.08.0
 _ZNK11MessageList4Core4Item7subjectEv@Base 4:15.08.0
 _ZNK11MessageList4Core4Item8receiverEv@Base 4:15.08.0
 _ZNK11MessageList4Core4Item9childItemEi@Base 4:15.08.0
 _ZNK11MessageList4Core4View10isThreadedEv@Base 4:15.08.0
 _ZNK11MessageList4Core4View10metaObjectEv@Base 4:15.08.0
 _ZNK11MessageList4Core4View11currentItemEv@Base 4:15.08.0
 _ZNK11MessageList4Core4View12storageModelEv@Base 4:15.08.0
 _ZNK11MessageList4Core4View14currentOptionsEv@Base 4:15.08.0
 _ZNK11MessageList4Core4View14selectionEmptyEv@Base 4:15.08.0
 _ZNK11MessageList4Core4View17isScrollingLockedEv@Base 4:15.08.0
 _ZNK11MessageList4Core4View17sizeHintForColumnEi@Base 4:15.08.0
 _ZNK11MessageList4Core4View18currentMessageItemEb@Base 4:15.08.0
 _ZNK11MessageList4Core4View19currentFilterStatusEv@Base 4:15.08.0
 _ZNK11MessageList4Core4View20deepestExpandedChildEPNS0_4ItemE@Base 4:15.08.0
 _ZNK11MessageList4Core4View25currentFilterSearchStringEv@Base 4:15.08.0
 _ZNK11MessageList4Core4View26selectionAsMessageItemListEb@Base 4:15.08.0
 _ZNK11MessageList4Core4View30currentThreadAsMessageItemListEv@Base 4:15.08.0
 _ZNK11MessageList4Core4View30isDisplayedWithParentsExpandedEPNS0_4ItemE@Base 4:15.08.0
 _ZNK11MessageList4Core4View5modelEv@Base 4:15.08.0
 _ZNK11MessageList4Core4View8delegateEv@Base 4:15.08.0
 _ZNK11MessageList4Core5Model10headerDataEiN2Qt11OrientationEi@Base 4:15.08.0
 _ZNK11MessageList4Core5Model10metaObjectEv@Base 4:15.08.0
 _ZNK11MessageList4Core5Model11columnCountERK11QModelIndex@Base 4:15.08.0
 _ZNK11MessageList4Core5Model12storageModelEv@Base 4:15.08.0
 _ZNK11MessageList4Core5Model23messageItemByStorageRowEi@Base 4:15.08.0
 _ZNK11MessageList4Core5Model4dataERK11QModelIndexi@Base 4:15.08.0
 _ZNK11MessageList4Core5Model5flagsERK11QModelIndex@Base 4:15.08.0
 _ZNK11MessageList4Core5Model5indexEPNS0_4ItemEi@Base 4:15.08.0
 _ZNK11MessageList4Core5Model5indexEiiRK11QModelIndex@Base 4:15.08.0
 _ZNK11MessageList4Core5Model6parentERK11QModelIndex@Base 4:15.08.0
 _ZNK11MessageList4Core5Model8mimeDataERK5QListI11QModelIndexE@Base 4:15.08.0
 _ZNK11MessageList4Core5Model8rootItemEv@Base 4:15.08.0
 _ZNK11MessageList4Core5Model8rowCountERK11QModelIndex@Base 4:15.08.0
 _ZNK11MessageList4Core5Model9isLoadingEv@Base 4:15.08.0
 _ZNK11MessageList4Core5Model9sortOrderEv@Base 4:15.08.0
 _ZNK11MessageList4Core6Widget10isThreadedEv@Base 4:15.08.0
 _ZNK11MessageList4Core6Widget10metaObjectEv@Base 4:15.08.0
 _ZNK11MessageList4Core6Widget11quickSearchEv@Base 4:15.08.0
 _ZNK11MessageList4Core6Widget12storageModelEv@Base 4:15.08.0
 _ZNK11MessageList4Core6Widget14currentOptionsEv@Base 4:15.08.0
 _ZNK11MessageList4Core6Widget14selectionEmptyEv@Base 4:15.08.0
 _ZNK11MessageList4Core6Widget18currentFilterTagIdEv@Base 4:15.08.0
 _ZNK11MessageList4Core6Widget18currentMessageItemEv@Base 4:15.08.0
 _ZNK11MessageList4Core6Widget18searchEditHasFocusEv@Base 4:15.08.0
 _ZNK11MessageList4Core6Widget19currentFilterStatusEv@Base 4:15.08.0
 _ZNK11MessageList4Core6Widget25currentFilterSearchStringEv@Base 4:15.08.0
 _ZNK11MessageList4Core6Widget4viewEv@Base 4:15.08.0
 _ZNK11MessageList4Core8FakeItem13hasAnnotationEv@Base 4:15.08.0
 _ZNK11MessageList4Core8FakeItem7tagListEv@Base 4:15.08.0
 _ZNK11MessageList4Pane10isThreadedEv@Base 4:15.08.0
 _ZNK11MessageList4Pane10metaObjectEv@Base 4:15.08.0
 _ZNK11MessageList4Pane11currentItemEv@Base 4:15.08.0
 _ZNK11MessageList4Pane14currentMessageEv@Base 4:15.08.0
 _ZNK11MessageList4Pane14currentOptionsEv@Base 4:15.08.0
 _ZNK11MessageList4Pane14selectionEmptyEv@Base 4:15.08.0
 _ZNK11MessageList4Pane17getSelectionStatsER7QVectorIN7Akonadi4ItemEES5_Pbb@Base 4:15.08.0
 _ZNK11MessageList4Pane18searchEditHasFocusEv@Base 4:15.08.0
 _ZNK11MessageList4Pane19currentFilterStatusEv@Base 4:15.08.0
 _ZNK11MessageList4Pane22selectionAsMessageListEb@Base 4:15.08.0
 _ZNK11MessageList4Pane24selectionAsListMessageIdEb@Base 4:15.08.0
 _ZNK11MessageList4Pane24selectionAsPersistentSetEb@Base 4:15.08.0
 _ZNK11MessageList4Pane25currentFilterSearchStringEv@Base 4:15.08.0
 _ZNK11MessageList4Pane26currentThreadAsMessageListEv@Base 4:15.08.0
 _ZNK11MessageList4Pane26selectionAsMessageItemListEb@Base 4:15.08.0
 _ZNK11MessageList4Pane28currentThreadAsPersistentSetEv@Base 4:15.08.0
 _ZNK11MessageList4Pane28selectionAsMessageItemListIdEb@Base 4:15.08.0
 _ZNK11MessageList4Pane7Private20mapSelectionToSourceERK14QItemSelection@Base 4:15.08.0
 _ZNK11MessageList4Pane7Private22mapSelectionFromSourceERK14QItemSelection@Base 4:15.08.0
 _ZNK11MessageList5Utils13ThemeComboBox10metaObjectEv@Base 4:15.08.0
 _ZNK11MessageList5Utils13ThemeComboBox12currentThemeEv@Base 4:15.08.0
 _ZNK11MessageList5Utils13ThemeComboBox18writeDefaultConfigEv@Base 4:15.08.0
 _ZNK11MessageList5Utils13ThemeComboBox23writeStorageModelConfigEPNS_4Core12StorageModelEb@Base 4:15.08.0
 _ZNK11MessageList5Utils13ThemeComboBox23writeStorageModelConfigERK7QStringb@Base 4:15.08.0
 _ZNK11MessageList5Utils13ThemeComboBox23writeStorageModelConfigERKN7Akonadi10CollectionEb@Base 4:15.08.0
 _ZNK11MessageList5Utils17ThemeConfigButton10metaObjectEv@Base 4:15.08.0
 _ZNK11MessageList5Utils19AggregationComboBox10metaObjectEv@Base 4:15.08.0
 _ZNK11MessageList5Utils19AggregationComboBox18currentAggregationEv@Base 4:15.08.0
 _ZNK11MessageList5Utils19AggregationComboBox18writeDefaultConfigEv@Base 4:15.08.0
 _ZNK11MessageList5Utils19AggregationComboBox23writeStorageModelConfigEPNS_4Core12StorageModelEb@Base 4:15.08.0
 _ZNK11MessageList5Utils19AggregationComboBox23writeStorageModelConfigERK7QStringb@Base 4:15.08.0
 _ZNK11MessageList5Utils19AggregationComboBox23writeStorageModelConfigERKN7Akonadi10CollectionEb@Base 4:15.08.0
 _ZNK11MessageList5Utils21ConfigureThemesDialog10metaObjectEv@Base 4:15.08.0
 _ZNK11MessageList5Utils23AggregationConfigButton10metaObjectEv@Base 4:15.08.0
 _ZNK11MessageList5Utils27ConfigureAggregationsDialog10metaObjectEv@Base 4:15.08.0
 _ZNK11MessageList6Widget10isThreadedEv@Base 4:15.08.0
 _ZNK11MessageList6Widget10metaObjectEv@Base 4:15.08.0
 _ZNK11MessageList6Widget11currentItemEv@Base 4:15.08.0
 _ZNK11MessageList6Widget14currentMessageEv@Base 4:15.08.0
 _ZNK11MessageList6Widget14currentOptionsEv@Base 4:15.08.0
 _ZNK11MessageList6Widget14selectionEmptyEv@Base 4:15.08.0
 _ZNK11MessageList6Widget17currentCollectionEv@Base 4:15.08.0
 _ZNK11MessageList6Widget17getSelectionStatsER7QVectorIN7Akonadi4ItemEES5_Pbb@Base 4:15.08.0
 _ZNK11MessageList6Widget19currentFilterStatusEv@Base 4:15.08.0
 _ZNK11MessageList6Widget22selectionAsMessageListEb@Base 4:15.08.0
 _ZNK11MessageList6Widget24selectionAsListMessageIdEb@Base 4:15.08.0
 _ZNK11MessageList6Widget24selectionAsPersistentSetEb@Base 4:15.08.0
 _ZNK11MessageList6Widget25currentFilterSearchStringEv@Base 4:15.08.0
 _ZNK11MessageList6Widget26currentThreadAsMessageListEv@Base 4:15.08.0
 _ZNK11MessageList6Widget26selectionAsMessageItemListEb@Base 4:15.08.0
 _ZNK11MessageList6Widget28currentThreadAsPersistentSetEv@Base 4:15.08.0
 _ZNK11MessageList6Widget28selectionAsMessageItemListIdEb@Base 4:15.08.0
 _ZNK11MessageList6Widget7Private10itemForRowEi@Base 4:15.08.0
 _ZNK11MessageList6Widget7Private13messageForRowEi@Base 4:15.08.0
 _ZNK11MessageList6Widget7Private16selectionAsItemsEv@Base 4:15.08.0
 (optional=templinst)_ZNK12KConfigGroup9readEntryI10QByteArrayEET_PKcRKS2_@Base 4:15.08.0
 (optional=templinst)_ZNK12KConfigGroup9readEntryIiEET_PKcRKS1_@Base 4:15.08.0
 (optional=templinst|arch=amd64)_ZNK12KConfigGroup9readEntryIyEET_PKcRKS1_@Base 4:15.08.0
 (optional=templinst)_ZNK7Akonadi4Item11payloadImplIN5boost10shared_ptrIN5KMime7MessageEEEEENSt9enable_ifIXntsrNS_8Internal12PayloadTraitIT_EE13isPolymorphicESA_E4typeEv@Base 4:15.08.0
 (optional=templinst)_ZNK7Akonadi4Item14tryToCloneImplIN5boost10shared_ptrIN5KMime7MessageEEE14QSharedPointerIS5_EEENSt9enable_ifIXntsrSt7is_sameIT_T0_E5valueEbE4typeEPSB_PKi@Base 4:15.08.0
 _ZTIN11MessageList12StorageModelE@Base 4:15.08.0
 _ZTIN11MessageList4Core11MessageItemE@Base 4:15.08.0
 _ZTIN11MessageList4Core12StorageModelE@Base 4:15.08.0
 _ZTIN11MessageList4Core15QuickSearchLineE@Base 4:15.08.0
 _ZTIN11MessageList4Core18QuickSearchWarningE@Base 4:15.08.0
 _ZTIN11MessageList4Core19ModelInvariantIndexE@Base 4:15.08.0
 _ZTIN11MessageList4Core23ModelInvariantRowMapperE@Base 4:15.08.0
 _ZTIN11MessageList4Core4ItemE@Base 4:15.08.0
 _ZTIN11MessageList4Core4ViewE@Base 4:15.08.0
 _ZTIN11MessageList4Core5ModelE@Base 4:15.08.0
 _ZTIN11MessageList4Core6WidgetE@Base 4:15.08.0
 _ZTIN11MessageList4Core8FakeItemE@Base 4:15.08.0
 _ZTIN11MessageList4Core8SettingsE@Base 4:15.08.0
 _ZTIN11MessageList4PaneE@Base 4:15.08.0
 _ZTIN11MessageList5Utils13ThemeComboBoxE@Base 4:15.08.0
 _ZTIN11MessageList5Utils17ThemeConfigButtonE@Base 4:15.08.0
 _ZTIN11MessageList5Utils19AggregationComboBoxE@Base 4:15.08.0
 _ZTIN11MessageList5Utils21ConfigureThemesDialogE@Base 4:15.08.0
 _ZTIN11MessageList5Utils23AggregationConfigButtonE@Base 4:15.08.0
 _ZTIN11MessageList5Utils27ConfigureAggregationsDialogE@Base 4:15.08.0
 _ZTIN11MessageList6WidgetE@Base 4:15.08.0
 _ZTSN11MessageList12StorageModelE@Base 4:15.08.0
 _ZTSN11MessageList4Core11MessageItemE@Base 4:15.08.0
 _ZTSN11MessageList4Core12StorageModelE@Base 4:15.08.0
 _ZTSN11MessageList4Core15QuickSearchLineE@Base 4:15.08.0
 _ZTSN11MessageList4Core18QuickSearchWarningE@Base 4:15.08.0
 _ZTSN11MessageList4Core19ModelInvariantIndexE@Base 4:15.08.0
 _ZTSN11MessageList4Core23ModelInvariantRowMapperE@Base 4:15.08.0
 _ZTSN11MessageList4Core4ItemE@Base 4:15.08.0
 _ZTSN11MessageList4Core4ViewE@Base 4:15.08.0
 _ZTSN11MessageList4Core5ModelE@Base 4:15.08.0
 _ZTSN11MessageList4Core6WidgetE@Base 4:15.08.0
 _ZTSN11MessageList4Core8FakeItemE@Base 4:15.08.0
 _ZTSN11MessageList4Core8SettingsE@Base 4:15.08.0
 _ZTSN11MessageList4PaneE@Base 4:15.08.0
 _ZTSN11MessageList5Utils13ThemeComboBoxE@Base 4:15.08.0
 _ZTSN11MessageList5Utils17ThemeConfigButtonE@Base 4:15.08.0
 _ZTSN11MessageList5Utils19AggregationComboBoxE@Base 4:15.08.0
 _ZTSN11MessageList5Utils21ConfigureThemesDialogE@Base 4:15.08.0
 _ZTSN11MessageList5Utils23AggregationConfigButtonE@Base 4:15.08.0
 _ZTSN11MessageList5Utils27ConfigureAggregationsDialogE@Base 4:15.08.0
 _ZTSN11MessageList6WidgetE@Base 4:15.08.0
 _ZTVN11MessageList12StorageModelE@Base 4:15.08.0
 _ZTVN11MessageList4Core11MessageItemE@Base 4:15.08.0
 _ZTVN11MessageList4Core12StorageModelE@Base 4:15.08.0
 _ZTVN11MessageList4Core15QuickSearchLineE@Base 4:15.08.0
 _ZTVN11MessageList4Core18QuickSearchWarningE@Base 4:15.08.0
 _ZTVN11MessageList4Core19ModelInvariantIndexE@Base 4:15.08.0
 _ZTVN11MessageList4Core23ModelInvariantRowMapperE@Base 4:15.08.0
 _ZTVN11MessageList4Core4ItemE@Base 4:15.08.0
 _ZTVN11MessageList4Core4ViewE@Base 4:15.08.0
 _ZTVN11MessageList4Core5ModelE@Base 4:15.08.0
 _ZTVN11MessageList4Core6WidgetE@Base 4:15.08.0
 _ZTVN11MessageList4Core8FakeItemE@Base 4:15.08.0
 _ZTVN11MessageList4Core8SettingsE@Base 4:15.08.0
 _ZTVN11MessageList4PaneE@Base 4:15.08.0
 _ZTVN11MessageList5Utils13ThemeComboBoxE@Base 4:15.08.0
 _ZTVN11MessageList5Utils17ThemeConfigButtonE@Base 4:15.08.0
 _ZTVN11MessageList5Utils19AggregationComboBoxE@Base 4:15.08.0
 _ZTVN11MessageList5Utils21ConfigureThemesDialogE@Base 4:15.08.0
 _ZTVN11MessageList5Utils23AggregationConfigButtonE@Base 4:15.08.0
 _ZTVN11MessageList5Utils27ConfigureAggregationsDialogE@Base 4:15.08.0
 _ZTVN11MessageList6WidgetE@Base 4:15.08.0
 (c++)"non-virtual thunk to MessageList::Core::FakeItem::~FakeItem()@Base" 4:15.08.0
 (c++)"non-virtual thunk to MessageList::Core::MessageItem::~MessageItem()@Base" 4:15.08.0
 (c++)"non-virtual thunk to MessageList::Core::QuickSearchLine::~QuickSearchLine()@Base" 4:15.08.0
 (c++)"non-virtual thunk to MessageList::Core::QuickSearchWarning::~QuickSearchWarning()@Base" 4:15.08.0
 (c++)"non-virtual thunk to MessageList::Core::View::~View()@Base" 4:15.08.0
 (c++)"non-virtual thunk to MessageList::Core::Widget::~Widget()@Base" 4:15.08.0
 (c++)"non-virtual thunk to MessageList::Pane::~Pane()@Base" 4:15.08.0
 (c++)"non-virtual thunk to MessageList::Utils::AggregationComboBox::~AggregationComboBox()@Base" 4:15.08.0
 (c++)"non-virtual thunk to MessageList::Utils::AggregationConfigButton::~AggregationConfigButton()@Base" 4:15.08.0
 (c++)"non-virtual thunk to MessageList::Utils::ConfigureAggregationsDialog::~ConfigureAggregationsDialog()@Base" 4:15.08.0
 (c++)"non-virtual thunk to MessageList::Utils::ConfigureThemesDialog::~ConfigureThemesDialog()@Base" 4:15.08.0
 (c++)"non-virtual thunk to MessageList::Utils::ThemeComboBox::~ThemeComboBox()@Base" 4:15.08.0
 (c++)"non-virtual thunk to MessageList::Utils::ThemeConfigButton::~ThemeConfigButton()@Base" 4:15.08.0
 (c++)"non-virtual thunk to MessageList::Widget::~Widget()@Base" 4:15.08.0
