# SymbolsHelper-Confirmed: 4:15.08.0 amd64
libmessageviewer.so.5 libmessageviewer5 #MINVER#
 _ZN13MessageViewer10NodeHelper11addTempFileERK7QString@Base 4:15.08.0
 _ZN13MessageViewer10NodeHelper11fixEncodingERK7QString@Base 4:15.08.0
 _ZN13MessageViewer10NodeHelper12cleanSubjectEPN5KMime7MessageE@Base 4:15.08.0
 _ZN13MessageViewer10NodeHelper12cleanSubjectEPN5KMime7MessageERK11QStringListbRK7QString@Base 4:15.08.0
 _ZN13MessageViewer10NodeHelper12codecForNameERK10QByteArray@Base 4:15.08.0
 _ZN13MessageViewer10NodeHelper12fromAsStringEPN5KMime7ContentE@Base 4:15.08.0
 _ZN13MessageViewer10NodeHelper12magicSetTypeEPN5KMime7ContentEb@Base 4:15.08.0
 _ZN13MessageViewer10NodeHelper12partMetaDataEPN5KMime7ContentE@Base 4:15.08.0
 _ZN13MessageViewer10NodeHelper13createTempDirERK7QString@Base 4:15.08.0
 _ZN13MessageViewer10NodeHelper15encodingForNameERK7QString@Base 4:15.08.0
 _ZN13MessageViewer10NodeHelper15isToltecMessageEPN5KMime7ContentE@Base 4:15.08.0
 _ZN13MessageViewer10NodeHelper15mergeExtraNodesEPN5KMime7ContentE@Base 4:15.08.0
 _ZN13MessageViewer10NodeHelper15removeTempFilesEv@Base 4:15.08.0
 _ZN13MessageViewer10NodeHelper15replacePrefixesERK7QStringRK11QStringListbS3_@Base 4:15.08.0
 _ZN13MessageViewer10NodeHelper15setPartMetaDataEPN5KMime7ContentERKNS_12PartMetaDataE@Base 4:15.08.0
 _ZN13MessageViewer10NodeHelper16setNodeProcessedEPN5KMime7ContentEb@Base 4:15.08.0
 _ZN13MessageViewer10NodeHelper16setOverrideCodecEPN5KMime7ContentEPK10QTextCodec@Base 4:15.08.0
 _ZN13MessageViewer10NodeHelper17autoDetectCharsetERK10QByteArrayRK11QStringListRK7QString@Base 4:15.08.0
 _ZN13MessageViewer10NodeHelper17setSignatureStateEPN5KMime7ContentENS_19KMMsgSignatureStateE@Base 4:15.08.0
 _ZN13MessageViewer10NodeHelper18attachExtraContentEPN5KMime7ContentES3_@Base 4:15.08.0
 _ZN13MessageViewer10NodeHelper18setBodyPartMementoEPN5KMime7ContentERK10QByteArrayPNS_9Interface15BodyPartMementoE@Base 4:15.08.0
 _ZN13MessageViewer10NodeHelper18setEncryptionStateEPN5KMime7ContentENS_20KMMsgEncryptionStateE@Base 4:15.08.0
 _ZN13MessageViewer10NodeHelper18setNodeUnprocessedEPN5KMime7ContentEb@Base 4:15.08.0
 _ZN13MessageViewer10NodeHelper18supportedEncodingsEb@Base 4:15.08.0
 _ZN13MessageViewer10NodeHelper18unencryptedMessageERKN5boost10shared_ptrIN5KMime7MessageEEE@Base 4:15.08.0
 _ZN13MessageViewer10NodeHelper19cleanFromExtraNodesEPN5KMime7ContentE@Base 4:15.08.0
 _ZN13MessageViewer10NodeHelper19forceCleanTempFilesEv@Base 4:15.08.0
 _ZN13MessageViewer10NodeHelper19tempFileUrlFromNodeEPKN5KMime7ContentE@Base 4:15.08.0
 _ZN13MessageViewer10NodeHelper19writeNodeToTempFileEPN5KMime7ContentE@Base 4:15.08.0
 _ZN13MessageViewer10NodeHelper21attachmentDisplayInfoEPN5KMime7ContentE@Base 4:15.08.0
 _ZN13MessageViewer10NodeHelper21removeAllExtraContentEPN5KMime7ContentE@Base 4:15.08.0
 _ZN13MessageViewer10NodeHelper22setNodeDisplayedHiddenEPN5KMime7ContentEb@Base 4:15.08.0
 _ZN13MessageViewer10NodeHelper23isInEncapsulatedMessageEPN5KMime7ContentE@Base 4:15.08.0
 _ZN13MessageViewer10NodeHelper23messageWithExtraContentEPN5KMime7ContentE@Base 4:15.08.0
 _ZN13MessageViewer10NodeHelper24setNodeDisplayedEmbeddedEPN5KMime7ContentEb@Base 4:15.08.0
 _ZN13MessageViewer10NodeHelper25unencryptedMessage_helperEPN5KMime7ContentER10QByteArraybi@Base 4:15.08.0
 _ZN13MessageViewer10NodeHelper5clearEv@Base 4:15.08.0
 _ZN13MessageViewer10NodeHelper5codecEPN5KMime7ContentE@Base 4:15.08.0
 _ZN13MessageViewer10NodeHelper6asHREFEPKN5KMime7ContentERK7QString@Base 4:15.08.0
 _ZN13MessageViewer10NodeHelper7charsetEPN5KMime7ContentE@Base 4:15.08.0
 _ZN13MessageViewer10NodeHelper8fileNameEPKN5KMime7ContentE@Base 4:15.08.0
 _ZN13MessageViewer10NodeHelper8iconNameEPN5KMime7ContentEi@Base 4:15.08.0
 _ZN13MessageViewer10NodeHelper9toUsAsciiERK7QStringPb@Base 4:15.08.0
 _ZN13MessageViewer10NodeHelperC1Ev@Base 4:15.08.0
 _ZN13MessageViewer10NodeHelperC2Ev@Base 4:15.08.0
 _ZN13MessageViewer10NodeHelperD1Ev@Base 4:15.08.0
 _ZN13MessageViewer10NodeHelperD2Ev@Base 4:15.08.0
 _ZN13MessageViewer11EmptySource10htmlWriterEv@Base 4:15.08.0
 _ZN13MessageViewer11EmptySource10levelQuoteEv@Base 4:15.08.0
 _ZN13MessageViewer11EmptySource11setHtmlModeENS_4Util8HtmlModeE@Base 4:15.08.0
 _ZN13MessageViewer11EmptySource12sourceObjectEv@Base 4:15.08.0
 _ZN13MessageViewer11EmptySource13overrideCodecEv@Base 4:15.08.0
 _ZN13MessageViewer11EmptySource14decryptMessageEv@Base 4:15.08.0
 _ZN13MessageViewer11EmptySource16htmlLoadExternalEv@Base 4:15.08.0
 _ZN13MessageViewer11EmptySource18attachmentStrategyEv@Base 4:15.08.0
 _ZN13MessageViewer11EmptySource18setAllowDecryptionEb@Base 4:15.08.0
 _ZN13MessageViewer11EmptySource19createMessageHeaderEPN5KMime7MessageE@Base 4:15.08.0
 _ZN13MessageViewer11EmptySource20showSignatureDetailsEv@Base 4:15.08.0
 _ZN13MessageViewer11EmptySource8htmlMailEv@Base 4:15.08.0
 _ZN13MessageViewer11EmptySource9cssHelperEv@Base 4:15.08.0
 _ZN13MessageViewer11EmptySourceC1Ev@Base 4:15.08.0
 _ZN13MessageViewer11EmptySourceC2Ev@Base 4:15.08.0
 _ZN13MessageViewer11EmptySourceD0Ev@Base 4:15.08.0
 _ZN13MessageViewer11EmptySourceD1Ev@Base 4:15.08.0
 _ZN13MessageViewer11EmptySourceD2Ev@Base 4:15.08.0
 _ZN13MessageViewer11HeaderStyle10enterpriseEv@Base 4:15.08.0
 _ZN13MessageViewer11HeaderStyle5briefEv@Base 4:15.08.0
 _ZN13MessageViewer11HeaderStyle5fancyEv@Base 4:15.08.0
 _ZN13MessageViewer11HeaderStyle5plainEv@Base 4:15.08.0
 _ZN13MessageViewer11HeaderStyle6createENS0_4TypeE@Base 4:15.08.0
 _ZN13MessageViewer11HeaderStyle6createERK7QString@Base 4:15.08.0
 _ZN13MessageViewer11HeaderStyle6customEv@Base 4:15.08.0
 _ZN13MessageViewer11HeaderStyle8grantleeEv@Base 4:15.08.0
 _ZN13MessageViewer11HeaderStyleC1Ev@Base 4:15.08.0
 _ZN13MessageViewer11HeaderStyleC2Ev@Base 4:15.08.0
 _ZN13MessageViewer11HeaderStyleD0Ev@Base 4:15.08.0
 _ZN13MessageViewer11HeaderStyleD1Ev@Base 4:15.08.0
 _ZN13MessageViewer11HeaderStyleD2Ev@Base 4:15.08.0
 _ZN13MessageViewer11MailWebView10scrollDownEi@Base 4:15.08.0
 _ZN13MessageViewer11MailWebView10wheelEventEP11QWheelEvent@Base 4:15.08.0
 _ZN13MessageViewer11MailWebView11linkHoveredERK7QStringS3_S3_@Base 4:15.08.0
 _ZN13MessageViewer11MailWebView11qt_metacallEN11QMetaObject4CallEiPPv@Base 4:15.08.0
 _ZN13MessageViewer11MailWebView11qt_metacastEPKc@Base 4:15.08.0
 _ZN13MessageViewer11MailWebView12scrollPageUpEi@Base 4:15.08.0
 _ZN13MessageViewer11MailWebView13keyPressEventEP9QKeyEvent@Base 4:15.08.0
 _ZN13MessageViewer11MailWebView14clearSelectionEv@Base 4:15.08.0
 _ZN13MessageViewer11MailWebView14hideAccessKeysEv@Base 4:15.08.0
 _ZN13MessageViewer11MailWebView14markAttachmentERK7QStringS3_@Base 4:15.08.0
 _ZN13MessageViewer11MailWebView14scrollPageDownEi@Base 4:15.08.0
 _ZN13MessageViewer11MailWebView14scrollToAnchorERK7QString@Base 4:15.08.0
 _ZN13MessageViewer11MailWebView14showAccessKeysEv@Base 4:15.08.0
 _ZN13MessageViewer11MailWebView15keyReleaseEventEP9QKeyEvent@Base 4:15.08.0
 _ZN13MessageViewer11MailWebView15slotShowDetailsEv@Base 4:15.08.0
 _ZN13MessageViewer11MailWebView16replaceInnerHtmlERK7QStringRKN5boost8functionIFS1_vEEE@Base 4:15.08.0
 _ZN13MessageViewer11MailWebView16staticMetaObjectE@Base 4:15.08.0
 _ZN13MessageViewer11MailWebView17checkForAccessKeyEP9QKeyEvent@Base 4:15.08.0
 _ZN13MessageViewer11MailWebView17injectAttachmentsERKN5boost8functionIF7QStringvEEE@Base 4:15.08.0
 _ZN13MessageViewer11MailWebView17messageMayBeAScamEv@Base 4:15.08.0
 _ZN13MessageViewer11MailWebView18clearFindSelectionEv@Base 4:15.08.0
 _ZN13MessageViewer11MailWebView18makeAccessKeyLabelERK5QCharRK11QWebElement@Base 4:15.08.0
 _ZN13MessageViewer11MailWebView18setScrollBarPolicyEN2Qt11OrientationENS1_15ScrollBarPolicyE@Base 4:15.08.0
 _ZN13MessageViewer11MailWebView21setElementByIdVisibleERK7QStringb@Base 4:15.08.0
 _ZN13MessageViewer11MailWebView23removeAttachmentMarkingERK7QString@Base 4:15.08.0
 _ZN13MessageViewer11MailWebView23setAllowExternalContentEb@Base 4:15.08.0
 _ZN13MessageViewer11MailWebView24openBlockableItemsDialogEv@Base 4:15.08.0
 _ZN13MessageViewer11MailWebView24scrollToRelativePositionEd@Base 4:15.08.0
 _ZN13MessageViewer11MailWebView29saveMainFrameScreenshotInFileERK7QString@Base 4:15.08.0
 _ZN13MessageViewer11MailWebView5eventEP6QEvent@Base 4:15.08.0
 _ZN13MessageViewer11MailWebView7setHtmlERK7QStringRK4QUrl@Base 4:15.08.0
 _ZN13MessageViewer11MailWebView8findTextERK7QString6QFlagsINS0_8FindFlagEE@Base 4:15.08.0
 _ZN13MessageViewer11MailWebView8scrollUpEi@Base 4:15.08.0
 _ZN13MessageViewer11MailWebView9expandUrlERK4QUrl@Base 4:15.08.0
 _ZN13MessageViewer11MailWebView9popupMenuERK4QUrlS3_RK6QPoint@Base 4:15.08.0
 _ZN13MessageViewer11MailWebView9scamCheckEv@Base 4:15.08.0
 _ZN13MessageViewer11MailWebView9selectAllEv@Base 4:15.08.0
 _ZN13MessageViewer11MailWebViewC1EP17KActionCollectionP7QWidget@Base 4:15.08.0
 _ZN13MessageViewer11MailWebViewC2EP17KActionCollectionP7QWidget@Base 4:15.08.0
 _ZN13MessageViewer11MailWebViewD0Ev@Base 4:15.08.0
 _ZN13MessageViewer11MailWebViewD1Ev@Base 4:15.08.0
 _ZN13MessageViewer11MailWebViewD2Ev@Base 4:15.08.0
 _ZN13MessageViewer13CSSHelperBase10quoteColorEi@Base 4:15.08.0
 _ZN13MessageViewer13CSSHelperBase11setBodyFontERK5QFont@Base 4:15.08.0
 _ZN13MessageViewer13CSSHelperBase12setPrintFontERK5QFont@Base 4:15.08.0
 _ZN13MessageViewer13CSSHelperBase20recalculatePGPColorsEv@Base 4:15.08.0
 _ZN13MessageViewer13CSSHelperBaseC1EPK12QPaintDevice@Base 4:15.08.0
 _ZN13MessageViewer13CSSHelperBaseC2EPK12QPaintDevice@Base 4:15.08.0
 _ZN13MessageViewer13EditorWatcher11qt_metacallEN11QMetaObject4CallEiPPv@Base 4:15.08.0
 _ZN13MessageViewer13EditorWatcher11qt_metacastEPKc@Base 4:15.08.0
 _ZN13MessageViewer13EditorWatcher12editorExitedEv@Base 4:15.08.0
 _ZN13MessageViewer13EditorWatcher12inotifyEventEv@Base 4:15.08.0
 _ZN13MessageViewer13EditorWatcher13checkEditDoneEv@Base 4:15.08.0
 _ZN13MessageViewer13EditorWatcher16staticMetaObjectE@Base 4:15.08.0
 _ZN13MessageViewer13EditorWatcher5startEv@Base 4:15.08.0
 _ZN13MessageViewer13EditorWatcher8editDoneEPS0_@Base 4:15.08.0
 _ZN13MessageViewer13EditorWatcherC1ERK4QUrlRK7QStringNS0_14OpenWithOptionEP7QObjectP7QWidget@Base 4:15.08.0
 _ZN13MessageViewer13EditorWatcherC2ERK4QUrlRK7QStringNS0_14OpenWithOptionEP7QObjectP7QWidget@Base 4:15.08.0
 _ZN13MessageViewer13EditorWatcherD0Ev@Base 4:15.08.0
 _ZN13MessageViewer13EditorWatcherD1Ev@Base 4:15.08.0
 _ZN13MessageViewer13EditorWatcherD2Ev@Base 4:15.08.0
 _ZN13MessageViewer13IconNameCache8instanceEv@Base 4:15.08.0
 _ZN13MessageViewer13ScamDetection11qt_metacallEN11QMetaObject4CallEiPPv@Base 4:15.08.0
 _ZN13MessageViewer13ScamDetection11qt_metacastEPKc@Base 4:15.08.0
 _ZN13MessageViewer13ScamDetection11showDetailsEv@Base 4:15.08.0
 _ZN13MessageViewer13ScamDetection16staticMetaObjectE@Base 4:15.08.0
 _ZN13MessageViewer13ScamDetection17messageMayBeAScamEv@Base 4:15.08.0
 _ZN13MessageViewer13ScamDetection8scanPageEP9QWebFrame@Base 4:15.08.0
 _ZN13MessageViewer13ScamDetection9scanFrameERK11QWebElementR7QString@Base 4:15.08.0
 _ZN13MessageViewer13ScamDetectionC1EP7QObject@Base 4:15.08.0
 _ZN13MessageViewer13ScamDetectionC2EP7QObject@Base 4:15.08.0
 _ZN13MessageViewer13ScamDetectionD0Ev@Base 4:15.08.0
 _ZN13MessageViewer13ScamDetectionD1Ev@Base 4:15.08.0
 _ZN13MessageViewer13ScamDetectionD2Ev@Base 4:15.08.0
 _ZN13MessageViewer14AntiSpamConfig10readConfigEv@Base 4:15.08.0
 _ZN13MessageViewer14AntiSpamConfig8instanceEv@Base 4:15.08.0
 _ZN13MessageViewer14AntiSpamConfigC1Ev@Base 4:15.08.0
 _ZN13MessageViewer14AntiSpamConfigC2Ev@Base 4:15.08.0
 _ZN13MessageViewer14AntiSpamConfigD1Ev@Base 4:15.08.0
 _ZN13MessageViewer14AntiSpamConfigD2Ev@Base 4:15.08.0
 _ZN13MessageViewer14FileHtmlWriter10openOrWarnEv@Base 4:15.08.0
 _ZN13MessageViewer14FileHtmlWriter3endEv@Base 4:15.08.0
 _ZN13MessageViewer14FileHtmlWriter5beginERK7QString@Base 4:15.08.0
 _ZN13MessageViewer14FileHtmlWriter5flushEv@Base 4:15.08.0
 _ZN13MessageViewer14FileHtmlWriter5queueERK7QString@Base 4:15.08.0
 _ZN13MessageViewer14FileHtmlWriter5resetEv@Base 4:15.08.0
 _ZN13MessageViewer14FileHtmlWriter5writeERK7QString@Base 4:15.08.0
 _ZN13MessageViewer14FileHtmlWriter9embedPartERK10QByteArrayRK7QString@Base 4:15.08.0
 _ZN13MessageViewer14FileHtmlWriter9extraHeadERK7QString@Base 4:15.08.0
 _ZN13MessageViewer14FileHtmlWriterC1ERK7QString@Base 4:15.08.0
 _ZN13MessageViewer14FileHtmlWriterC2ERK7QString@Base 4:15.08.0
 _ZN13MessageViewer14FileHtmlWriterD0Ev@Base 4:15.08.0
 _ZN13MessageViewer14FileHtmlWriterD1Ev@Base 4:15.08.0
 _ZN13MessageViewer14FileHtmlWriterD2Ev@Base 4:15.08.0
 _ZN13MessageViewer14GlobalSettings11qt_metacallEN11QMetaObject4CallEiPPv@Base 4:15.08.0
 _ZN13MessageViewer14GlobalSettings11qt_metacastEPKc@Base 4:15.08.0
 _ZN13MessageViewer14GlobalSettings11requestSyncEv@Base 4:15.08.0
 _ZN13MessageViewer14GlobalSettings11slotSyncNowEv@Base 4:15.08.0
 _ZN13MessageViewer14GlobalSettings16staticMetaObjectE@Base 4:15.08.0
 _ZN13MessageViewer14GlobalSettings4selfEv@Base 4:15.08.0
 _ZN13MessageViewer14GlobalSettings5mSelfE@Base 4:15.08.0
 _ZN13MessageViewer14GlobalSettingsC1Ev@Base 4:15.08.0
 _ZN13MessageViewer14GlobalSettingsC2Ev@Base 4:15.08.0
 _ZN13MessageViewer14GlobalSettingsD0Ev@Base 4:15.08.0
 _ZN13MessageViewer14GlobalSettingsD1Ev@Base 4:15.08.0
 _ZN13MessageViewer14GlobalSettingsD2Ev@Base 4:15.08.0
 _ZN13MessageViewer14HeaderStrategy10readConfigEv@Base 4:15.08.0
 _ZN13MessageViewer14HeaderStrategy3allEv@Base 4:15.08.0
 _ZN13MessageViewer14HeaderStrategy4richEv@Base 4:15.08.0
 _ZN13MessageViewer14HeaderStrategy5briefEv@Base 4:15.08.0
 _ZN13MessageViewer14HeaderStrategy6createENS0_4TypeE@Base 4:15.08.0
 _ZN13MessageViewer14HeaderStrategy6createERK7QString@Base 4:15.08.0
 _ZN13MessageViewer14HeaderStrategy6customEv@Base 4:15.08.0
 _ZN13MessageViewer14HeaderStrategy8grantleeEv@Base 4:15.08.0
 _ZN13MessageViewer14HeaderStrategy8standardEv@Base 4:15.08.0
 _ZN13MessageViewer14HeaderStrategyC1Ev@Base 4:15.08.0
 _ZN13MessageViewer14HeaderStrategyC2Ev@Base 4:15.08.0
 _ZN13MessageViewer14HeaderStrategyD0Ev@Base 4:15.08.0
 _ZN13MessageViewer14HeaderStrategyD1Ev@Base 4:15.08.0
 _ZN13MessageViewer14HeaderStrategyD2Ev@Base 4:15.08.0
 _ZN13MessageViewer15ConfigureWidget10readConfigEv@Base 4:15.08.0
 _ZN13MessageViewer15ConfigureWidget11qt_metacallEN11QMetaObject4CallEiPPv@Base 4:15.08.0
 _ZN13MessageViewer15ConfigureWidget11qt_metacastEPKc@Base 4:15.08.0
 _ZN13MessageViewer15ConfigureWidget11writeConfigEv@Base 4:15.08.0
 _ZN13MessageViewer15ConfigureWidget15settingsChangedEv@Base 4:15.08.0
 _ZN13MessageViewer15ConfigureWidget16staticMetaObjectE@Base 4:15.08.0
 _ZN13MessageViewer15ConfigureWidget23showCustomHeadersDialogEv@Base 4:15.08.0
 _ZN13MessageViewer15ConfigureWidget24readCurrentFallbackCodecEv@Base 4:15.08.0
 _ZN13MessageViewer15ConfigureWidget24readCurrentOverrideCodecEv@Base 4:15.08.0
 _ZN13MessageViewer15ConfigureWidgetC1EP7QWidget@Base 4:15.08.0
 _ZN13MessageViewer15ConfigureWidgetC2EP7QWidget@Base 4:15.08.0
 _ZN13MessageViewer15ConfigureWidgetD0Ev@Base 4:15.08.0
 _ZN13MessageViewer15ConfigureWidgetD1Ev@Base 4:15.08.0
 _ZN13MessageViewer15ConfigureWidgetD2Ev@Base 4:15.08.0
 _ZN13MessageViewer16ObjectTreeParser10quotedHTMLERK7QStringb@Base 4:15.08.0
 _ZN13MessageViewer16ObjectTreeParser11findTypeNotEPN5KMime7ContentERK10QByteArrayS6_bb@Base 4:15.08.0
 _ZN13MessageViewer16ObjectTreeParser11setPrintingEb@Base 4:15.08.0
 _ZN13MessageViewer16ObjectTreeParser12writeBodyStrERK10QByteArrayPK10QTextCodecRK7QString@Base 4:15.08.0
 _ZN13MessageViewer16ObjectTreeParser12writeBodyStrERK10QByteArrayPK10QTextCodecRK7QStringRNS_19KMMsgSignatureStateERNS_20KMMsgEncryptionStateEb@Base 4:15.08.0
 _ZN13MessageViewer16ObjectTreeParser13okDecryptMIMEERN5KMime7ContentER10QByteArrayRbRSt6vectorIN5GpgME9SignatureESaIS9_EEbS6_S6_S6_RNS_12PartMetaDataE@Base 4:15.08.0
 _ZN13MessageViewer16ObjectTreeParser13writePartIconEPN5KMime7ContentEb@Base 4:15.08.0
 _ZN13MessageViewer16ObjectTreeParser15copyContentFromEPKS0_@Base 4:15.08.0
 _ZN13MessageViewer16ObjectTreeParser15decryptChiasmusERK10QByteArrayRS1_R7QString@Base 4:15.08.0
 _ZN13MessageViewer16ObjectTreeParser15defaultHandlingEPN5KMime7ContentERNS_13ProcessResultE@Base 4:15.08.0
 _ZN13MessageViewer16ObjectTreeParser15parseObjectTreeEPN5KMime7ContentE@Base 4:15.08.0
 _ZN13MessageViewer16ObjectTreeParser15writeBodyStringERK10QByteArrayRK7QStringPK10QTextCodecRNS_13ProcessResultEb@Base 4:15.08.0
 _ZN13MessageViewer16ObjectTreeParser16extractNodeInfosEPN5KMime7ContentEb@Base 4:15.08.0
 _ZN13MessageViewer16ObjectTreeParser16isMailmanMessageEPN5KMime7ContentE@Base 4:15.08.0
 _ZN13MessageViewer16ObjectTreeParser17processToltecMailEPN5KMime7ContentE@Base 4:15.08.0
 _ZN13MessageViewer16ObjectTreeParser17sigStatusToStringEPKN4Kleo13CryptoBackend8ProtocolEiN5GpgME9Signature7SummaryERiRb@Base 4:15.08.0
 _ZN13MessageViewer16ObjectTreeParser18writeSigstatFooterERNS_12PartMetaDataE@Base 4:15.08.0
 _ZN13MessageViewer16ObjectTreeParser18writeSigstatHeaderERNS_12PartMetaDataEPKN4Kleo13CryptoBackend8ProtocolERK7QStringPN5KMime7ContentE@Base 4:15.08.0
 _ZN13MessageViewer16ObjectTreeParser21processMailmanMessageEPN5KMime7ContentE@Base 4:15.08.0
 _ZN13MessageViewer16ObjectTreeParser21standardChildHandlingEPN5KMime7ContentE@Base 4:15.08.0
 _ZN13MessageViewer16ObjectTreeParser22createAndParseTempNodeEPN5KMime7ContentEPKcS5_@Base 4:15.08.0
 _ZN13MessageViewer16ObjectTreeParser22processTextHtmlSubtypeEPN5KMime7ContentERNS_13ProcessResultE@Base 4:15.08.0
 _ZN13MessageViewer16ObjectTreeParser23parseObjectTreeInternalEPN5KMime7ContentE@Base 4:15.08.0
 _ZN13MessageViewer16ObjectTreeParser23processTextPlainSubtypeEPN5KMime7ContentERNS_13ProcessResultE@Base 4:15.08.0
 _ZN13MessageViewer16ObjectTreeParser25writeAttachmentMarkFooterEv@Base 4:15.08.0
 _ZN13MessageViewer16ObjectTreeParser25writeAttachmentMarkHeaderEPN5KMime7ContentE@Base 4:15.08.0
 _ZN13MessageViewer16ObjectTreeParser26containsExternalReferencesERK7QStringS3_@Base 4:15.08.0
 _ZN13MessageViewer16ObjectTreeParser27processMessageRfc822SubtypeEPN5KMime7ContentERNS_13ProcessResultE@Base 4:15.08.0
 _ZN13MessageViewer16ObjectTreeParser28defaultToltecReplacementTextEv@Base 4:15.08.0
 _ZN13MessageViewer16ObjectTreeParser28processMultiPartMixedSubtypeEPN5KMime7ContentERNS_13ProcessResultE@Base 4:15.08.0
 _ZN13MessageViewer16ObjectTreeParser28writeCertificateImportResultERKN5GpgME12ImportResultE@Base 4:15.08.0
 _ZN13MessageViewer16ObjectTreeParser28writeDeferredDecryptionBlockEv@Base 4:15.08.0
 _ZN13MessageViewer16ObjectTreeParser29processMultiPartDigestSubtypeEPN5KMime7ContentERNS_13ProcessResultE@Base 4:15.08.0
 _ZN13MessageViewer16ObjectTreeParser29processMultiPartSignedSubtypeEPN5KMime7ContentERNS_13ProcessResultE@Base 4:15.08.0
 _ZN13MessageViewer16ObjectTreeParser30writeDecryptionInProgressBlockEv@Base 4:15.08.0
 _ZN13MessageViewer16ObjectTreeParser31processMultiPartParallelSubtypeEPN5KMime7ContentERNS_13ProcessResultE@Base 4:15.08.0
 _ZN13MessageViewer16ObjectTreeParser32processMultiPartEncryptedSubtypeEPN5KMime7ContentERNS_13ProcessResultE@Base 4:15.08.0
 _ZN13MessageViewer16ObjectTreeParser32writeOpaqueOrMultipartSignedDataEPN5KMime7ContentERS2_RK7QStringbP10QByteArrayRKSt6vectorIN5GpgME9SignatureESaISC_EEb@Base 4:15.08.0
 _ZN13MessageViewer16ObjectTreeParser34processApplicationPkcs7MimeSubtypeEPN5KMime7ContentERNS_13ProcessResultE@Base 4:15.08.0
 _ZN13MessageViewer16ObjectTreeParser34processMultiPartAlternativeSubtypeEPN5KMime7ContentERNS_13ProcessResultE@Base 4:15.08.0
 _ZN13MessageViewer16ObjectTreeParser36processApplicationOctetStreamSubtypeEPN5KMime7ContentERNS_13ProcessResultE@Base 4:15.08.0
 _ZN13MessageViewer16ObjectTreeParser37processApplicationChiasmusTextSubtypeEPN5KMime7ContentERNS_13ProcessResultE@Base 4:15.08.0
 _ZN13MessageViewer16ObjectTreeParser4initEv@Base 4:15.08.0
 _ZN13MessageViewer16ObjectTreeParser8findTypeEPN5KMime7ContentERK10QByteArrayS6_bb@Base 4:15.08.0
 _ZN13MessageViewer16ObjectTreeParser8findTypeEPN5KMime7ContentERK10QByteArraybb@Base 4:15.08.0
 _ZN13MessageViewer16ObjectTreeParserC1EPKS0_bbbPKNS_18AttachmentStrategyE@Base 4:15.08.0
 _ZN13MessageViewer16ObjectTreeParserC1EPNS_18ObjectTreeSourceIfEPNS_10NodeHelperEPKN4Kleo13CryptoBackend8ProtocolEbbbPKNS_18AttachmentStrategyE@Base 4:15.08.0
 _ZN13MessageViewer16ObjectTreeParserC1ERKS0_@Base 4:15.08.0
 _ZN13MessageViewer16ObjectTreeParserC2EPKS0_bbbPKNS_18AttachmentStrategyE@Base 4:15.08.0
 _ZN13MessageViewer16ObjectTreeParserC2EPNS_18ObjectTreeSourceIfEPNS_10NodeHelperEPKN4Kleo13CryptoBackend8ProtocolEbbbPKNS_18AttachmentStrategyE@Base 4:15.08.0
 _ZN13MessageViewer16ObjectTreeParserC2ERKS0_@Base 4:15.08.0
 _ZN13MessageViewer16ObjectTreeParserD0Ev@Base 4:15.08.0
 _ZN13MessageViewer16ObjectTreeParserD1Ev@Base 4:15.08.0
 _ZN13MessageViewer16ObjectTreeParserD2Ev@Base 4:15.08.0
 _ZN13MessageViewer16PrintingSettings11qt_metacallEN11QMetaObject4CallEiPPv@Base 4:15.08.0
 _ZN13MessageViewer16PrintingSettings11qt_metacastEPKc@Base 4:15.08.0
 _ZN13MessageViewer16PrintingSettings16staticMetaObjectE@Base 4:15.08.0
 _ZN13MessageViewer16PrintingSettings22doResetToDefaultsOtherEv@Base 4:15.08.0
 _ZN13MessageViewer16PrintingSettings24doLoadFromGlobalSettingsEv@Base 4:15.08.0
 _ZN13MessageViewer16PrintingSettings4saveEv@Base 4:15.08.0
 _ZN13MessageViewer16PrintingSettings7changedEv@Base 4:15.08.0
 _ZN13MessageViewer16PrintingSettingsC1EP7QWidget@Base 4:15.08.0
 _ZN13MessageViewer16PrintingSettingsC2EP7QWidget@Base 4:15.08.0
 _ZN13MessageViewer16PrintingSettingsD0Ev@Base 4:15.08.0
 _ZN13MessageViewer16PrintingSettingsD1Ev@Base 4:15.08.0
 _ZN13MessageViewer16PrintingSettingsD2Ev@Base 4:15.08.0
 _ZN13MessageViewer17ScamCheckShortUrl10isShortUrlERK4QUrl@Base 4:15.08.0
 _ZN13MessageViewer17ScamCheckShortUrl11expandedUrlERK4QUrl@Base 4:15.08.0
 _ZN13MessageViewer17ScamCheckShortUrl11qt_metacallEN11QMetaObject4CallEiPPv@Base 4:15.08.0
 _ZN13MessageViewer17ScamCheckShortUrl11qt_metacastEPKc@Base 4:15.08.0
 _ZN13MessageViewer17ScamCheckShortUrl11urlExpandedERK7QStringS3_@Base 4:15.08.0
 _ZN13MessageViewer17ScamCheckShortUrl14expandUrlErrorEN13QNetworkReply12NetworkErrorE@Base 4:15.08.0
 _ZN13MessageViewer17ScamCheckShortUrl16staticMetaObjectE@Base 4:15.08.0
 _ZN13MessageViewer17ScamCheckShortUrl18sSupportedServicesE@Base 4:15.08.0
 _ZN13MessageViewer17ScamCheckShortUrl18slotExpandFinishedEP13QNetworkReply@Base 4:15.08.0
 _ZN13MessageViewer17ScamCheckShortUrl19loadLongUrlServicesEv@Base 4:15.08.0
 _ZN13MessageViewer17ScamCheckShortUrl9slotErrorEN13QNetworkReply12NetworkErrorE@Base 4:15.08.0
 _ZN13MessageViewer17ScamCheckShortUrlC1EP7QObject@Base 4:15.08.0
 _ZN13MessageViewer17ScamCheckShortUrlC2EP7QObject@Base 4:15.08.0
 _ZN13MessageViewer17ScamCheckShortUrlD0Ev@Base 4:15.08.0
 _ZN13MessageViewer17ScamCheckShortUrlD1Ev@Base 4:15.08.0
 _ZN13MessageViewer17ScamCheckShortUrlD2Ev@Base 4:15.08.0
 _ZN13MessageViewer18AttachmentStrategy10headerOnlyEv@Base 4:15.08.0
 _ZN13MessageViewer18AttachmentStrategy5smartEv@Base 4:15.08.0
 _ZN13MessageViewer18AttachmentStrategy6createENS0_4TypeE@Base 4:15.08.0
 _ZN13MessageViewer18AttachmentStrategy6createERK7QString@Base 4:15.08.0
 _ZN13MessageViewer18AttachmentStrategy6hiddenEv@Base 4:15.08.0
 _ZN13MessageViewer18AttachmentStrategy6iconicEv@Base 4:15.08.0
 _ZN13MessageViewer18AttachmentStrategy7inlinedEv@Base 4:15.08.0
 _ZN13MessageViewer18AttachmentStrategyC1Ev@Base 4:15.08.0
 _ZN13MessageViewer18AttachmentStrategyC2Ev@Base 4:15.08.0
 _ZN13MessageViewer18AttachmentStrategyD0Ev@Base 4:15.08.0
 _ZN13MessageViewer18AttachmentStrategyD1Ev@Base 4:15.08.0
 _ZN13MessageViewer18AttachmentStrategyD2Ev@Base 4:15.08.0
 _ZN13MessageViewer18GlobalSettingsBase4selfEv@Base 4:15.08.0
 _ZN13MessageViewer18GlobalSettingsBaseC1Ev@Base 4:15.08.0
 _ZN13MessageViewer18GlobalSettingsBaseC2Ev@Base 4:15.08.0
 _ZN13MessageViewer18GlobalSettingsBaseD0Ev@Base 4:15.08.0
 _ZN13MessageViewer18GlobalSettingsBaseD1Ev@Base 4:15.08.0
 _ZN13MessageViewer18GlobalSettingsBaseD2Ev@Base 4:15.08.0
 _ZN13MessageViewer18InvitationSettings11qt_metacallEN11QMetaObject4CallEiPPv@Base 4:15.08.0
 _ZN13MessageViewer18InvitationSettings11qt_metacastEPKc@Base 4:15.08.0
 _ZN13MessageViewer18InvitationSettings16staticMetaObjectE@Base 4:15.08.0
 _ZN13MessageViewer18InvitationSettings22doResetToDefaultsOtherEv@Base 4:15.08.0
 _ZN13MessageViewer18InvitationSettings24doLoadFromGlobalSettingsEv@Base 4:15.08.0
 _ZN13MessageViewer18InvitationSettings28slotLegacyBodyInvitesToggledEb@Base 4:15.08.0
 _ZN13MessageViewer18InvitationSettings4saveEv@Base 4:15.08.0
 _ZN13MessageViewer18InvitationSettings7changedEv@Base 4:15.08.0
 _ZN13MessageViewer18InvitationSettingsC1EP7QWidget@Base 4:15.08.0
 _ZN13MessageViewer18InvitationSettingsC2EP7QWidget@Base 4:15.08.0
 _ZN13MessageViewer18InvitationSettingsD0Ev@Base 4:15.08.0
 _ZN13MessageViewer18InvitationSettingsD1Ev@Base 4:15.08.0
 _ZN13MessageViewer18InvitationSettingsD2Ev@Base 4:15.08.0
 _ZN13MessageViewer19ChiasmusKeySelector11qt_metacallEN11QMetaObject4CallEiPPv@Base 4:15.08.0
 _ZN13MessageViewer19ChiasmusKeySelector11qt_metacastEPKc@Base 4:15.08.0
 _ZN13MessageViewer19ChiasmusKeySelector16staticMetaObjectE@Base 4:15.08.0
 _ZN13MessageViewer19ChiasmusKeySelector24slotItemSelectionChangedEv@Base 4:15.08.0
 _ZN13MessageViewer19ChiasmusKeySelectorC1EP7QWidgetRK7QStringRK11QStringListS5_S5_@Base 4:15.08.0
 _ZN13MessageViewer19ChiasmusKeySelectorC2EP7QWidgetRK7QStringRK11QStringListS5_S5_@Base 4:15.08.0
 _ZN13MessageViewer19EventDateTimeWidget11qt_metacallEN11QMetaObject4CallEiPPv@Base 4:15.08.0
 _ZN13MessageViewer19EventDateTimeWidget11qt_metacastEPKc@Base 4:15.08.0
 _ZN13MessageViewer19EventDateTimeWidget11setDateTimeERK9QDateTime@Base 4:15.08.0
 _ZN13MessageViewer19EventDateTimeWidget15dateTimeChangedERK9QDateTime@Base 4:15.08.0
 _ZN13MessageViewer19EventDateTimeWidget16staticMetaObjectE@Base 4:15.08.0
 _ZN13MessageViewer19EventDateTimeWidget18setMinimumDateTimeERK9QDateTime@Base 4:15.08.0
 _ZN13MessageViewer19EventDateTimeWidget19slotDateTimeChangedEv@Base 4:15.08.0
 _ZN13MessageViewer19EventDateTimeWidget7setDateERK5QDate@Base 4:15.08.0
 _ZN13MessageViewer19EventDateTimeWidget7setTimeERK5QTime@Base 4:15.08.0
 _ZN13MessageViewer19EventDateTimeWidgetC1EP7QWidget@Base 4:15.08.0
 _ZN13MessageViewer19EventDateTimeWidgetC2EP7QWidget@Base 4:15.08.0
 _ZN13MessageViewer19EventDateTimeWidgetD0Ev@Base 4:15.08.0
 _ZN13MessageViewer19EventDateTimeWidgetD1Ev@Base 4:15.08.0
 _ZN13MessageViewer19EventDateTimeWidgetD2Ev@Base 4:15.08.0
 _ZN13MessageViewer20AdBlockSettingWidget10hasChangedEv@Base 4:15.08.0
 _ZN13MessageViewer20AdBlockSettingWidget10insertRuleEv@Base 4:15.08.0
 _ZN13MessageViewer20AdBlockSettingWidget10removeRuleEv@Base 4:15.08.0
 _ZN13MessageViewer20AdBlockSettingWidget11qt_metacallEN11QMetaObject4CallEiPPv@Base 4:15.08.0
 _ZN13MessageViewer20AdBlockSettingWidget11qt_metacastEPKc@Base 4:15.08.0
 _ZN13MessageViewer20AdBlockSettingWidget12slotShowListEv@Base 4:15.08.0
 _ZN13MessageViewer20AdBlockSettingWidget13slotAddFilterEv@Base 4:15.08.0
 _ZN13MessageViewer20AdBlockSettingWidget14slotDeleteListERK7QString@Base 4:15.08.0
 _ZN13MessageViewer20AdBlockSettingWidget14slotEditFilterEv@Base 4:15.08.0
 _ZN13MessageViewer20AdBlockSettingWidget14updateCheckBoxEv@Base 4:15.08.0
 _ZN13MessageViewer20AdBlockSettingWidget15addManualFilterERK7QString@Base 4:15.08.0
 _ZN13MessageViewer20AdBlockSettingWidget16staticMetaObjectE@Base 4:15.08.0
 _ZN13MessageViewer20AdBlockSettingWidget17slotExportFiltersEv@Base 4:15.08.0
 _ZN13MessageViewer20AdBlockSettingWidget17slotImportFiltersEv@Base 4:15.08.0
 _ZN13MessageViewer20AdBlockSettingWidget17slotUpdateButtonsEv@Base 4:15.08.0
 _ZN13MessageViewer20AdBlockSettingWidget21slotInfoLinkActivatedERK7QString@Base 4:15.08.0
 _ZN13MessageViewer20AdBlockSettingWidget22doResetToDefaultsOtherEv@Base 4:15.08.0
 _ZN13MessageViewer20AdBlockSettingWidget22slotRemoveSubscriptionEv@Base 4:15.08.0
 _ZN13MessageViewer20AdBlockSettingWidget23showAutomaticFilterListEP15QListWidgetItem@Base 4:15.08.0
 _ZN13MessageViewer20AdBlockSettingWidget23slotUpdateManualButtonsEv@Base 4:15.08.0
 _ZN13MessageViewer20AdBlockSettingWidget24doLoadFromGlobalSettingsEv@Base 4:15.08.0
 _ZN13MessageViewer20AdBlockSettingWidget25slotAutomaticFilterDoubleEP15QListWidgetItem@Base 4:15.08.0
 _ZN13MessageViewer20AdBlockSettingWidget35slotManualFilterLineEditTextChangedERK7QString@Base 4:15.08.0
 _ZN13MessageViewer20AdBlockSettingWidget4saveEv@Base 4:15.08.0
 _ZN13MessageViewer20AdBlockSettingWidget7changedEb@Base 4:15.08.0
 _ZN13MessageViewer20AdBlockSettingWidgetC1EP7QWidget@Base 4:15.08.0
 _ZN13MessageViewer20AdBlockSettingWidgetC2EP7QWidget@Base 4:15.08.0
 _ZN13MessageViewer20GravatarConfigWidget11qt_metacallEN11QMetaObject4CallEiPPv@Base 4:15.08.0
 _ZN13MessageViewer20GravatarConfigWidget11qt_metacastEPKc@Base 4:15.08.0
 _ZN13MessageViewer20GravatarConfigWidget13configChangedEb@Base 4:15.08.0
 _ZN13MessageViewer20GravatarConfigWidget16staticMetaObjectE@Base 4:15.08.0
 _ZN13MessageViewer20GravatarConfigWidget17updateWidgetStateEb@Base 4:15.08.0
 _ZN13MessageViewer20GravatarConfigWidget21slotConfigureSettingsEv@Base 4:15.08.0
 _ZN13MessageViewer20GravatarConfigWidget22doResetToDefaultsOtherEv@Base 4:15.08.0
 _ZN13MessageViewer20GravatarConfigWidget24doLoadFromGlobalSettingsEv@Base 4:15.08.0
 _ZN13MessageViewer20GravatarConfigWidget25slotGravatarEnableChangedEb@Base 4:15.08.0
 _ZN13MessageViewer20GravatarConfigWidget4saveEv@Base 4:15.08.0
 _ZN13MessageViewer20GravatarConfigWidgetC1EP7QWidget@Base 4:15.08.0
 _ZN13MessageViewer20GravatarConfigWidgetC2EP7QWidget@Base 4:15.08.0
 _ZN13MessageViewer20GravatarConfigWidgetD0Ev@Base 4:15.08.0
 _ZN13MessageViewer20GravatarConfigWidgetD1Ev@Base 4:15.08.0
 _ZN13MessageViewer20GravatarConfigWidgetD2Ev@Base 4:15.08.0
 _ZN13MessageViewer20_k_noteEditStubModelE@Base 4:15.08.0
 _ZN13MessageViewer20_k_todoEditStubModelE@Base 4:15.08.0
 _ZN13MessageViewer21_k_eventEditStubModelE@Base 4:15.08.0
 _ZN13MessageViewer22MarkMessageReadHandler11qt_metacallEN11QMetaObject4CallEiPPv@Base 4:15.08.0
 _ZN13MessageViewer22MarkMessageReadHandler11qt_metacastEPKc@Base 4:15.08.0
 _ZN13MessageViewer22MarkMessageReadHandler16staticMetaObjectE@Base 4:15.08.0
 _ZN13MessageViewer22MarkMessageReadHandler7Private14handleMessagesEv@Base 4:15.08.0
 _ZN13MessageViewer22MarkMessageReadHandler7setItemERKN7Akonadi4ItemE@Base 4:15.08.0
 _ZN13MessageViewer22MarkMessageReadHandlerC1EP7QObject@Base 4:15.08.0
 _ZN13MessageViewer22MarkMessageReadHandlerC2EP7QObject@Base 4:15.08.0
 _ZN13MessageViewer22MarkMessageReadHandlerD0Ev@Base 4:15.08.0
 _ZN13MessageViewer22MarkMessageReadHandlerD1Ev@Base 4:15.08.0
 _ZN13MessageViewer22MarkMessageReadHandlerD2Ev@Base 4:15.08.0
 _ZN13MessageViewer23GrantleeHeaderTestStyle15setAbsolutePathERK7QString@Base 4:15.08.0
 _ZN13MessageViewer23GrantleeHeaderTestStyle15setMainFilenameERK7QString@Base 4:15.08.0
 _ZN13MessageViewer23GrantleeHeaderTestStyle22setExtraDisplayHeadersERK11QStringList@Base 4:15.08.0
 _ZN13MessageViewer23GrantleeHeaderTestStyleC1Ev@Base 4:15.08.0
 _ZN13MessageViewer23GrantleeHeaderTestStyleC2Ev@Base 4:15.08.0
 _ZN13MessageViewer23GrantleeHeaderTestStyleD0Ev@Base 4:15.08.0
 _ZN13MessageViewer23GrantleeHeaderTestStyleD1Ev@Base 4:15.08.0
 _ZN13MessageViewer23GrantleeHeaderTestStyleD2Ev@Base 4:15.08.0
 _ZN13MessageViewer25CustomHeaderSettingWidget10readConfigEv@Base 4:15.08.0
 _ZN13MessageViewer25CustomHeaderSettingWidget11qt_metacallEN11QMetaObject4CallEiPPv@Base 4:15.08.0
 _ZN13MessageViewer25CustomHeaderSettingWidget11qt_metacastEPKc@Base 4:15.08.0
 _ZN13MessageViewer25CustomHeaderSettingWidget11writeConfigEv@Base 4:15.08.0
 _ZN13MessageViewer25CustomHeaderSettingWidget14resetToDefaultEv@Base 4:15.08.0
 _ZN13MessageViewer25CustomHeaderSettingWidget16staticMetaObjectE@Base 4:15.08.0
 _ZN13MessageViewer25CustomHeaderSettingWidget17slotHeaderClickedEi@Base 4:15.08.0
 _ZN13MessageViewer25CustomHeaderSettingWidget7changedEv@Base 4:15.08.0
 _ZN13MessageViewer25CustomHeaderSettingWidgetC1EP7QWidget@Base 4:15.08.0
 _ZN13MessageViewer25CustomHeaderSettingWidgetC2EP7QWidget@Base 4:15.08.0
 _ZN13MessageViewer25CustomHeaderSettingWidgetD0Ev@Base 4:15.08.0
 _ZN13MessageViewer25CustomHeaderSettingWidgetD1Ev@Base 4:15.08.0
 _ZN13MessageViewer25CustomHeaderSettingWidgetD2Ev@Base 4:15.08.0
 _ZN13MessageViewer26ScamDetectionWarningWidget11qt_metacallEN11QMetaObject4CallEiPPv@Base 4:15.08.0
 _ZN13MessageViewer26ScamDetectionWarningWidget11qt_metacastEPKc@Base 4:15.08.0
 _ZN13MessageViewer26ScamDetectionWarningWidget11showDetailsEv@Base 4:15.08.0
 _ZN13MessageViewer26ScamDetectionWarningWidget14addToWhiteListEv@Base 4:15.08.0
 _ZN13MessageViewer26ScamDetectionWarningWidget15slotShowDetailsERK7QString@Base 4:15.08.0
 _ZN13MessageViewer26ScamDetectionWarningWidget15slotShowWarningEv@Base 4:15.08.0
 _ZN13MessageViewer26ScamDetectionWarningWidget16setUseInTestAppsEb@Base 4:15.08.0
 _ZN13MessageViewer26ScamDetectionWarningWidget16staticMetaObjectE@Base 4:15.08.0
 _ZN13MessageViewer26ScamDetectionWarningWidget17messageIsNotAScamEv@Base 4:15.08.0
 _ZN13MessageViewer26ScamDetectionWarningWidget18moveMessageToTrashEv@Base 4:15.08.0
 _ZN13MessageViewer26ScamDetectionWarningWidget18slotAddToWhiteListEv@Base 4:15.08.0
 _ZN13MessageViewer26ScamDetectionWarningWidget21slotMessageIsNotAScamEv@Base 4:15.08.0
 _ZN13MessageViewer26ScamDetectionWarningWidget24slotDisableScamDetectionEv@Base 4:15.08.0
 _ZN13MessageViewer26ScamDetectionWarningWidgetC1EP7QWidget@Base 4:15.08.0
 _ZN13MessageViewer26ScamDetectionWarningWidgetC2EP7QWidget@Base 4:15.08.0
 _ZN13MessageViewer26ScamDetectionWarningWidgetD0Ev@Base 4:15.08.0
 _ZN13MessageViewer26ScamDetectionWarningWidgetD1Ev@Base 4:15.08.0
 _ZN13MessageViewer26ScamDetectionWarningWidgetD2Ev@Base 4:15.08.0
 _ZN13MessageViewer27AdBlockBlockableItemsWidget11elementTypeENS0_11TypeElementE@Base 4:15.08.0
 _ZN13MessageViewer27AdBlockBlockableItemsWidget11qt_metacallEN11QMetaObject4CallEiPPv@Base 4:15.08.0
 _ZN13MessageViewer27AdBlockBlockableItemsWidget11qt_metacastEPKc@Base 4:15.08.0
 _ZN13MessageViewer27AdBlockBlockableItemsWidget11saveFiltersEv@Base 4:15.08.0
 _ZN13MessageViewer27AdBlockBlockableItemsWidget11setWebFrameEP9QWebFrame@Base 4:15.08.0
 _ZN13MessageViewer27AdBlockBlockableItemsWidget12slotCopyItemEv@Base 4:15.08.0
 _ZN13MessageViewer27AdBlockBlockableItemsWidget12slotOpenItemEv@Base 4:15.08.0
 _ZN13MessageViewer27AdBlockBlockableItemsWidget13slotBlockItemEv@Base 4:15.08.0
 _ZN13MessageViewer27AdBlockBlockableItemsWidget16slotRemoveFilterEv@Base 4:15.08.0
 _ZN13MessageViewer27AdBlockBlockableItemsWidget16staticMetaObjectE@Base 4:15.08.0
 _ZN13MessageViewer27AdBlockBlockableItemsWidget17elementTypeToI18nENS0_11TypeElementE@Base 4:15.08.0
 _ZN13MessageViewer27AdBlockBlockableItemsWidget18slotCopyFilterItemEv@Base 4:15.08.0
 _ZN13MessageViewer27AdBlockBlockableItemsWidget22searchBlockableElementEP9QWebFrame@Base 4:15.08.0
 _ZN13MessageViewer27AdBlockBlockableItemsWidget26customContextMenuRequestedERK6QPoint@Base 4:15.08.0
 _ZN13MessageViewer27AdBlockBlockableItemsWidget8adaptSrcER7QStringRKS1_@Base 4:15.08.0
 _ZN13MessageViewer27AdBlockBlockableItemsWidgetC1EP7QWidget@Base 4:15.08.0
 _ZN13MessageViewer27AdBlockBlockableItemsWidgetC2EP7QWidget@Base 4:15.08.0
 _ZN13MessageViewer27AdBlockBlockableItemsWidgetD0Ev@Base 4:15.08.0
 _ZN13MessageViewer27AdBlockBlockableItemsWidgetD1Ev@Base 4:15.08.0
 _ZN13MessageViewer27AdBlockBlockableItemsWidgetD2Ev@Base 4:15.08.0
 _ZN13MessageViewer29MessageDisplayFormatAttribute11deserializeERK10QByteArray@Base 4:15.08.0
 _ZN13MessageViewer29MessageDisplayFormatAttribute16setMessageFormatENS_6Viewer20DisplayFormatMessageE@Base 4:15.08.0
 _ZN13MessageViewer29MessageDisplayFormatAttribute16setRemoteContentEb@Base 4:15.08.0
 _ZN13MessageViewer29MessageDisplayFormatAttributeC1Ev@Base 4:15.08.0
 _ZN13MessageViewer29MessageDisplayFormatAttributeC2Ev@Base 4:15.08.0
 _ZN13MessageViewer29MessageDisplayFormatAttributeD0Ev@Base 4:15.08.0
 _ZN13MessageViewer29MessageDisplayFormatAttributeD1Ev@Base 4:15.08.0
 _ZN13MessageViewer29MessageDisplayFormatAttributeD2Ev@Base 4:15.08.0
 _ZN13MessageViewer31GravatarConfigureSettingsDialog11qt_metacallEN11QMetaObject4CallEiPPv@Base 4:15.08.0
 _ZN13MessageViewer31GravatarConfigureSettingsDialog11qt_metacastEPKc@Base 4:15.08.0
 _ZN13MessageViewer31GravatarConfigureSettingsDialog16staticMetaObjectE@Base 4:15.08.0
 _ZN13MessageViewer31GravatarConfigureSettingsDialog22slotClearGravatarCacheEv@Base 4:15.08.0
 _ZN13MessageViewer31GravatarConfigureSettingsDialog4loadEv@Base 4:15.08.0
 _ZN13MessageViewer31GravatarConfigureSettingsDialog4saveEv@Base 4:15.08.0
 _ZN13MessageViewer31GravatarConfigureSettingsDialogC1EP7QWidget@Base 4:15.08.0
 _ZN13MessageViewer31GravatarConfigureSettingsDialogC2EP7QWidget@Base 4:15.08.0
 _ZN13MessageViewer31GravatarConfigureSettingsDialogD0Ev@Base 4:15.08.0
 _ZN13MessageViewer31GravatarConfigureSettingsDialogD1Ev@Base 4:15.08.0
 _ZN13MessageViewer31GravatarConfigureSettingsDialogD2Ev@Base 4:15.08.0
 _ZN13MessageViewer4Util11allContentsEPKN5KMime7ContentE@Base 4:15.08.0
 _ZN13MessageViewer4Util11saveContentEP7QWidgetPN5KMime7ContentERK4QUrl@Base 4:15.08.0
 _ZN13MessageViewer4Util12saveContentsEP7QWidgetRK5QListIPN5KMime7ContentEER4KUrl@Base 4:15.08.0
 _ZN13MessageViewer4Util14checkOverwriteERK4QUrlP7QWidget@Base 4:15.08.0
 _ZN13MessageViewer4Util15createAppActionERK28QExplicitlySharedDataPointerI8KServiceEbP12QActionGroupP7QObject@Base 4:15.08.0
 _ZN13MessageViewer4Util15saveAttachmentsERK5QListIPN5KMime7ContentEEP7QWidgetR4KUrl@Base 4:15.08.0
 _ZN13MessageViewer4Util17saveMessageInMboxERK7QVectorIN7Akonadi4ItemEEP7QWidgetb@Base 4:15.08.0
 _ZN13MessageViewer4Util18extractAttachmentsEPKN5KMime7MessageE@Base 4:15.08.0
 _ZN13MessageViewer4Util19fileNameForMimetypeERK7QStringiS3_S3_@Base 4:15.08.0
 _ZN13MessageViewer4Util19getWritePermissionsEv@Base 4:15.08.0
 _ZN13MessageViewer4Util29handleUrlWithQDesktopServicesERK4QUrl@Base 4:15.08.0
 _ZN13MessageViewer4Util8mimetypeERK7QString@Base 4:15.08.0
 _ZN13MessageViewer6KXFace10UnCompressEPciii@Base 4:15.08.0
 _ZN13MessageViewer6KXFace11qt_metacallEN11QMetaObject4CallEiPPv@Base 4:15.08.0
 _ZN13MessageViewer6KXFace11qt_metacastEPKc@Base 4:15.08.0
 _ZN13MessageViewer6KXFace16staticMetaObjectE@Base 4:15.08.0
 _ZN13MessageViewer6KXFace3GenEPc@Base 4:15.08.0
 _ZN13MessageViewer6KXFace4SameEPcii@Base 4:15.08.0
 _ZN13MessageViewer6KXFace6BigAddEh@Base 4:15.08.0
 _ZN13MessageViewer6KXFace6BigDivEhPh@Base 4:15.08.0
 _ZN13MessageViewer6KXFace6BigMulEh@Base 4:15.08.0
 _ZN13MessageViewer6KXFace6BigPopEPK4prob@Base 4:15.08.0
 _ZN13MessageViewer6KXFace7BigPushEP4prob@Base 4:15.08.0
 _ZN13MessageViewer6KXFace7BigReadEPc@Base 4:15.08.0
 _ZN13MessageViewer6KXFace7CompAllEPc@Base 4:15.08.0
 _ZN13MessageViewer6KXFace7GenFaceEv@Base 4:15.08.0
 _ZN13MessageViewer6KXFace7RevPushEPK4prob@Base 4:15.08.0
 _ZN13MessageViewer6KXFace7toImageERK7QString@Base 4:15.08.0
 _ZN13MessageViewer6KXFace8AllBlackEPcii@Base 4:15.08.0
 _ZN13MessageViewer6KXFace8AllWhiteEPcii@Base 4:15.08.0
 _ZN13MessageViewer6KXFace8BigClearEv@Base 4:15.08.0
 _ZN13MessageViewer6KXFace8BigWriteEPc@Base 4:15.08.0
 _ZN13MessageViewer6KXFace8CompressEPciii@Base 4:15.08.0
 _ZN13MessageViewer6KXFace8PopGreysEPcii@Base 4:15.08.0
 _ZN13MessageViewer6KXFace8ReadFaceEPc@Base 4:15.08.0
 _ZN13MessageViewer6KXFace9PushGreysEPcii@Base 4:15.08.0
 _ZN13MessageViewer6KXFace9UnCompAllEPc@Base 4:15.08.0
 _ZN13MessageViewer6KXFace9UnGenFaceEv@Base 4:15.08.0
 _ZN13MessageViewer6KXFace9WriteFaceEv@Base 4:15.08.0
 _ZN13MessageViewer6KXFace9fromImageERK6QImage@Base 4:15.08.0
 _ZN13MessageViewer6KXFaceC1Ev@Base 4:15.08.0
 _ZN13MessageViewer6KXFaceC2Ev@Base 4:15.08.0
 _ZN13MessageViewer6KXFaceD0Ev@Base 4:15.08.0
 _ZN13MessageViewer6KXFaceD1Ev@Base 4:15.08.0
 _ZN13MessageViewer6KXFaceD2Ev@Base 4:15.08.0
 _ZN13MessageViewer6Viewer10blockImageEv@Base 4:15.08.0
 _ZN13MessageViewer6Viewer10closeEventEP11QCloseEvent@Base 4:15.08.0
 _ZN13MessageViewer6Viewer10copyActionEv@Base 4:15.08.0
 _ZN13MessageViewer6Viewer10initializeEv@Base 4:15.08.0
 _ZN13MessageViewer6Viewer10mainWindowEv@Base 4:15.08.0
 _ZN13MessageViewer6Viewer10readConfigEv@Base 4:15.08.0
 _ZN13MessageViewer6Viewer10setAppNameERK7QString@Base 4:15.08.0
 _ZN13MessageViewer6Viewer10setMessageEN5boost10shared_ptrIN5KMime7MessageEEENS0_10UpdateModeE@Base 4:15.08.0
 _ZN13MessageViewer6Viewer10showReaderEPN5KMime7ContentEbRK7QString@Base 4:15.08.0
 _ZN13MessageViewer6Viewer10slotZoomInEv@Base 4:15.08.0
 _ZN13MessageViewer6Viewer10urlClickedERKN7Akonadi4ItemERK4QUrl@Base 4:15.08.0
 _ZN13MessageViewer6Viewer11changeEventEP6QEvent@Base 4:15.08.0
 _ZN13MessageViewer6Viewer11itemRemovedEv@Base 4:15.08.0
 _ZN13MessageViewer6Viewer11qt_metacallEN11QMetaObject4CallEiPPv@Base 4:15.08.0
 _ZN13MessageViewer6Viewer11qt_metacastEPKc@Base 4:15.08.0
 _ZN13MessageViewer6Viewer11resizeEventEP12QResizeEvent@Base 4:15.08.0
 _ZN13MessageViewer6Viewer11setPrintingEb@Base 4:15.08.0
 _ZN13MessageViewer6Viewer11showMessageEN5boost10shared_ptrIN5KMime7MessageEEERK7QString@Base 4:15.08.0
 _ZN13MessageViewer6Viewer11slotZoomOutEv@Base 4:15.08.0
 _ZN13MessageViewer6Viewer11writeConfigEb@Base 4:15.08.0
 _ZN13MessageViewer6Viewer12configWidgetEv@Base 4:15.08.0
 _ZN13MessageViewer6Viewer12printMessageERKN7Akonadi4ItemE@Base 4:15.08.0
 _ZN13MessageViewer6Viewer12printPreviewEv@Base 4:15.08.0
 _ZN13MessageViewer6Viewer12saveAsActionEv@Base 4:15.08.0
 _ZN13MessageViewer6Viewer12slotJumpDownEv@Base 4:15.08.0
 _ZN13MessageViewer6Viewer12slotScrollUpEi@Base 4:15.08.0
 _ZN13MessageViewer6Viewer13copyURLActionEv@Base 4:15.08.0
 _ZN13MessageViewer6Viewer13deleteMessageERKN7Akonadi4ItemE@Base 4:15.08.0
 _ZN13MessageViewer6Viewer13deleteMessageEv@Base 4:15.08.0
 _ZN13MessageViewer6Viewer13setZoomFactorEd@Base 4:15.08.0
 _ZN13MessageViewer6Viewer13slotTranslateEv@Base 4:15.08.0
 _ZN13MessageViewer6Viewer13slotZoomResetEv@Base 4:15.08.0
 _ZN13MessageViewer6Viewer13urlOpenActionEv@Base 4:15.08.0
 _ZN13MessageViewer6Viewer14clearSelectionEv@Base 4:15.08.0
 _ZN13MessageViewer6Viewer14createFetchJobERKN7Akonadi4ItemE@Base 4:15.08.0
 _ZN13MessageViewer6Viewer14setMessageItemERKN7Akonadi4ItemENS0_10UpdateModeE@Base 4:15.08.0
 _ZN13MessageViewer6Viewer14setMessagePartEPN5KMime7ContentE@Base 4:15.08.0
 _ZN13MessageViewer6Viewer14setMessagePathERK7QString@Base 4:15.08.0
 _ZN13MessageViewer6Viewer14slotScrollDownEi@Base 4:15.08.0
 _ZN13MessageViewer6Viewer14slotScrollNextEv@Base 4:15.08.0
 _ZN13MessageViewer6Viewer15selectAllActionEv@Base 4:15.08.0
 _ZN13MessageViewer6Viewer15setUseFixedFontEb@Base 4:15.08.0
 _ZN13MessageViewer6Viewer15setZoomTextOnlyEb@Base 4:15.08.0
 _ZN13MessageViewer6Viewer15slotSaveMessageEv@Base 4:15.08.0
 _ZN13MessageViewer6Viewer15slotScrollPriorEv@Base 4:15.08.0
 _ZN13MessageViewer6Viewer15speakTextActionEv@Base 4:15.08.0
 _ZN13MessageViewer6Viewer15translateActionEv@Base 4:15.08.0
 _ZN13MessageViewer6Viewer16createNoteActionEv@Base 4:15.08.0
 _ZN13MessageViewer6Viewer16createTodoActionEv@Base 4:15.08.0
 _ZN13MessageViewer6Viewer16staticMetaObjectE@Base 4:15.08.0
 _ZN13MessageViewer6Viewer16viewSourceActionEv@Base 4:15.08.0
 _ZN13MessageViewer6Viewer17copyImageLocationEv@Base 4:15.08.0
 _ZN13MessageViewer6Viewer17createEventActionEv@Base 4:15.08.0
 _ZN13MessageViewer6Viewer17displaySplashPageERK7QString@Base 4:15.08.0
 _ZN13MessageViewer6Viewer17requestConfigSyncEv@Base 4:15.08.0
 _ZN13MessageViewer6Viewer17setExternalWindowEb@Base 4:15.08.0
 _ZN13MessageViewer6Viewer18makeResourceOnlineENS0_18ResourceOnlineModeE@Base 4:15.08.0
 _ZN13MessageViewer6Viewer18moveMessageToTrashEv@Base 4:15.08.0
 _ZN13MessageViewer6Viewer18openBlockableItemsEv@Base 4:15.08.0
 _ZN13MessageViewer6Viewer18setScrollBarPolicyEN2Qt11OrientationENS1_15ScrollBarPolicyE@Base 4:15.08.0
 _ZN13MessageViewer6Viewer19findInMessageActionEv@Base 4:15.08.0
 _ZN13MessageViewer6Viewer19printPreviewMessageERKN7Akonadi4ItemE@Base 4:15.08.0
 _ZN13MessageViewer6Viewer19setOverrideEncodingERK7QString@Base 4:15.08.0
 _ZN13MessageViewer6Viewer19shareServiceUrlMenuEv@Base 4:15.08.0
 _ZN13MessageViewer6Viewer19toggleFixFontActionEv@Base 4:15.08.0
 _ZN13MessageViewer6Viewer20enableMessageDisplayEv@Base 4:15.08.0
 _ZN13MessageViewer6Viewer20expandShortUrlActionEv@Base 4:15.08.0
 _ZN13MessageViewer6Viewer20showStatusBarMessageERK7QString@Base 4:15.08.0
 _ZN13MessageViewer6Viewer20slotAttachmentSaveAsEv@Base 4:15.08.0
 _ZN13MessageViewer6Viewer21setAttachmentStrategyEPKNS_18AttachmentStrategyE@Base 4:15.08.0
 _ZN13MessageViewer6Viewer21slotAttachmentSaveAllEv@Base 4:15.08.0
 _ZN13MessageViewer6Viewer21slotChangeDisplayMailENS0_20DisplayFormatMessageEb@Base 4:15.08.0
 _ZN13MessageViewer6Viewer21slotShowMessageSourceEv@Base 4:15.08.0
 _ZN13MessageViewer6Viewer22setHtmlLoadExtOverrideEb@Base 4:15.08.0
 _ZN13MessageViewer6Viewer23addMessageLoadedHandlerEPNS_28AbstractMessageLoadedHandlerE@Base 4:15.08.0
 _ZN13MessageViewer6Viewer24copySelectionToClipboardEv@Base 4:15.08.0
 _ZN13MessageViewer6Viewer24toggleMimePartTreeActionEv@Base 4:15.08.0
 _ZN13MessageViewer6Viewer25setHeaderStyleAndStrategyEPNS_11HeaderStyleEPNS_14HeaderStrategyE@Base 4:15.08.0
 _ZN13MessageViewer6Viewer26removeMessageLoadedHandlerEPNS_28AbstractMessageLoadedHandlerE@Base 4:15.08.0
 _ZN13MessageViewer6Viewer26setDecryptMessageOverwriteEb@Base 4:15.08.0
 _ZN13MessageViewer6Viewer29saveMainFrameScreenshotInFileERK7QString@Base 4:15.08.0
 _ZN13MessageViewer6Viewer30replaceMsgByUnencryptedVersionEv@Base 4:15.08.0
 _ZN13MessageViewer6Viewer30saveMessageDisplayFormatActionEv@Base 4:15.08.0
 _ZN13MessageViewer6Viewer30showOpenAttachmentFolderWidgetERK4QUrl@Base 4:15.08.0
 _ZN13MessageViewer6Viewer31resetMessageDisplayFormatActionEv@Base 4:15.08.0
 _ZN13MessageViewer6Viewer32setDisplayFormatMessageOverwriteENS0_20DisplayFormatMessageE@Base 4:15.08.0
 _ZN13MessageViewer6Viewer5eventEP6QEvent@Base 4:15.08.0
 _ZN13MessageViewer6Viewer5printEv@Base 4:15.08.0
 _ZN13MessageViewer6Viewer6updateENS0_10UpdateModeE@Base 4:15.08.0
 _ZN13MessageViewer6Viewer8slotFindEv@Base 4:15.08.0
 _ZN13MessageViewer6Viewer9popupMenuERKN7Akonadi4ItemERK4QUrlS7_RK6QPoint@Base 4:15.08.0
 _ZN13MessageViewer6Viewer9selectAllEv@Base 4:15.08.0
 _ZN13MessageViewer6ViewerC1EP7QWidgetS2_P17KActionCollection6QFlagsIN2Qt10WindowTypeEE@Base 4:15.08.0
 _ZN13MessageViewer6ViewerC2EP7QWidgetS2_P17KActionCollection6QFlagsIN2Qt10WindowTypeEE@Base 4:15.08.0
 _ZN13MessageViewer6ViewerD0Ev@Base 4:15.08.0
 _ZN13MessageViewer6ViewerD1Ev@Base 4:15.08.0
 _ZN13MessageViewer6ViewerD2Ev@Base 4:15.08.0
 _ZN13MessageViewer8NoteEdit10createNoteERKN5boost10shared_ptrIN5KMime7MessageEEERKN7Akonadi10CollectionE@Base 4:15.08.0
 _ZN13MessageViewer8NoteEdit10readConfigEv@Base 4:15.08.0
 _ZN13MessageViewer8NoteEdit10setMessageERKN5boost10shared_ptrIN5KMime7MessageEEE@Base 4:15.08.0
 _ZN13MessageViewer8NoteEdit11eventFilterEP7QObjectP6QEvent@Base 4:15.08.0
 _ZN13MessageViewer8NoteEdit11qt_metacallEN11QMetaObject4CallEiPPv@Base 4:15.08.0
 _ZN13MessageViewer8NoteEdit11qt_metacastEPKc@Base 4:15.08.0
 _ZN13MessageViewer8NoteEdit11writeConfigEv@Base 4:15.08.0
 _ZN13MessageViewer8NoteEdit12showNoteEditEv@Base 4:15.08.0
 _ZN13MessageViewer8NoteEdit13setCollectionERKN7Akonadi10CollectionE@Base 4:15.08.0
 _ZN13MessageViewer8NoteEdit14messageChangedERKN5boost10shared_ptrIN5KMime7MessageEEE@Base 4:15.08.0
 _ZN13MessageViewer8NoteEdit15slotCloseWidgetEv@Base 4:15.08.0
 _ZN13MessageViewer8NoteEdit16staticMetaObjectE@Base 4:15.08.0
 _ZN13MessageViewer8NoteEdit17collectionChangedERKN7Akonadi10CollectionE@Base 4:15.08.0
 _ZN13MessageViewer8NoteEdit17slotReturnPressedEv@Base 4:15.08.0
 _ZN13MessageViewer8NoteEdit17slotUpdateButtonsERK7QString@Base 4:15.08.0
 _ZN13MessageViewer8NoteEdit21slotCollectionChangedEi@Base 4:15.08.0
 _ZN13MessageViewer8NoteEditC1EP7QWidget@Base 4:15.08.0
 _ZN13MessageViewer8NoteEditC2EP7QWidget@Base 4:15.08.0
 _ZN13MessageViewer8NoteEditD0Ev@Base 4:15.08.0
 _ZN13MessageViewer8NoteEditD1Ev@Base 4:15.08.0
 _ZN13MessageViewer8NoteEditD2Ev@Base 4:15.08.0
 _ZN13MessageViewer8TodoEdit10createTodoERK14QSharedPointerIN8KCalCore4TodoEERKN7Akonadi10CollectionE@Base 4:15.08.0
 _ZN13MessageViewer8TodoEdit10readConfigEv@Base 4:15.08.0
 _ZN13MessageViewer8TodoEdit10setMessageERKN5boost10shared_ptrIN5KMime7MessageEEE@Base 4:15.08.0
 _ZN13MessageViewer8TodoEdit11eventFilterEP7QObjectP6QEvent@Base 4:15.08.0
 _ZN13MessageViewer8TodoEdit11qt_metacallEN11QMetaObject4CallEiPPv@Base 4:15.08.0
 _ZN13MessageViewer8TodoEdit11qt_metacastEPKc@Base 4:15.08.0
 _ZN13MessageViewer8TodoEdit11writeConfigEv@Base 4:15.08.0
 _ZN13MessageViewer8TodoEdit13setCollectionERKN7Akonadi10CollectionE@Base 4:15.08.0
 _ZN13MessageViewer8TodoEdit13updateButtonsERK7QString@Base 4:15.08.0
 _ZN13MessageViewer8TodoEdit14messageChangedERKN5boost10shared_ptrIN5KMime7MessageEEE@Base 4:15.08.0
 _ZN13MessageViewer8TodoEdit14showToDoWidgetEv@Base 4:15.08.0
 _ZN13MessageViewer8TodoEdit14slotOpenEditorEv@Base 4:15.08.0
 _ZN13MessageViewer8TodoEdit14slotTextEditedERK7QString@Base 4:15.08.0
 _ZN13MessageViewer8TodoEdit15slotCloseWidgetEv@Base 4:15.08.0
 _ZN13MessageViewer8TodoEdit16staticMetaObjectE@Base 4:15.08.0
 _ZN13MessageViewer8TodoEdit17collectionChangedERKN7Akonadi10CollectionE@Base 4:15.08.0
 _ZN13MessageViewer8TodoEdit17slotReturnPressedEv@Base 4:15.08.0
 _ZN13MessageViewer8TodoEdit21slotCollectionChangedEi@Base 4:15.08.0
 _ZN13MessageViewer8TodoEditC1EP7QWidget@Base 4:15.08.0
 _ZN13MessageViewer8TodoEditC2EP7QWidget@Base 4:15.08.0
 _ZN13MessageViewer8TodoEditD0Ev@Base 4:15.08.0
 _ZN13MessageViewer8TodoEditD1Ev@Base 4:15.08.0
 _ZN13MessageViewer8TodoEditD2Ev@Base 4:15.08.0
 _ZN13MessageViewer9CSSHelperC1EPK12QPaintDevice@Base 4:15.08.0
 _ZN13MessageViewer9CSSHelperC2EPK12QPaintDevice@Base 4:15.08.0
 _ZN13MessageViewer9EventEdit10readConfigEv@Base 4:15.08.0
 _ZN13MessageViewer9EventEdit10setMessageERKN5boost10shared_ptrIN5KMime7MessageEEE@Base 4:15.08.0
 _ZN13MessageViewer9EventEdit11createEventERK14QSharedPointerIN8KCalCore5EventEERKN7Akonadi10CollectionE@Base 4:15.08.0
 _ZN13MessageViewer9EventEdit11eventFilterEP7QObjectP6QEvent@Base 4:15.08.0
 _ZN13MessageViewer9EventEdit11qt_metacallEN11QMetaObject4CallEiPPv@Base 4:15.08.0
 _ZN13MessageViewer9EventEdit11qt_metacastEPKc@Base 4:15.08.0
 _ZN13MessageViewer9EventEdit11writeConfigEv@Base 4:15.08.0
 _ZN13MessageViewer9EventEdit13setCollectionERKN7Akonadi10CollectionE@Base 4:15.08.0
 _ZN13MessageViewer9EventEdit13showEventEditEv@Base 4:15.08.0
 _ZN13MessageViewer9EventEdit14messageChangedERKN5boost10shared_ptrIN5KMime7MessageEEE@Base 4:15.08.0
 _ZN13MessageViewer9EventEdit14slotOpenEditorEv@Base 4:15.08.0
 _ZN13MessageViewer9EventEdit15slotCloseWidgetEv@Base 4:15.08.0
 _ZN13MessageViewer9EventEdit16staticMetaObjectE@Base 4:15.08.0
 _ZN13MessageViewer9EventEdit17collectionChangedERKN7Akonadi10CollectionE@Base 4:15.08.0
 _ZN13MessageViewer9EventEdit17slotReturnPressedEv@Base 4:15.08.0
 _ZN13MessageViewer9EventEdit17slotUpdateButtonsERK7QString@Base 4:15.08.0
 _ZN13MessageViewer9EventEdit21slotCollectionChangedEi@Base 4:15.08.0
 _ZN13MessageViewer9EventEdit22slotEndDateTimeChangedERK9QDateTime@Base 4:15.08.0
 _ZN13MessageViewer9EventEdit24slotStartDateTimeChangedERK9QDateTime@Base 4:15.08.0
 _ZN13MessageViewer9EventEditC1EP7QWidget@Base 4:15.08.0
 _ZN13MessageViewer9EventEditC2EP7QWidget@Base 4:15.08.0
 _ZN13MessageViewer9EventEditD0Ev@Base 4:15.08.0
 _ZN13MessageViewer9EventEditD1Ev@Base 4:15.08.0
 _ZN13MessageViewer9EventEditD2Ev@Base 4:15.08.0
 (optional=templinst)_ZN5KMime7Content6headerINS_7Headers7SubjectEEEPT_b@Base 4:15.08.0
 (optional=templinst)_ZN7Akonadi4Item14setPayloadImplI14QSharedPointerIN8KCalCore9IncidenceEEEENSt9enable_ifIXntsrNS_8Internal12PayloadTraitIT_EE13isPolymorphicEvE4typeERKS9_@Base 4:15.08.0
 (optional=templinst)_ZN7Akonadi4Item14setPayloadImplIN5boost10shared_ptrIN5KMime7MessageEEEEENSt9enable_ifIXntsrNS_8Internal12PayloadTraitIT_EE13isPolymorphicEvE4typeERKSA_@Base 4:15.08.0
 (optional=templinst)_ZNK12KConfigGroup9readEntryI10QByteArrayEET_PKcRKS2_@Base 4:15.08.0
 (optional=templinst)_ZNK12KConfigGroup9readEntryI5QFontEET_PKcRKS2_@Base 4:15.08.0
 (optional=templinst)_ZNK12KConfigGroup9readEntryI5QSizeEET_PKcRKS2_@Base 4:15.08.0
 (optional=templinst)_ZNK12KConfigGroup9readEntryI6QColorEET_PKcRKS2_@Base 4:15.08.0
 (optional=templinst)_ZNK12KConfigGroup9readEntryIbEET_PKcRKS1_@Base 4:15.08.0
 (optional=templinst)_ZNK12KConfigGroup9readEntryIiEET_PKcRKS1_@Base 4:15.08.0
 _ZNK13MessageViewer10NodeHelper13extraContentsEPN5KMime7ContentE@Base 4:15.08.0
 _ZNK13MessageViewer10NodeHelper13nodeProcessedEPN5KMime7ContentE@Base 4:15.08.0
 _ZNK13MessageViewer10NodeHelper14signatureStateEPN5KMime7ContentE@Base 4:15.08.0
 _ZNK13MessageViewer10NodeHelper15bodyPartMementoEPN5KMime7ContentERK10QByteArray@Base 4:15.08.0
 _ZNK13MessageViewer10NodeHelper15encryptionStateEPN5KMime7ContentE@Base 4:15.08.0
 _ZNK13MessageViewer10NodeHelper15persistentIndexEPKN5KMime7ContentE@Base 4:15.08.0
 _ZNK13MessageViewer10NodeHelper21isNodeDisplayedHiddenEPN5KMime7ContentE@Base 4:15.08.0
 _ZNK13MessageViewer10NodeHelper21overallSignatureStateEPN5KMime7ContentE@Base 4:15.08.0
 _ZNK13MessageViewer10NodeHelper22overallEncryptionStateEPN5KMime7ContentE@Base 4:15.08.0
 _ZNK13MessageViewer10NodeHelper23decryptedNodeForContentEPN5KMime7ContentE@Base 4:15.08.0
 _ZNK13MessageViewer10NodeHelper23isNodeDisplayedEmbeddedEPN5KMime7ContentE@Base 4:15.08.0
 _ZNK13MessageViewer10NodeHelper27isPermanentWithExtraContentEPN5KMime7ContentE@Base 4:15.08.0
 _ZNK13MessageViewer11HeaderStyle22hasAttachmentQuickListEv@Base 4:15.08.0
 _ZNK13MessageViewer11MailWebView10htmlSourceEv@Base 4:15.08.0
 _ZNK13MessageViewer11MailWebView10metaObjectEv@Base 4:15.08.0
 _ZNK13MessageViewer11MailWebView11isAShortUrlERK4QUrl@Base 4:15.08.0
 _ZNK13MessageViewer11MailWebView12selectedTextEv@Base 4:15.08.0
 _ZNK13MessageViewer11MailWebView15scrollBarPolicyEN2Qt11OrientationE@Base 4:15.08.0
 _ZNK13MessageViewer11MailWebView16linkOrImageUrlAtERK6QPoint@Base 4:15.08.0
 _ZNK13MessageViewer11MailWebView16relativePositionEv@Base 4:15.08.0
 _ZNK13MessageViewer11MailWebView18isScrolledToBottomEv@Base 4:15.08.0
 _ZNK13MessageViewer11MailWebView20hasVerticalScrollBarEv@Base 4:15.08.0
 _ZNK13MessageViewer11MailWebView26isAttachmentInjectionPointERK6QPoint@Base 4:15.08.0
 _ZNK13MessageViewer13CSSHelperBase12pgpWarnColorEv@Base 4:15.08.0
 _ZNK13MessageViewer13CSSHelperBase12quoteFontTagEi@Base 4:15.08.0
 _ZNK13MessageViewer13CSSHelperBase14cssDefinitionsEb@Base 4:15.08.0
 _ZNK13MessageViewer13CSSHelperBase16nonQuotedFontTagEv@Base 4:15.08.0
 _ZNK13MessageViewer13CSSHelperBase19printCssDefinitionsEb@Base 4:15.08.0
 _ZNK13MessageViewer13CSSHelperBase20commonCssDefinitionsEv@Base 4:15.08.0
 _ZNK13MessageViewer13CSSHelperBase20screenCssDefinitionsEPKS0_b@Base 4:15.08.0
 _ZNK13MessageViewer13CSSHelperBase8bodyFontEbb@Base 4:15.08.0
 _ZNK13MessageViewer13CSSHelperBase8fontSizeEbb@Base 4:15.08.0
 _ZNK13MessageViewer13CSSHelperBase8htmlHeadEb@Base 4:15.08.0
 _ZNK13MessageViewer13EditorWatcher10metaObjectEv@Base 4:15.08.0
 _ZNK13MessageViewer13EditorWatcher11fileChangedEv@Base 4:15.08.0
 _ZNK13MessageViewer13EditorWatcher3urlEv@Base 4:15.08.0
 _ZNK13MessageViewer13IconNameCache5EntryltERKS1_@Base 4:15.08.0
 _ZNK13MessageViewer13IconNameCache8iconPathERK7QStringi@Base 4:15.08.0
 _ZNK13MessageViewer13ScamDetection10metaObjectEv@Base 4:15.08.0
 _ZNK13MessageViewer13ScamDetection17scamCheckShortUrlEv@Base 4:15.08.0
 _ZNK13MessageViewer14AntiSpamConfig12uniqueAgentsEv@Base 4:15.08.0
 _ZNK13MessageViewer14GlobalSettings10metaObjectEv@Base 4:15.08.0
 _ZNK13MessageViewer14HeaderStrategy10showHeaderERK7QString@Base 4:15.08.0
 _ZNK13MessageViewer14HeaderStrategy13headersToHideEv@Base 4:15.08.0
 _ZNK13MessageViewer14HeaderStrategy16headersToDisplayEv@Base 4:15.08.0
 _ZNK13MessageViewer15ConfigureWidget10metaObjectEv@Base 4:15.08.0
 _ZNK13MessageViewer16ObjectTreeParser18looksLikeParaBreakERK7QStringj@Base 4:15.08.0
 _ZNK13MessageViewer16ObjectTreeParser20convertedHtmlContentEv@Base 4:15.08.0
 _ZNK13MessageViewer16ObjectTreeParser20convertedTextContentEv@Base 4:15.08.0
 _ZNK13MessageViewer16ObjectTreeParser8codecForEPN5KMime7ContentE@Base 4:15.08.0
 _ZNK13MessageViewer16PrintingSettings10metaObjectEv@Base 4:15.08.0
 _ZNK13MessageViewer17ScamCheckShortUrl10metaObjectEv@Base 4:15.08.0
 _ZNK13MessageViewer18InvitationSettings10helpAnchorEv@Base 4:15.08.0
 _ZNK13MessageViewer18InvitationSettings10metaObjectEv@Base 4:15.08.0
 _ZNK13MessageViewer19ChiasmusKeySelector10metaObjectEv@Base 4:15.08.0
 _ZNK13MessageViewer19ChiasmusKeySelector3keyEv@Base 4:15.08.0
 _ZNK13MessageViewer19ChiasmusKeySelector7optionsEv@Base 4:15.08.0
 _ZNK13MessageViewer19EventDateTimeWidget10metaObjectEv@Base 4:15.08.0
 _ZNK13MessageViewer19EventDateTimeWidget4dateEv@Base 4:15.08.0
 _ZNK13MessageViewer19EventDateTimeWidget4timeEv@Base 4:15.08.0
 _ZNK13MessageViewer19EventDateTimeWidget8dateTimeEv@Base 4:15.08.0
 _ZNK13MessageViewer20AdBlockSettingWidget10metaObjectEv@Base 4:15.08.0
 _ZNK13MessageViewer20AdBlockSettingWidget7changedEv@Base 4:15.08.0
 _ZNK13MessageViewer20GravatarConfigWidget10metaObjectEv@Base 4:15.08.0
 _ZNK13MessageViewer22MarkMessageReadHandler10metaObjectEv@Base 4:15.08.0
 _ZNK13MessageViewer23GrantleeHeaderTestStyle6formatEPN5KMime7MessageE@Base 4:15.08.0
 _ZNK13MessageViewer25CustomHeaderSettingWidget10metaObjectEv@Base 4:15.08.0
 _ZNK13MessageViewer26ScamDetectionWarningWidget10metaObjectEv@Base 4:15.08.0
 _ZNK13MessageViewer27AdBlockBlockableItemsWidget10metaObjectEv@Base 4:15.08.0
 _ZNK13MessageViewer29MessageDisplayFormatAttribute10serializedEv@Base 4:15.08.0
 _ZNK13MessageViewer29MessageDisplayFormatAttribute13messageFormatEv@Base 4:15.08.0
 _ZNK13MessageViewer29MessageDisplayFormatAttribute13remoteContentEv@Base 4:15.08.0
 _ZNK13MessageViewer29MessageDisplayFormatAttribute4typeEv@Base 4:15.08.0
 _ZNK13MessageViewer29MessageDisplayFormatAttribute5cloneEv@Base 4:15.08.0
 _ZNK13MessageViewer29MessageDisplayFormatAttributeeqERKS0_@Base 4:15.08.0
 _ZNK13MessageViewer31GravatarConfigureSettingsDialog10metaObjectEv@Base 4:15.08.0
 _ZNK13MessageViewer6KXFace10metaObjectEv@Base 4:15.08.0
 _ZNK13MessageViewer6Viewer10metaObjectEv@Base 4:15.08.0
 _ZNK13MessageViewer6Viewer10urlClickedEv@Base 4:15.08.0
 _ZNK13MessageViewer6Viewer11headerStyleEv@Base 4:15.08.0
 _ZNK13MessageViewer6Viewer11isAShortUrlERK4QUrl@Base 4:15.08.0
 _ZNK13MessageViewer6Viewer11isFixedFontEv@Base 4:15.08.0
 _ZNK13MessageViewer6Viewer11messageItemEv@Base 4:15.08.0
 _ZNK13MessageViewer6Viewer11messagePathEv@Base 4:15.08.0
 _ZNK13MessageViewer6Viewer12selectedTextEv@Base 4:15.08.0
 _ZNK13MessageViewer6Viewer12zoomTextOnlyEv@Base 4:15.08.0
 _ZNK13MessageViewer6Viewer14adblockEnabledEv@Base 4:15.08.0
 _ZNK13MessageViewer6Viewer14headerStrategyEv@Base 4:15.08.0
 _ZNK13MessageViewer6Viewer15imageUrlClickedEv@Base 4:15.08.0
 _ZNK13MessageViewer6Viewer16htmlLoadExternalEv@Base 4:15.08.0
 _ZNK13MessageViewer6Viewer16messageTreeModelEv@Base 4:15.08.0
 _ZNK13MessageViewer6Viewer16overrideEncodingEv@Base 4:15.08.0
 _ZNK13MessageViewer6Viewer18attachmentStrategyEv@Base 4:15.08.0
 _ZNK13MessageViewer6Viewer19htmlLoadExtOverrideEv@Base 4:15.08.0
 _ZNK13MessageViewer6Viewer19mimePartTreeIsEmptyEv@Base 4:15.08.0
 _ZNK13MessageViewer6Viewer29displayFormatMessageOverwriteEv@Base 4:15.08.0
 _ZNK13MessageViewer6Viewer7messageEv@Base 4:15.08.0
 _ZNK13MessageViewer6Viewer8atBottomEv@Base 4:15.08.0
 _ZNK13MessageViewer6Viewer8htmlMailEv@Base 4:15.08.0
 _ZNK13MessageViewer6Viewer9cssHelperEv@Base 4:15.08.0
 _ZNK13MessageViewer8NoteEdit10collectionEv@Base 4:15.08.0
 _ZNK13MessageViewer8NoteEdit10metaObjectEv@Base 4:15.08.0
 _ZNK13MessageViewer8NoteEdit7messageEv@Base 4:15.08.0
 _ZNK13MessageViewer8TodoEdit10collectionEv@Base 4:15.08.0
 _ZNK13MessageViewer8TodoEdit10metaObjectEv@Base 4:15.08.0
 _ZNK13MessageViewer8TodoEdit7messageEv@Base 4:15.08.0
 _ZNK13MessageViewer9CSSHelper8htmlHeadEb@Base 4:15.08.0
 _ZNK13MessageViewer9EventEdit10collectionEv@Base 4:15.08.0
 _ZNK13MessageViewer9EventEdit10metaObjectEv@Base 4:15.08.0
 _ZNK13MessageViewer9EventEdit7messageEv@Base 4:15.08.0
 (optional=templinst)_ZNK7Akonadi4Item10hasPayloadIN5boost10shared_ptrIN5KMime7MessageEEEEEbv@Base 4:15.08.0
 (optional=templinst)_ZNK7Akonadi4Item11payloadImplIN5boost10shared_ptrIN5KMime7MessageEEEEENSt9enable_ifIXntsrNS_8Internal12PayloadTraitIT_EE13isPolymorphicESA_E4typeEv@Base 4:15.08.0
 (optional=templinst)_ZNK7Akonadi4Item14hasPayloadImplIN5boost10shared_ptrIN5KMime7MessageEEEEENSt9enable_ifIXntsrNS_8Internal12PayloadTraitIT_EE13isPolymorphicEbE4typeEv@Base 4:15.08.0
 (optional=templinst)_ZNK7Akonadi4Item14tryToCloneImplIN5boost10shared_ptrIN5KMime7MessageEEE14QSharedPointerIS5_EEENSt9enable_ifIXntsrSt7is_sameIT_T0_E5valueEbE4typeEPSB_PKi@Base 4:15.08.0
 (optional=templinst)_ZNK7Akonadi4Item7payloadIN5boost10shared_ptrIN5KMime7MessageEEEEET_v@Base 4:15.08.0
 (optional=templinst)_ZNSt6vectorIN5GpgME3KeyESaIS1_EED1Ev@Base 4:15.08.0
 (optional=templinst)_ZNSt6vectorIN5GpgME3KeyESaIS1_EED2Ev@Base 4:15.08.0
 (optional=templinst)_ZNSt6vectorIN5GpgME6ImportESaIS1_EED1Ev@Base 4:15.08.0
 (optional=templinst)_ZNSt6vectorIN5GpgME6ImportESaIS1_EED2Ev@Base 4:15.08.0
 (optional=templinst)_ZNSt6vectorIN5GpgME9SignatureESaIS1_EED1Ev@Base 4:15.08.0
 (optional=templinst)_ZNSt6vectorIN5GpgME9SignatureESaIS1_EED2Ev@Base 4:15.08.0
 (optional=templinst)_ZNSt6vectorIN5GpgME9SignatureESaIS1_EEaSERKS3_@Base 4:15.08.0
 _ZTIN13MessageViewer11EmptySourceE@Base 4:15.08.0
 _ZTIN13MessageViewer11HeaderStyleE@Base 4:15.08.0
 _ZTIN13MessageViewer11MailWebViewE@Base 4:15.08.0
 _ZTIN13MessageViewer13EditorWatcherE@Base 4:15.08.0
 _ZTIN13MessageViewer13ScamDetectionE@Base 4:15.08.0
 _ZTIN13MessageViewer14FileHtmlWriterE@Base 4:15.08.0
 _ZTIN13MessageViewer14GlobalSettingsE@Base 4:15.08.0
 _ZTIN13MessageViewer14HeaderStrategyE@Base 4:15.08.0
 _ZTIN13MessageViewer15ConfigureWidgetE@Base 4:15.08.0
 _ZTIN13MessageViewer16ObjectTreeParserE@Base 4:15.08.0
 _ZTIN13MessageViewer16PrintingSettingsE@Base 4:15.08.0
 _ZTIN13MessageViewer17ScamCheckShortUrlE@Base 4:15.08.0
 _ZTIN13MessageViewer18AttachmentStrategyE@Base 4:15.08.0
 _ZTIN13MessageViewer18GlobalSettingsBaseE@Base 4:15.08.0
 _ZTIN13MessageViewer18InvitationSettingsE@Base 4:15.08.0
 _ZTIN13MessageViewer18ObjectTreeSourceIfE@Base 4:15.08.0
 _ZTIN13MessageViewer19ChiasmusKeySelectorE@Base 4:15.08.0
 _ZTIN13MessageViewer19EventDateTimeWidgetE@Base 4:15.08.0
 _ZTIN13MessageViewer20AdBlockSettingWidgetE@Base 4:15.08.0
 _ZTIN13MessageViewer20GravatarConfigWidgetE@Base 4:15.08.0
 _ZTIN13MessageViewer22MarkMessageReadHandlerE@Base 4:15.08.0
 _ZTIN13MessageViewer23GrantleeHeaderTestStyleE@Base 4:15.08.0
 _ZTIN13MessageViewer25CustomHeaderSettingWidgetE@Base 4:15.08.0
 _ZTIN13MessageViewer26ScamDetectionWarningWidgetE@Base 4:15.08.0
 _ZTIN13MessageViewer27AdBlockBlockableItemsWidgetE@Base 4:15.08.0
 _ZTIN13MessageViewer29MessageDisplayFormatAttributeE@Base 4:15.08.0
 _ZTIN13MessageViewer31GravatarConfigureSettingsDialogE@Base 4:15.08.0
 _ZTIN13MessageViewer6KXFaceE@Base 4:15.08.0
 _ZTIN13MessageViewer6ViewerE@Base 4:15.08.0
 _ZTIN13MessageViewer8NoteEditE@Base 4:15.08.0
 _ZTIN13MessageViewer8TodoEditE@Base 4:15.08.0
 _ZTIN13MessageViewer9EventEditE@Base 4:15.08.0
 _ZTIN5boost16exception_detail10clone_baseE@Base 4:15.08.0
 _ZTIN5boost9exceptionE@Base 4:15.08.0
 _ZTSN13MessageViewer11EmptySourceE@Base 4:15.08.0
 _ZTSN13MessageViewer11HeaderStyleE@Base 4:15.08.0
 _ZTSN13MessageViewer11MailWebViewE@Base 4:15.08.0
 _ZTSN13MessageViewer13EditorWatcherE@Base 4:15.08.0
 _ZTSN13MessageViewer13ScamDetectionE@Base 4:15.08.0
 _ZTSN13MessageViewer14FileHtmlWriterE@Base 4:15.08.0
 _ZTSN13MessageViewer14GlobalSettingsE@Base 4:15.08.0
 _ZTSN13MessageViewer14HeaderStrategyE@Base 4:15.08.0
 _ZTSN13MessageViewer15ConfigureWidgetE@Base 4:15.08.0
 _ZTSN13MessageViewer16ObjectTreeParserE@Base 4:15.08.0
 _ZTSN13MessageViewer16PrintingSettingsE@Base 4:15.08.0
 _ZTSN13MessageViewer17ScamCheckShortUrlE@Base 4:15.08.0
 _ZTSN13MessageViewer18AttachmentStrategyE@Base 4:15.08.0
 _ZTSN13MessageViewer18GlobalSettingsBaseE@Base 4:15.08.0
 _ZTSN13MessageViewer18InvitationSettingsE@Base 4:15.08.0
 _ZTSN13MessageViewer18ObjectTreeSourceIfE@Base 4:15.08.0
 _ZTSN13MessageViewer19ChiasmusKeySelectorE@Base 4:15.08.0
 _ZTSN13MessageViewer19EventDateTimeWidgetE@Base 4:15.08.0
 _ZTSN13MessageViewer20AdBlockSettingWidgetE@Base 4:15.08.0
 _ZTSN13MessageViewer20GravatarConfigWidgetE@Base 4:15.08.0
 _ZTSN13MessageViewer22MarkMessageReadHandlerE@Base 4:15.08.0
 _ZTSN13MessageViewer23GrantleeHeaderTestStyleE@Base 4:15.08.0
 _ZTSN13MessageViewer25CustomHeaderSettingWidgetE@Base 4:15.08.0
 _ZTSN13MessageViewer26ScamDetectionWarningWidgetE@Base 4:15.08.0
 _ZTSN13MessageViewer27AdBlockBlockableItemsWidgetE@Base 4:15.08.0
 _ZTSN13MessageViewer29MessageDisplayFormatAttributeE@Base 4:15.08.0
 _ZTSN13MessageViewer31GravatarConfigureSettingsDialogE@Base 4:15.08.0
 _ZTSN13MessageViewer6KXFaceE@Base 4:15.08.0
 _ZTSN13MessageViewer6ViewerE@Base 4:15.08.0
 _ZTSN13MessageViewer8NoteEditE@Base 4:15.08.0
 _ZTSN13MessageViewer8TodoEditE@Base 4:15.08.0
 _ZTSN13MessageViewer9EventEditE@Base 4:15.08.0
 _ZTSN5boost16exception_detail10clone_baseE@Base 4:15.08.0
 _ZTSN5boost9exceptionE@Base 4:15.08.0
 _ZTVN13MessageViewer11EmptySourceE@Base 4:15.08.0
 _ZTVN13MessageViewer11HeaderStyleE@Base 4:15.08.0
 _ZTVN13MessageViewer11MailWebViewE@Base 4:15.08.0
 _ZTVN13MessageViewer13EditorWatcherE@Base 4:15.08.0
 _ZTVN13MessageViewer13ScamDetectionE@Base 4:15.08.0
 _ZTVN13MessageViewer14FileHtmlWriterE@Base 4:15.08.0
 _ZTVN13MessageViewer14GlobalSettingsE@Base 4:15.08.0
 _ZTVN13MessageViewer14HeaderStrategyE@Base 4:15.08.0
 _ZTVN13MessageViewer15ConfigureWidgetE@Base 4:15.08.0
 _ZTVN13MessageViewer16ObjectTreeParserE@Base 4:15.08.0
 _ZTVN13MessageViewer16PrintingSettingsE@Base 4:15.08.0
 _ZTVN13MessageViewer17ScamCheckShortUrlE@Base 4:15.08.0
 _ZTVN13MessageViewer18AttachmentStrategyE@Base 4:15.08.0
 _ZTVN13MessageViewer18GlobalSettingsBaseE@Base 4:15.08.0
 _ZTVN13MessageViewer18InvitationSettingsE@Base 4:15.08.0
 _ZTVN13MessageViewer19ChiasmusKeySelectorE@Base 4:15.08.0
 _ZTVN13MessageViewer19EventDateTimeWidgetE@Base 4:15.08.0
 _ZTVN13MessageViewer20AdBlockSettingWidgetE@Base 4:15.08.0
 _ZTVN13MessageViewer20GravatarConfigWidgetE@Base 4:15.08.0
 _ZTVN13MessageViewer22MarkMessageReadHandlerE@Base 4:15.08.0
 _ZTVN13MessageViewer23GrantleeHeaderTestStyleE@Base 4:15.08.0
 _ZTVN13MessageViewer25CustomHeaderSettingWidgetE@Base 4:15.08.0
 _ZTVN13MessageViewer26ScamDetectionWarningWidgetE@Base 4:15.08.0
 _ZTVN13MessageViewer27AdBlockBlockableItemsWidgetE@Base 4:15.08.0
 _ZTVN13MessageViewer29MessageDisplayFormatAttributeE@Base 4:15.08.0
 _ZTVN13MessageViewer31GravatarConfigureSettingsDialogE@Base 4:15.08.0
 _ZTVN13MessageViewer6KXFaceE@Base 4:15.08.0
 _ZTVN13MessageViewer6ViewerE@Base 4:15.08.0
 _ZTVN13MessageViewer8NoteEditE@Base 4:15.08.0
 _ZTVN13MessageViewer8TodoEditE@Base 4:15.08.0
 _ZTVN13MessageViewer9EventEditE@Base 4:15.08.0
 _ZTVN5boost16exception_detail10clone_baseE@Base 4:15.08.0
 _ZTVN5boost9exceptionE@Base 4:15.08.0
 (c++)"non-virtual thunk to MessageViewer::AdBlockBlockableItemsWidget::~AdBlockBlockableItemsWidget()@Base" 4:15.08.0
 (c++)"non-virtual thunk to MessageViewer::ConfigureWidget::~ConfigureWidget()@Base" 4:15.08.0
 (c++)"non-virtual thunk to MessageViewer::CustomHeaderSettingWidget::~CustomHeaderSettingWidget()@Base" 4:15.08.0
 (c++)"non-virtual thunk to MessageViewer::EventDateTimeWidget::~EventDateTimeWidget()@Base" 4:15.08.0
 (c++)"non-virtual thunk to MessageViewer::EventEdit::~EventEdit()@Base" 4:15.08.0
 (c++)"non-virtual thunk to MessageViewer::GravatarConfigWidget::~GravatarConfigWidget()@Base" 4:15.08.0
 (c++)"non-virtual thunk to MessageViewer::GravatarConfigureSettingsDialog::~GravatarConfigureSettingsDialog()@Base" 4:15.08.0
 (c++)"non-virtual thunk to MessageViewer::InvitationSettings::~InvitationSettings()@Base" 4:15.08.0
 (c++)"non-virtual thunk to MessageViewer::MailWebView::~MailWebView()@Base" 4:15.08.0
 (c++)"non-virtual thunk to MessageViewer::MarkMessageReadHandler::setItem(Akonadi::Item const&)@Base" 4:15.08.0
 (c++)"non-virtual thunk to MessageViewer::MarkMessageReadHandler::~MarkMessageReadHandler()@Base" 4:15.08.0
 (c++)"non-virtual thunk to MessageViewer::NoteEdit::~NoteEdit()@Base" 4:15.08.0
 (c++)"non-virtual thunk to MessageViewer::PrintingSettings::~PrintingSettings()@Base" 4:15.08.0
 (c++)"non-virtual thunk to MessageViewer::ScamDetectionWarningWidget::~ScamDetectionWarningWidget()@Base" 4:15.08.0
 (c++)"non-virtual thunk to MessageViewer::TodoEdit::~TodoEdit()@Base" 4:15.08.0
 (c++)"non-virtual thunk to MessageViewer::Viewer::~Viewer()@Base" 4:15.08.0
messageviewer_bodypartformatter_application_mstnef.so libmessageviewer5 #MINVER#
 messageviewer_bodypartformatter_application_mstnef_create_bodypart_formatter_plugin@Base 4:15.08.0
