# SymbolsHelper-Confirmed: 4:15.08.2 amd64
libmessagecore.so.5 libmessagecore5 #MINVER#
 _ZN11MessageCore10NodeHelper10firstChildEPKN5KMime7ContentE@Base 4:15.08.0
 _ZN11MessageCore10NodeHelper11nextSiblingEPKN5KMime7ContentE@Base 4:15.08.0
 _ZN11MessageCore10NodeHelper12isAttachmentEPN5KMime7ContentE@Base 4:15.08.0
 _ZN11MessageCore10NodeHelper23isHeuristicalAttachmentEPN5KMime7ContentE@Base 4:15.08.0
 _ZN11MessageCore10NodeHelper4nextEPN5KMime7ContentEb@Base 4:15.08.0
 _ZN11MessageCore10StringUtil10smartQuoteERK7QStringi@Base 4:15.08.0
 _ZN11MessageCore10StringUtil12formatStringERK7QStringS3_@Base 4:15.08.0
 _ZN11MessageCore10StringUtil12isCryptoPartERK7QStringS3_S3_@Base 4:15.08.0
 _ZN11MessageCore10StringUtil13cleanFileNameERK7QString@Base 4:15.08.0
 _ZN11MessageCore10StringUtil14parseMailtoUrlERK4KUrl@Base 4:15.08.0
 _ZN11MessageCore10StringUtil14quoteHtmlCharsERK7QStringb@Base 4:15.08.0
 _ZN11MessageCore10StringUtil14stripEmailAddrERK10QByteArray@Base 4:15.08.0
 _ZN11MessageCore10StringUtil14stripEmailAddrERK7QString@Base 4:15.08.0
 _ZN11MessageCore10StringUtil14stripSignatureERK7QString@Base 4:15.08.0
 _ZN11MessageCore10StringUtil15setEncodingFileER4QUrlRK7QString@Base 4:15.08.0
 _ZN11MessageCore10StringUtil16asSendableStringERKN5boost10shared_ptrIN5KMime7MessageEEE@Base 4:15.08.0
 _ZN11MessageCore10StringUtil16stripOffPrefixesERK7QString@Base 4:15.08.0
 _ZN11MessageCore10StringUtil17emailAddrAsAnchorEPN5KMime7Headers8Generics11AddressListENS0_7DisplayERK7QStringNS0_4LinkENS0_11AddressModeES9_i@Base 4:15.08.0
 _ZN11MessageCore10StringUtil17emailAddrAsAnchorEPN5KMime7Headers8Generics11MailboxListENS0_7DisplayERK7QStringNS0_4LinkENS0_11AddressModeES9_i@Base 4:15.08.0
 _ZN11MessageCore10StringUtil17emailAddrAsAnchorERK7QVectorIN5KMime5Types7MailboxEENS0_7DisplayERK7QStringNS0_4LinkENS0_11AddressModeESB_i@Base 4:15.08.0
 _ZN11MessageCore10StringUtil17generateMessageIdERK7QStringS3_@Base 4:15.08.0
 _ZN11MessageCore10StringUtil17splitAddressFieldERK10QByteArray@Base 4:15.08.0
 _ZN11MessageCore10StringUtil21mailboxFrom7BitStringERK10QByteArray@Base 4:15.08.0
 _ZN11MessageCore10StringUtil22addressIsInAddressListERK7QStringRK11QStringList@Base 4:15.08.0
 _ZN11MessageCore10StringUtil22headerAsSendableStringERKN5boost10shared_ptrIN5KMime7MessageEEE@Base 4:15.08.0
 _ZN11MessageCore10StringUtil24mailboxFromUnicodeStringERK7QString@Base 4:15.08.0
 _ZN11MessageCore10StringUtil25mailboxListFrom7BitStringERK10QByteArray@Base 4:15.08.0
 _ZN11MessageCore10StringUtil25removePrivateHeaderFieldsERKN5boost10shared_ptrIN5KMime7MessageEEEb@Base 4:15.08.0
 _ZN11MessageCore10StringUtil26convertAngleBracketsToHtmlERK10QByteArray@Base 4:15.08.0
 _ZN11MessageCore10StringUtil26mailboxListToUnicodeStringERK7QVectorIN5KMime5Types7MailboxEE@Base 4:15.08.0
 _ZN11MessageCore10StringUtil27stripAddressFromAddressListERK7QStringRK11QStringList@Base 4:15.08.0
 _ZN11MessageCore10StringUtil28mailboxListFromUnicodeStringERK7QString@Base 4:15.08.0
 _ZN11MessageCore10StringUtil30guessEmailAddressFromLoginNameERK7QString@Base 4:15.08.0
 _ZN11MessageCore11MailingList10readConfigERK12KConfigGroup@Base 4:15.08.0
 _ZN11MessageCore11MailingList10setHandlerENS0_7HandlerE@Base 4:15.08.0
 _ZN11MessageCore11MailingList11setHelpUrlsERK5QListI4QUrlE@Base 4:15.08.0
 _ZN11MessageCore11MailingList11setPostUrlsERK5QListI4QUrlE@Base 4:15.08.0
 _ZN11MessageCore11MailingList12setOwnerUrlsERK5QListI4QUrlE@Base 4:15.08.0
 _ZN11MessageCore11MailingList14setArchiveUrlsERK5QListI4QUrlE@Base 4:15.08.0
 _ZN11MessageCore11MailingList16setSubscribeUrlsERK5QListI4QUrlE@Base 4:15.08.0
 _ZN11MessageCore11MailingList17setArchivedAtUrlsERK5QListI4QUrlE@Base 4:15.08.0
 _ZN11MessageCore11MailingList18setUnsubscribeUrlsERK5QListI4QUrlE@Base 4:15.08.0
 _ZN11MessageCore11MailingList4nameERKN5boost10shared_ptrIN5KMime7MessageEEER10QByteArrayR7QString@Base 4:15.08.0
 _ZN11MessageCore11MailingList5setIdERK7QString@Base 4:15.08.0
 _ZN11MessageCore11MailingList6detectERKN5boost10shared_ptrIN5KMime7MessageEEE@Base 4:15.08.0
 _ZN11MessageCore11MailingListC1ERKS0_@Base 4:15.08.0
 _ZN11MessageCore11MailingListC1Ev@Base 4:15.08.0
 _ZN11MessageCore11MailingListC2ERKS0_@Base 4:15.08.0
 _ZN11MessageCore11MailingListC2Ev@Base 4:15.08.0
 _ZN11MessageCore11MailingListD1Ev@Base 4:15.08.0
 _ZN11MessageCore11MailingListD2Ev@Base 4:15.08.0
 _ZN11MessageCore11MailingListaSERKS0_@Base 4:15.08.0
 _ZN11MessageCore14AttachmentPart10setCharsetERK10QByteArray@Base 4:15.08.0
 _ZN11MessageCore14AttachmentPart11setEncodingEN5KMime7Headers15contentEncodingE@Base 4:15.08.0
 _ZN11MessageCore14AttachmentPart11setFileNameERK7QString@Base 4:15.08.0
 _ZN11MessageCore14AttachmentPart11setMimeTypeERK10QByteArray@Base 4:15.08.0
 _ZN11MessageCore14AttachmentPart12setEncryptedEb@Base 4:15.08.0
 _ZN11MessageCore14AttachmentPart13setCompressedEb@Base 4:15.08.0
 _ZN11MessageCore14AttachmentPart14setDescriptionERK7QString@Base 4:15.08.0
 _ZN11MessageCore14AttachmentPart15setAutoEncodingEb@Base 4:15.08.0
 _ZN11MessageCore14AttachmentPart6setUrlERK4QUrl@Base 4:15.08.0
 _ZN11MessageCore14AttachmentPart7setDataERK10QByteArray@Base 4:15.08.0
 _ZN11MessageCore14AttachmentPart7setNameERK7QString@Base 4:15.08.0
 _ZN11MessageCore14AttachmentPart9setInlineEb@Base 4:15.08.0
 _ZN11MessageCore14AttachmentPart9setSignedEb@Base 4:15.08.0
 _ZN11MessageCore14AttachmentPartC1Ev@Base 4:15.08.0
 _ZN11MessageCore14AttachmentPartC2Ev@Base 4:15.08.0
 _ZN11MessageCore14AttachmentPartD0Ev@Base 4:15.08.0
 _ZN11MessageCore14AttachmentPartD1Ev@Base 4:15.08.0
 _ZN11MessageCore14AttachmentPartD2Ev@Base 4:15.08.0
 _ZN11MessageCore14GlobalSettings11qt_metacallEN11QMetaObject4CallEiPPv@Base 4:15.08.0
 _ZN11MessageCore14GlobalSettings11qt_metacastEPKc@Base 4:15.08.0
 _ZN11MessageCore14GlobalSettings16staticMetaObjectE@Base 4:15.08.0
 _ZN11MessageCore14GlobalSettings4selfEv@Base 4:15.08.0
 _ZN11MessageCore14GlobalSettings5mSelfE@Base 4:15.08.0
 _ZN11MessageCore14GlobalSettingsC1Ev@Base 4:15.08.0
 _ZN11MessageCore14GlobalSettingsC2Ev@Base 4:15.08.0
 _ZN11MessageCore14GlobalSettingsD0Ev@Base 4:15.08.0
 _ZN11MessageCore14GlobalSettingsD1Ev@Base 4:15.08.0
 _ZN11MessageCore14GlobalSettingsD2Ev@Base 4:15.08.0
 _ZN11MessageCore14ImageCollector17collectImagesFromEPN5KMime7ContentE@Base 4:15.08.0
 _ZN11MessageCore14ImageCollectorC1Ev@Base 4:15.08.0
 _ZN11MessageCore14ImageCollectorC2Ev@Base 4:15.08.0
 _ZN11MessageCore14ImageCollectorD1Ev@Base 4:15.08.0
 _ZN11MessageCore14ImageCollectorD2Ev@Base 4:15.08.0
 _ZN11MessageCore17AttachmentLoadJob11qt_metacallEN11QMetaObject4CallEiPPv@Base 4:15.08.0
 _ZN11MessageCore17AttachmentLoadJob11qt_metacastEPKc@Base 4:15.08.0
 _ZN11MessageCore17AttachmentLoadJob16staticMetaObjectE@Base 4:15.08.0
 _ZN11MessageCore17AttachmentLoadJob17setAttachmentPartERKN5boost10shared_ptrINS_14AttachmentPartEEE@Base 4:15.08.0
 _ZN11MessageCore17AttachmentLoadJob5startEv@Base 4:15.08.0
 _ZN11MessageCore17AttachmentLoadJobC1EP7QObject@Base 4:15.08.0
 _ZN11MessageCore17AttachmentLoadJobC2EP7QObject@Base 4:15.08.0
 _ZN11MessageCore17AttachmentLoadJobD0Ev@Base 4:15.08.0
 _ZN11MessageCore17AttachmentLoadJobD1Ev@Base 4:15.08.0
 _ZN11MessageCore17AttachmentLoadJobD2Ev@Base 4:15.08.0
 _ZN11MessageCore17MDNStateAttribute11deserializeERK10QByteArray@Base 4:15.08.0
 _ZN11MessageCore17MDNStateAttribute11setMDNStateERKNS0_12MDNSentStateE@Base 4:15.08.0
 _ZN11MessageCore17MDNStateAttributeC1ERK10QByteArray@Base 4:15.08.0
 _ZN11MessageCore17MDNStateAttributeC1ERKNS0_12MDNSentStateE@Base 4:15.08.0
 _ZN11MessageCore17MDNStateAttributeC2ERK10QByteArray@Base 4:15.08.0
 _ZN11MessageCore17MDNStateAttributeC2ERKNS0_12MDNSentStateE@Base 4:15.08.0
 _ZN11MessageCore17MDNStateAttributeD0Ev@Base 4:15.08.0
 _ZN11MessageCore17MDNStateAttributeD1Ev@Base 4:15.08.0
 _ZN11MessageCore17MDNStateAttributeD2Ev@Base 4:15.08.0
 _ZN11MessageCore18GlobalSettingsBase4selfEv@Base 4:15.08.0
 _ZN11MessageCore18GlobalSettingsBaseC1Ev@Base 4:15.08.0
 _ZN11MessageCore18GlobalSettingsBaseC2Ev@Base 4:15.08.0
 _ZN11MessageCore18GlobalSettingsBaseD0Ev@Base 4:15.08.0
 _ZN11MessageCore18GlobalSettingsBaseD1Ev@Base 4:15.08.0
 _ZN11MessageCore18GlobalSettingsBaseD2Ev@Base 4:15.08.0
 _ZN11MessageCore19AttachmentCollector22collectAttachmentsFromEPN5KMime7ContentE@Base 4:15.08.0
 _ZN11MessageCore19AttachmentCollectorC1Ev@Base 4:15.08.0
 _ZN11MessageCore19AttachmentCollectorC2Ev@Base 4:15.08.0
 _ZN11MessageCore19AttachmentCollectorD1Ev@Base 4:15.08.0
 _ZN11MessageCore19AttachmentCollectorD2Ev@Base 4:15.08.0
 _ZN11MessageCore19AttachmentUpdateJob11qt_metacallEN11QMetaObject4CallEiPPv@Base 4:15.08.0
 _ZN11MessageCore19AttachmentUpdateJob11qt_metacastEPKc@Base 4:15.08.0
 _ZN11MessageCore19AttachmentUpdateJob16staticMetaObjectE@Base 4:15.08.0
 _ZN11MessageCore19AttachmentUpdateJob5startEv@Base 4:15.08.0
 _ZN11MessageCore19AttachmentUpdateJob7Private13loadJobResultEP4KJob@Base 4:15.08.0
 _ZN11MessageCore19AttachmentUpdateJob7Private7doStartEv@Base 4:15.08.0
 _ZN11MessageCore19AttachmentUpdateJob7PrivateC1EPS0_@Base 4:15.08.0
 _ZN11MessageCore19AttachmentUpdateJob7PrivateC2EPS0_@Base 4:15.08.0
 _ZN11MessageCore19AttachmentUpdateJobC1ERKN5boost10shared_ptrINS_14AttachmentPartEEEP7QObject@Base 4:15.08.0
 _ZN11MessageCore19AttachmentUpdateJobC2ERKN5boost10shared_ptrINS_14AttachmentPartEEEP7QObject@Base 4:15.08.0
 _ZN11MessageCore19AttachmentUpdateJobD0Ev@Base 4:15.08.0
 _ZN11MessageCore19AttachmentUpdateJobD1Ev@Base 4:15.08.0
 _ZN11MessageCore19AttachmentUpdateJobD2Ev@Base 4:15.08.0
 _ZN11MessageCore20AttachmentFromUrlJob11qt_metacallEN11QMetaObject4CallEiPPv@Base 4:15.08.0
 _ZN11MessageCore20AttachmentFromUrlJob11qt_metacastEPKc@Base 4:15.08.0
 _ZN11MessageCore20AttachmentFromUrlJob16staticMetaObjectE@Base 4:15.08.0
 _ZN11MessageCore20AttachmentFromUrlJob7Private15transferJobDataEPN3KIO3JobERK10QByteArray@Base 4:15.08.0
 _ZN11MessageCore20AttachmentFromUrlJob7Private17transferJobResultEP4KJob@Base 4:15.08.0
 _ZN11MessageCore20AttachmentFromUrlJob7PrivateC1EPS0_@Base 4:15.08.0
 _ZN11MessageCore20AttachmentFromUrlJob7PrivateC2EPS0_@Base 4:15.08.0
 _ZN11MessageCore20AttachmentFromUrlJob7doStartEv@Base 4:15.08.0
 _ZN11MessageCore20AttachmentFromUrlJobC1ERK4QUrlP7QObject@Base 4:15.08.0
 _ZN11MessageCore20AttachmentFromUrlJobC2ERK4QUrlP7QObject@Base 4:15.08.0
 _ZN11MessageCore20AttachmentFromUrlJobD0Ev@Base 4:15.08.0
 _ZN11MessageCore20AttachmentFromUrlJobD1Ev@Base 4:15.08.0
 _ZN11MessageCore20AttachmentFromUrlJobD2Ev@Base 4:15.08.0
 _ZN11MessageCore21AttachmentCompressJob11qt_metacallEN11QMetaObject4CallEiPPv@Base 4:15.08.0
 _ZN11MessageCore21AttachmentCompressJob11qt_metacastEPKc@Base 4:15.08.0
 _ZN11MessageCore21AttachmentCompressJob15setOriginalPartERKN5boost10shared_ptrINS_14AttachmentPartEEE@Base 4:15.08.0
 _ZN11MessageCore21AttachmentCompressJob16staticMetaObjectE@Base 4:15.08.0
 _ZN11MessageCore21AttachmentCompressJob5startEv@Base 4:15.08.0
 _ZN11MessageCore21AttachmentCompressJob7Private7doStartEv@Base 4:15.08.0
 _ZN11MessageCore21AttachmentCompressJob7PrivateC1EPS0_@Base 4:15.08.0
 _ZN11MessageCore21AttachmentCompressJob7PrivateC2EPS0_@Base 4:15.08.0
 _ZN11MessageCore21AttachmentCompressJobC1ERKN5boost10shared_ptrINS_14AttachmentPartEEEP7QObject@Base 4:15.08.0
 _ZN11MessageCore21AttachmentCompressJobC2ERKN5boost10shared_ptrINS_14AttachmentPartEEEP7QObject@Base 4:15.08.0
 _ZN11MessageCore21AttachmentCompressJobD0Ev@Base 4:15.08.0
 _ZN11MessageCore21AttachmentCompressJobD1Ev@Base 4:15.08.0
 _ZN11MessageCore21AttachmentCompressJobD2Ev@Base 4:15.08.0
 _ZN11MessageCore22AttachmentFromUrlUtils19createAttachmentJobERK4QUrlP7QObject@Base 4:15.08.0
 _ZN11MessageCore23AttachmentFromFolderJob11qt_metacallEN11QMetaObject4CallEiPPv@Base 4:15.08.0
 _ZN11MessageCore23AttachmentFromFolderJob11qt_metacastEPKc@Base 4:15.08.0
 _ZN11MessageCore23AttachmentFromFolderJob14setCompressionEN4KZip11CompressionE@Base 4:15.08.0
 _ZN11MessageCore23AttachmentFromFolderJob16staticMetaObjectE@Base 4:15.08.0
 _ZN11MessageCore23AttachmentFromFolderJob7Private14compressFolderEv@Base 4:15.08.0
 _ZN11MessageCore23AttachmentFromFolderJob7Private9addEntityERK5QListI9QFileInfoERK7QString@Base 4:15.08.0
 _ZN11MessageCore23AttachmentFromFolderJob7PrivateC1EPS0_@Base 4:15.08.0
 _ZN11MessageCore23AttachmentFromFolderJob7PrivateC2EPS0_@Base 4:15.08.0
 _ZN11MessageCore23AttachmentFromFolderJob7doStartEv@Base 4:15.08.0
 _ZN11MessageCore23AttachmentFromFolderJobC1ERK4QUrlP7QObject@Base 4:15.08.0
 _ZN11MessageCore23AttachmentFromFolderJobC2ERK4QUrlP7QObject@Base 4:15.08.0
 _ZN11MessageCore23AttachmentFromFolderJobD0Ev@Base 4:15.08.0
 _ZN11MessageCore23AttachmentFromFolderJobD1Ev@Base 4:15.08.0
 _ZN11MessageCore23AttachmentFromFolderJobD2Ev@Base 4:15.08.0
 _ZN11MessageCore24AttachmentFromUrlBaseJob11qt_metacallEN11QMetaObject4CallEiPPv@Base 4:15.08.0
 _ZN11MessageCore24AttachmentFromUrlBaseJob11qt_metacastEPKc@Base 4:15.08.0
 _ZN11MessageCore24AttachmentFromUrlBaseJob16staticMetaObjectE@Base 4:15.08.0
 _ZN11MessageCore24AttachmentFromUrlBaseJob21setMaximumAllowedSizeEx@Base 4:15.08.0
 _ZN11MessageCore24AttachmentFromUrlBaseJob6setUrlERK4QUrl@Base 4:15.08.0
 _ZN11MessageCore24AttachmentFromUrlBaseJob7PrivateC1ERK4QUrlPS0_@Base 4:15.08.0
 _ZN11MessageCore24AttachmentFromUrlBaseJob7PrivateC2ERK4QUrlPS0_@Base 4:15.08.0
 _ZN11MessageCore24AttachmentFromUrlBaseJobC1ERK4QUrlP7QObject@Base 4:15.08.0
 _ZN11MessageCore24AttachmentFromUrlBaseJobC2ERK4QUrlP7QObject@Base 4:15.08.0
 _ZN11MessageCore24AttachmentFromUrlBaseJobD0Ev@Base 4:15.08.0
 _ZN11MessageCore24AttachmentFromUrlBaseJobD1Ev@Base 4:15.08.0
 _ZN11MessageCore24AttachmentFromUrlBaseJobD2Ev@Base 4:15.08.0
 _ZN11MessageCore26AttachmentPropertiesDialog11qt_metacallEN11QMetaObject4CallEiPPv@Base 4:15.08.0
 _ZN11MessageCore26AttachmentPropertiesDialog11qt_metacastEPKc@Base 4:15.08.0
 _ZN11MessageCore26AttachmentPropertiesDialog14setSignEnabledEb@Base 4:15.08.0
 _ZN11MessageCore26AttachmentPropertiesDialog16staticMetaObjectE@Base 4:15.08.0
 _ZN11MessageCore26AttachmentPropertiesDialog17setEncryptEnabledEb@Base 4:15.08.0
 _ZN11MessageCore26AttachmentPropertiesDialog6acceptEv@Base 4:15.08.0
 _ZN11MessageCore26AttachmentPropertiesDialog7Private10saveToPartEv@Base 4:15.08.0
 _ZN11MessageCore26AttachmentPropertiesDialog7Private12loadFromPartEv@Base 4:15.08.0
 _ZN11MessageCore26AttachmentPropertiesDialog7Private15mimeTypeChangedERK7QString@Base 4:15.08.0
 _ZN11MessageCore26AttachmentPropertiesDialog7Private17populateEncodingsEv@Base 4:15.08.0
 _ZN11MessageCore26AttachmentPropertiesDialog7Private17populateMimeTypesEv@Base 4:15.08.0
 _ZN11MessageCore26AttachmentPropertiesDialog7Private17populateWhatsThisEv@Base 4:15.08.0
 _ZN11MessageCore26AttachmentPropertiesDialog7Private4initERKN5boost10shared_ptrINS_14AttachmentPartEEEb@Base 4:15.08.0
 _ZN11MessageCore26AttachmentPropertiesDialog7Private8polishUiEv@Base 4:15.08.0
 _ZN11MessageCore26AttachmentPropertiesDialog8slotHelpEv@Base 4:15.08.0
 _ZN11MessageCore26AttachmentPropertiesDialogC1EPKN5KMime7ContentEP7QWidget@Base 4:15.08.0
 _ZN11MessageCore26AttachmentPropertiesDialogC1ERKN5boost10shared_ptrINS_14AttachmentPartEEEbP7QWidget@Base 4:15.08.0
 _ZN11MessageCore26AttachmentPropertiesDialogC2EPKN5KMime7ContentEP7QWidget@Base 4:15.08.0
 _ZN11MessageCore26AttachmentPropertiesDialogC2ERKN5boost10shared_ptrINS_14AttachmentPartEEEbP7QWidget@Base 4:15.08.0
 _ZN11MessageCore26AttachmentPropertiesDialogD0Ev@Base 4:15.08.0
 _ZN11MessageCore26AttachmentPropertiesDialogD1Ev@Base 4:15.08.0
 _ZN11MessageCore26AttachmentPropertiesDialogD2Ev@Base 4:15.08.0
 _ZN11MessageCore28AttachmentFromMimeContentJob11qt_metacallEN11QMetaObject4CallEiPPv@Base 4:15.08.0
 _ZN11MessageCore28AttachmentFromMimeContentJob11qt_metacastEPKc@Base 4:15.08.0
 _ZN11MessageCore28AttachmentFromMimeContentJob14setMimeContentEPKN5KMime7ContentE@Base 4:15.08.0
 _ZN11MessageCore28AttachmentFromMimeContentJob16staticMetaObjectE@Base 4:15.08.0
 _ZN11MessageCore28AttachmentFromMimeContentJob7doStartEv@Base 4:15.08.0
 _ZN11MessageCore28AttachmentFromMimeContentJobC1EPKN5KMime7ContentEP7QObject@Base 4:15.08.0
 _ZN11MessageCore28AttachmentFromMimeContentJobC2EPKN5KMime7ContentEP7QObject@Base 4:15.08.0
 _ZN11MessageCore28AttachmentFromMimeContentJobD0Ev@Base 4:15.08.0
 _ZN11MessageCore28AttachmentFromMimeContentJobD1Ev@Base 4:15.08.0
 _ZN11MessageCore28AttachmentFromMimeContentJobD2Ev@Base 4:15.08.0
 _ZN11MessageCore4Util18addLinkInformationERKN5boost10shared_ptrIN5KMime7MessageEEExRKN7Akonadi13MessageStatusE@Base 4:15.08.0
 _ZN11MessageCore4Util18getLinkInformationERKN5boost10shared_ptrIN5KMime7MessageEEER5QListIxERS8_IN7Akonadi13MessageStatusEE@Base 4:15.08.0
 _ZN11MessageCore4Util19isStandaloneMessageERKN7Akonadi4ItemE@Base 4:15.08.0
 _ZN11MessageCore4Util7messageERKN7Akonadi4ItemE@Base 4:15.08.0
 _ZN11MessageCore5qHashERKN5boost10shared_ptrINS_14AttachmentPartEEE@Base 4:15.08.0
 (optional=templinst)_ZN12KConfigGroup10writeEntryIiEEvPKcRKT_6QFlagsIN11KConfigBase15WriteConfigFlagEE@Base 4:15.08.2
 _ZNK11MessageCore11MailingList11archiveUrlsEv@Base 4:15.08.0
 _ZNK11MessageCore11MailingList11writeConfigER12KConfigGroup@Base 4:15.08.0
 _ZNK11MessageCore11MailingList13subscribeUrlsEv@Base 4:15.08.0
 _ZNK11MessageCore11MailingList14archivedAtUrlsEv@Base 4:15.08.0
 _ZNK11MessageCore11MailingList15unsubscribeUrlsEv@Base 4:15.08.0
 _ZNK11MessageCore11MailingList2idEv@Base 4:15.08.0
 _ZNK11MessageCore11MailingList7handlerEv@Base 4:15.08.0
 _ZNK11MessageCore11MailingList8featuresEv@Base 4:15.08.0
 _ZNK11MessageCore11MailingList8helpUrlsEv@Base 4:15.08.0
 _ZNK11MessageCore11MailingList8postUrlsEv@Base 4:15.08.0
 _ZNK11MessageCore11MailingList9ownerUrlsEv@Base 4:15.08.0
 _ZNK11MessageCore11MailingListeqERKS0_@Base 4:15.08.0
 _ZNK11MessageCore14AttachmentPart11descriptionEv@Base 4:15.08.0
 _ZNK11MessageCore14AttachmentPart11isEncryptedEv@Base 4:15.08.0
 _ZNK11MessageCore14AttachmentPart12isCompressedEv@Base 4:15.08.0
 _ZNK11MessageCore14AttachmentPart14isAutoEncodingEv@Base 4:15.08.0
 _ZNK11MessageCore14AttachmentPart28isMessageOrMessageCollectionEv@Base 4:15.08.0
 _ZNK11MessageCore14AttachmentPart3urlEv@Base 4:15.08.0
 _ZNK11MessageCore14AttachmentPart4dataEv@Base 4:15.08.0
 _ZNK11MessageCore14AttachmentPart4nameEv@Base 4:15.08.0
 _ZNK11MessageCore14AttachmentPart4sizeEv@Base 4:15.08.0
 _ZNK11MessageCore14AttachmentPart7charsetEv@Base 4:15.08.0
 _ZNK11MessageCore14AttachmentPart8encodingEv@Base 4:15.08.0
 _ZNK11MessageCore14AttachmentPart8fileNameEv@Base 4:15.08.0
 _ZNK11MessageCore14AttachmentPart8isInlineEv@Base 4:15.08.0
 _ZNK11MessageCore14AttachmentPart8isSignedEv@Base 4:15.08.0
 _ZNK11MessageCore14AttachmentPart8mimeTypeEv@Base 4:15.08.0
 _ZNK11MessageCore14GlobalSettings10metaObjectEv@Base 4:15.08.0
 _ZNK11MessageCore14ImageCollector6imagesEv@Base 4:15.08.0
 _ZNK11MessageCore17AttachmentLoadJob10metaObjectEv@Base 4:15.08.0
 _ZNK11MessageCore17AttachmentLoadJob14attachmentPartEv@Base 4:15.08.0
 _ZNK11MessageCore17MDNStateAttribute10serializedEv@Base 4:15.08.0
 _ZNK11MessageCore17MDNStateAttribute4typeEv@Base 4:15.08.0
 _ZNK11MessageCore17MDNStateAttribute5cloneEv@Base 4:15.08.0
 _ZNK11MessageCore17MDNStateAttribute8mdnStateEv@Base 4:15.08.0
 _ZNK11MessageCore17MDNStateAttributeeqERKS0_@Base 4:15.08.0
 _ZNK11MessageCore19AttachmentCollector11attachmentsEv@Base 4:15.08.0
 _ZNK11MessageCore19AttachmentUpdateJob10metaObjectEv@Base 4:15.08.0
 _ZNK11MessageCore19AttachmentUpdateJob11updatedPartEv@Base 4:15.08.0
 _ZNK11MessageCore19AttachmentUpdateJob12originalPartEv@Base 4:15.08.0
 _ZNK11MessageCore20AttachmentFromUrlJob10metaObjectEv@Base 4:15.08.0
 _ZNK11MessageCore21AttachmentCompressJob10metaObjectEv@Base 4:15.08.0
 _ZNK11MessageCore21AttachmentCompressJob12originalPartEv@Base 4:15.08.0
 _ZNK11MessageCore21AttachmentCompressJob14compressedPartEv@Base 4:15.08.0
 _ZNK11MessageCore21AttachmentCompressJob22isCompressedPartLargerEv@Base 4:15.08.0
 _ZNK11MessageCore23AttachmentFromFolderJob10metaObjectEv@Base 4:15.08.0
 _ZNK11MessageCore23AttachmentFromFolderJob11compressionEv@Base 4:15.08.0
 _ZNK11MessageCore24AttachmentFromUrlBaseJob10metaObjectEv@Base 4:15.08.0
 _ZNK11MessageCore24AttachmentFromUrlBaseJob18maximumAllowedSizeEv@Base 4:15.08.0
 _ZNK11MessageCore24AttachmentFromUrlBaseJob3urlEv@Base 4:15.08.0
 _ZNK11MessageCore26AttachmentPropertiesDialog10metaObjectEv@Base 4:15.08.0
 _ZNK11MessageCore26AttachmentPropertiesDialog13isSignEnabledEv@Base 4:15.08.0
 _ZNK11MessageCore26AttachmentPropertiesDialog14attachmentPartEv@Base 4:15.08.0
 _ZNK11MessageCore26AttachmentPropertiesDialog16isEncryptEnabledEv@Base 4:15.08.0
 _ZNK11MessageCore28AttachmentFromMimeContentJob10metaObjectEv@Base 4:15.08.0
 _ZNK11MessageCore28AttachmentFromMimeContentJob11mimeContentEv@Base 4:15.08.0
 (optional=templinst)_ZNK12KConfigGroup9readEntryIiEET_PKcRKS1_@Base 4:15.08.2
 (optional=templinst)_ZNK7Akonadi4Item10hasPayloadIN5boost10shared_ptrIN5KMime7MessageEEEEEbv@Base 4:15.08.2
 (optional=templinst)_ZNK7Akonadi4Item11payloadImplIN5boost10shared_ptrIN5KMime7MessageEEEEENSt9enable_ifIXntsrNS_8Internal12PayloadTraitIT_EE13isPolymorphicESA_E4typeEv@Base 4:15.08.0
 (optional=templinst)_ZNK7Akonadi4Item14tryToCloneImplIN5boost10shared_ptrIN5KMime7MessageEEE14QSharedPointerIS5_EEENSt9enable_ifIXntsrSt7is_sameIT_T0_E5valueEbE4typeEPSB_PKi@Base 4:15.08.0
 (optional=templinst)_ZNSt6vectorIPN5KMime7ContentESaIS2_EE19_M_emplace_back_auxIIRKS2_EEEvDpOT_@Base 4:15.08.0
 (optional=templinst)_ZNSt6vectorIPN5KMime7ContentESaIS2_EE19_M_emplace_back_auxIJRKS2_EEEvDpOT_@Base 4:15.08.0
 _ZTIN11MessageCore14AttachmentPartE@Base 4:15.08.0
 _ZTIN11MessageCore14GlobalSettingsE@Base 4:15.08.0
 _ZTIN11MessageCore17AttachmentLoadJobE@Base 4:15.08.0
 _ZTIN11MessageCore17MDNStateAttributeE@Base 4:15.08.0
 _ZTIN11MessageCore18GlobalSettingsBaseE@Base 4:15.08.0
 _ZTIN11MessageCore19AttachmentUpdateJobE@Base 4:15.08.0
 _ZTIN11MessageCore20AttachmentFromUrlJobE@Base 4:15.08.0
 _ZTIN11MessageCore21AttachmentCompressJobE@Base 4:15.08.0
 _ZTIN11MessageCore23AttachmentFromFolderJobE@Base 4:15.08.0
 _ZTIN11MessageCore24AttachmentFromUrlBaseJobE@Base 4:15.08.0
 _ZTIN11MessageCore26AttachmentPropertiesDialogE@Base 4:15.08.0
 _ZTIN11MessageCore28AttachmentFromMimeContentJobE@Base 4:15.08.0
 _ZTSN11MessageCore14AttachmentPartE@Base 4:15.08.0
 _ZTSN11MessageCore14GlobalSettingsE@Base 4:15.08.0
 _ZTSN11MessageCore17AttachmentLoadJobE@Base 4:15.08.0
 _ZTSN11MessageCore17MDNStateAttributeE@Base 4:15.08.0
 _ZTSN11MessageCore18GlobalSettingsBaseE@Base 4:15.08.0
 _ZTSN11MessageCore19AttachmentUpdateJobE@Base 4:15.08.0
 _ZTSN11MessageCore20AttachmentFromUrlJobE@Base 4:15.08.0
 _ZTSN11MessageCore21AttachmentCompressJobE@Base 4:15.08.0
 _ZTSN11MessageCore23AttachmentFromFolderJobE@Base 4:15.08.0
 _ZTSN11MessageCore24AttachmentFromUrlBaseJobE@Base 4:15.08.0
 _ZTSN11MessageCore26AttachmentPropertiesDialogE@Base 4:15.08.0
 _ZTSN11MessageCore28AttachmentFromMimeContentJobE@Base 4:15.08.0
 _ZTVN11MessageCore14AttachmentPartE@Base 4:15.08.0
 _ZTVN11MessageCore14GlobalSettingsE@Base 4:15.08.0
 _ZTVN11MessageCore17AttachmentLoadJobE@Base 4:15.08.0
 _ZTVN11MessageCore17MDNStateAttributeE@Base 4:15.08.0
 _ZTVN11MessageCore18GlobalSettingsBaseE@Base 4:15.08.0
 _ZTVN11MessageCore19AttachmentUpdateJobE@Base 4:15.08.0
 _ZTVN11MessageCore20AttachmentFromUrlJobE@Base 4:15.08.0
 _ZTVN11MessageCore21AttachmentCompressJobE@Base 4:15.08.0
 _ZTVN11MessageCore23AttachmentFromFolderJobE@Base 4:15.08.0
 _ZTVN11MessageCore24AttachmentFromUrlBaseJobE@Base 4:15.08.0
 _ZTVN11MessageCore26AttachmentPropertiesDialogE@Base 4:15.08.0
 _ZTVN11MessageCore28AttachmentFromMimeContentJobE@Base 4:15.08.0
 (c++)"non-virtual thunk to MessageCore::AttachmentPropertiesDialog::~AttachmentPropertiesDialog()@Base" 4:15.08.0
