# SymbolsHelper-Confirmed: 4:15.08.1 amd64 i386
libmailcommon.so.5 libmailcommon5 #MINVER#
 _ZN10MailCommon10MailFilter10readConfigERK12KConfigGroupb@Base 4:15.08.0
 _ZN10MailCommon10MailFilter10setEnabledEb@Base 4:15.08.0
 _ZN10MailCommon10MailFilter11setShortcutERK12QKeySequence@Base 4:15.08.0
 _ZN10MailCommon10MailFilter13folderRemovedERKN7Akonadi10CollectionES4_@Base 4:15.08.0
 _ZN10MailCommon10MailFilter13setAutoNamingEb@Base 4:15.08.0
 _ZN10MailCommon10MailFilter14setToolbarNameERK7QString@Base 4:15.08.0
 _ZN10MailCommon10MailFilter16setApplicabilityENS0_11AccountTypeE@Base 4:15.08.0
 _ZN10MailCommon10MailFilter17setApplyOnAccountERK7QStringb@Base 4:15.08.0
 _ZN10MailCommon10MailFilter17setApplyOnInboundEb@Base 4:15.08.0
 _ZN10MailCommon10MailFilter18setApplyOnExplicitEb@Base 4:15.08.0
 _ZN10MailCommon10MailFilter18setApplyOnOutboundEb@Base 4:15.08.0
 _ZN10MailCommon10MailFilter19generateSieveScriptER11QStringListR7QString@Base 4:15.08.0
 _ZN10MailCommon10MailFilter19setConfigureToolbarEb@Base 4:15.08.0
 _ZN10MailCommon10MailFilter20setConfigureShortcutEb@Base 4:15.08.0
 _ZN10MailCommon10MailFilter21setStopProcessingHereEb@Base 4:15.08.0
 _ZN10MailCommon10MailFilter22setApplyBeforeOutboundEb@Base 4:15.08.0
 _ZN10MailCommon10MailFilter6purifyEb@Base 4:15.08.0
 _ZN10MailCommon10MailFilter7actionsEv@Base 4:15.08.0
 _ZN10MailCommon10MailFilter7patternEv@Base 4:15.08.0
 _ZN10MailCommon10MailFilter7setIconERK7QString@Base 4:15.08.0
 _ZN10MailCommon10MailFilterC1ERK12KConfigGroupbRb@Base 4:15.08.0
 _ZN10MailCommon10MailFilterC1ERKS0_@Base 4:15.08.0
 _ZN10MailCommon10MailFilterC1Ev@Base 4:15.08.0
 _ZN10MailCommon10MailFilterC2ERK12KConfigGroupbRb@Base 4:15.08.0
 _ZN10MailCommon10MailFilterC2ERKS0_@Base 4:15.08.0
 _ZN10MailCommon10MailFilterC2Ev@Base 4:15.08.0
 _ZN10MailCommon10MailFilterD1Ev@Base 4:15.08.0
 _ZN10MailCommon10MailFilterD2Ev@Base 4:15.08.0
 _ZN10MailCommon10SearchRule11setContentsERK7QString@Base 4:15.08.0
 _ZN10MailCommon10SearchRule11setFunctionENS0_8FunctionE@Base 4:15.08.0
 _ZN10MailCommon10SearchRule14createInstanceER11QDataStream@Base 4:15.08.0
 _ZN10MailCommon10SearchRule14createInstanceERK10QByteArrayNS0_8FunctionERK7QString@Base 4:15.08.0
 _ZN10MailCommon10SearchRule14createInstanceERK10QByteArrayPKcRK7QString@Base 4:15.08.0
 _ZN10MailCommon10SearchRule14createInstanceERKS0_@Base 4:15.08.0
 _ZN10MailCommon10SearchRule16functionToStringENS0_8FunctionE@Base 4:15.08.0
 _ZN10MailCommon10SearchRule17conditionToStringENS0_8FunctionE@Base 4:15.08.0
 _ZN10MailCommon10SearchRule17configValueToFuncEPKc@Base 4:15.08.0
 _ZN10MailCommon10SearchRule19generateSieveScriptER11QStringListR7QString@Base 4:15.08.0
 _ZN10MailCommon10SearchRule24createInstanceFromConfigERK12KConfigGroupi@Base 4:15.08.0
 _ZN10MailCommon10SearchRule8setFieldERK10QByteArray@Base 4:15.08.0
 _ZN10MailCommon10SearchRuleC1ERK10QByteArrayNS0_8FunctionERK7QString@Base 4:15.08.0
 _ZN10MailCommon10SearchRuleC1ERKS0_@Base 4:15.08.0
 _ZN10MailCommon10SearchRuleC2ERK10QByteArrayNS0_8FunctionERK7QString@Base 4:15.08.0
 _ZN10MailCommon10SearchRuleC2ERKS0_@Base 4:15.08.0
 _ZN10MailCommon10SearchRuleD0Ev@Base 4:15.08.0
 _ZN10MailCommon10SearchRuleD1Ev@Base 4:15.08.0
 _ZN10MailCommon10SearchRuleD2Ev@Base 4:15.08.0
 _ZN10MailCommon10SearchRuleaSERKS0_@Base 4:15.08.0
 _ZN10MailCommon11ItemContext13setDeleteItemEv@Base 4:15.08.0
 _ZN10MailCommon11ItemContext17setNeedsFlagStoreEv@Base 4:15.08.0
 _ZN10MailCommon11ItemContext20setNeedsPayloadStoreEv@Base 4:15.08.0
 _ZN10MailCommon11ItemContext23setMoveTargetCollectionERKN7Akonadi10CollectionE@Base 4:15.08.0
 _ZN10MailCommon11ItemContext4itemEv@Base 4:15.08.0
 _ZN10MailCommon11ItemContextC1ERKN7Akonadi4ItemEb@Base 4:15.08.0
 _ZN10MailCommon11ItemContextC2ERKN7Akonadi4ItemEb@Base 4:15.08.0
 _ZN10MailCommon12AddTagDialog11qt_metacallEN11QMetaObject4CallEiPPv@Base 4:15.08.0
 _ZN10MailCommon12AddTagDialog11qt_metacastEPKc@Base 4:15.08.0
 _ZN10MailCommon12AddTagDialog12onTagCreatedEP4KJob@Base 4:15.08.0
 _ZN10MailCommon12AddTagDialog16staticMetaObjectE@Base 4:15.08.0
 _ZN10MailCommon12AddTagDialog18slotTagNameChangedERK7QString@Base 4:15.08.0
 _ZN10MailCommon12AddTagDialog7setTagsERK5QListI14QSharedPointerINS_3TagEEE@Base 4:15.08.0
 _ZN10MailCommon12AddTagDialog8slotSaveEv@Base 4:15.08.0
 _ZN10MailCommon12AddTagDialogC1ERK5QListIP17KActionCollectionEP7QWidget@Base 4:15.08.0
 _ZN10MailCommon12AddTagDialogC2ERK5QListIP17KActionCollectionEP7QWidget@Base 4:15.08.0
 _ZN10MailCommon12AddTagDialogD0Ev@Base 4:15.08.0
 _ZN10MailCommon12AddTagDialogD1Ev@Base 4:15.08.0
 _ZN10MailCommon12AddTagDialogD2Ev@Base 4:15.08.0
 _ZN10MailCommon12FilterAction11qt_metacallEN11QMetaObject4CallEiPPv@Base 4:15.08.0
 _ZN10MailCommon12FilterAction11qt_metacastEPKc@Base 4:15.08.0
 _ZN10MailCommon12FilterAction13folderRemovedERKN7Akonadi10CollectionES4_@Base 4:15.08.0
 _ZN10MailCommon12FilterAction16staticMetaObjectE@Base 4:15.08.0
 _ZN10MailCommon12FilterAction20filterActionModifiedEv@Base 4:15.08.0
 _ZN10MailCommon12FilterAction21applyParamWidgetValueEP7QWidget@Base 4:15.08.0
 _ZN10MailCommon12FilterAction25argsFromStringInteractiveERK7QStringS3_@Base 4:15.08.0
 _ZN10MailCommon12FilterAction7sendMDNERKN7Akonadi4ItemEN5KMime3MDN15DispositionTypeERK5QListINS6_19DispositionModifierEE@Base 4:15.08.0
 _ZN10MailCommon12FilterAction9newActionEv@Base 4:15.08.0
 _ZN10MailCommon12FilterActionC1ERK7QStringS3_P7QObject@Base 4:15.08.0
 _ZN10MailCommon12FilterActionC2ERK7QStringS3_P7QObject@Base 4:15.08.0
 _ZN10MailCommon12FilterActionD0Ev@Base 4:15.08.0
 _ZN10MailCommon12FilterActionD1Ev@Base 4:15.08.0
 _ZN10MailCommon12FilterActionD2Ev@Base 4:15.08.0
 _ZN10MailCommon12JobScheduler10removeTaskERN5QListIPNS_13ScheduledTaskEE8iteratorE@Base 4:15.08.0
 _ZN10MailCommon12JobScheduler10runTaskNowEPNS_13ScheduledTaskE@Base 4:15.08.0
 _ZN10MailCommon12JobScheduler11qt_metacallEN11QMetaObject4CallEiPPv@Base 4:15.08.0
 _ZN10MailCommon12JobScheduler11qt_metacastEPKc@Base 4:15.08.0
 _ZN10MailCommon12JobScheduler12registerTaskEPNS_13ScheduledTaskE@Base 4:15.08.0
 _ZN10MailCommon12JobScheduler12restartTimerEv@Base 4:15.08.0
 _ZN10MailCommon12JobScheduler14slotRunNextJobEv@Base 4:15.08.0
 _ZN10MailCommon12JobScheduler15slotJobFinishedEv@Base 4:15.08.0
 _ZN10MailCommon12JobScheduler16staticMetaObjectE@Base 4:15.08.0
 _ZN10MailCommon12JobScheduler20interruptCurrentTaskEv@Base 4:15.08.0
 _ZN10MailCommon12JobScheduler5pauseEv@Base 4:15.08.0
 _ZN10MailCommon12JobScheduler6resumeEv@Base 4:15.08.0
 _ZN10MailCommon12JobSchedulerC1EP7QObject@Base 4:15.08.0
 _ZN10MailCommon12JobSchedulerC2EP7QObject@Base 4:15.08.0
 _ZN10MailCommon12JobSchedulerD0Ev@Base 4:15.08.0
 _ZN10MailCommon12JobSchedulerD1Ev@Base 4:15.08.0
 _ZN10MailCommon12JobSchedulerD2Ev@Base 4:15.08.0
 _ZN10MailCommon12ScheduledJobC1ERKN7Akonadi10CollectionEb@Base 4:15.08.0
 _ZN10MailCommon12ScheduledJobC2ERKN7Akonadi10CollectionEb@Base 4:15.08.0
 _ZN10MailCommon12ScheduledJobD0Ev@Base 4:15.08.0
 _ZN10MailCommon12ScheduledJobD1Ev@Base 4:15.08.0
 _ZN10MailCommon12ScheduledJobD2Ev@Base 4:15.08.0
 _ZN10MailCommon13FilterManager10setFiltersERK5QListIPNS_10MailFilterEE@Base 4:15.08.0
 _ZN10MailCommon13FilterManager11beginUpdateEv@Base 4:15.08.0
 _ZN10MailCommon13FilterManager11qt_metacallEN11QMetaObject4CallEiPPv@Base 4:15.08.0
 _ZN10MailCommon13FilterManager11qt_metacastEPKc@Base 4:15.08.0
 _ZN10MailCommon13FilterManager12removeFilterEPNS_10MailFilterE@Base 4:15.08.0
 _ZN10MailCommon13FilterManager12slotTagAddedERKN7Akonadi3TagE@Base 4:15.08.0
 _ZN10MailCommon13FilterManager13appendFiltersERK5QListIPNS_10MailFilterEEb@Base 4:15.08.0
 _ZN10MailCommon13FilterManager13updateTagListEv@Base 4:15.08.0
 _ZN10MailCommon13FilterManager14filtersChangedEv@Base 4:15.08.0
 _ZN10MailCommon13FilterManager14slotReadConfigEv@Base 4:15.08.0
 _ZN10MailCommon13FilterManager14slotTagChangedERKN7Akonadi3TagE@Base 4:15.08.0
 _ZN10MailCommon13FilterManager14slotTagRemovedERKN7Akonadi3TagE@Base 4:15.08.0
 _ZN10MailCommon13FilterManager16filterActionDictEv@Base 4:15.08.0
 _ZN10MailCommon13FilterManager16staticMetaObjectE@Base 4:15.08.0
 _ZN10MailCommon13FilterManager18loadingFiltersDoneEv@Base 4:15.08.0
 _ZN10MailCommon13FilterManager18tagListingFinishedEv@Base 4:15.08.0
 _ZN10MailCommon13FilterManager19showFilterLogDialogEx@Base 4:15.08.0
 _ZN10MailCommon13FilterManager22slotFinishedTagListingEP4KJob@Base 4:15.08.0
 _ZN10MailCommon13FilterManager22slotServerStateChangedEN7Akonadi13ServerManager5StateE@Base 4:15.08.0
 _ZN10MailCommon13FilterManager7Private10readConfigEv@Base 4:15.08.0
 _ZN10MailCommon13FilterManager7Private17mFilterActionDictE@Base 4:15.08.0
 _ZN10MailCommon13FilterManager7Private5clearEv@Base 4:15.08.0
 _ZN10MailCommon13FilterManager7Private9mInstanceE@Base 4:15.08.0
 _ZN10MailCommon13FilterManager8instanceEv@Base 4:15.08.0
 _ZN10MailCommon13FilterManager9endUpdateEv@Base 4:15.08.0
 _ZN10MailCommon13FilterManagerC1Ev@Base 4:15.08.0
 _ZN10MailCommon13FilterManagerC2Ev@Base 4:15.08.0
 _ZN10MailCommon13ScheduledTaskC1ERKN7Akonadi10CollectionEb@Base 4:15.08.0
 _ZN10MailCommon13ScheduledTaskC2ERKN7Akonadi10CollectionEb@Base 4:15.08.0
 _ZN10MailCommon13ScheduledTaskD0Ev@Base 4:15.08.0
 _ZN10MailCommon13ScheduledTaskD1Ev@Base 4:15.08.0
 _ZN10MailCommon13ScheduledTaskD2Ev@Base 4:15.08.0
 _ZN10MailCommon13SearchPattern10readConfigERK12KConfigGroup@Base 4:15.08.0
 _ZN10MailCommon13SearchPattern11deserializeERK10QByteArray@Base 4:15.08.0
 _ZN10MailCommon13SearchPattern18importLegacyConfigERK12KConfigGroup@Base 4:15.08.0
 _ZN10MailCommon13SearchPattern19generateSieveScriptER11QStringListR7QString@Base 4:15.08.0
 _ZN10MailCommon13SearchPattern4initEv@Base 4:15.08.0
 _ZN10MailCommon13SearchPattern6purifyEb@Base 4:15.08.0
 _ZN10MailCommon13SearchPatternC1ERK12KConfigGroup@Base 4:15.08.0
 _ZN10MailCommon13SearchPatternC1Ev@Base 4:15.08.0
 _ZN10MailCommon13SearchPatternC2ERK12KConfigGroup@Base 4:15.08.0
 _ZN10MailCommon13SearchPatternC2Ev@Base 4:15.08.0
 _ZN10MailCommon13SearchPatternD1Ev@Base 4:15.08.0
 _ZN10MailCommon13SearchPatternD2Ev@Base 4:15.08.0
 _ZN10MailCommon13SearchPatternaSERKS0_@Base 4:15.08.0
 _ZN10MailCommon13SearchPatternlsER11QDataStream@Base 4:15.08.0
 _ZN10MailCommon14FolderTreeView10readConfigEv@Base 4:15.08.0
 _ZN10MailCommon14FolderTreeView11qt_metacallEN11QMetaObject4CallEiPPv@Base 4:15.08.0
 _ZN10MailCommon14FolderTreeView11qt_metacastEPKc@Base 4:15.08.0
 _ZN10MailCommon14FolderTreeView11writeConfigEv@Base 4:15.08.0
 _ZN10MailCommon14FolderTreeView13updatePaletteEv@Base 4:15.08.0
 _ZN10MailCommon14FolderTreeView14isUnreadFolderERK11QModelIndexRS1_NS0_4MoveEb@Base 4:15.08.0
 _ZN10MailCommon14FolderTreeView14keyboardSearchERK7QString@Base 4:15.08.0
 _ZN10MailCommon14FolderTreeView15mousePressEventEP11QMouseEvent@Base 4:15.08.0
 _ZN10MailCommon14FolderTreeView16selectModelIndexERK11QModelIndex@Base 4:15.08.0
 _ZN10MailCommon14FolderTreeView16selectNextFolderERK11QModelIndex@Base 4:15.08.0
 _ZN10MailCommon14FolderTreeView16setSortingPolicyENS_16FolderTreeWidget13SortingPolicyEb@Base 4:15.08.0
 _ZN10MailCommon14FolderTreeView16staticMetaObjectE@Base 4:15.08.0
 _ZN10MailCommon14FolderTreeView17disableSaveConfigEv@Base 4:15.08.0
 _ZN10MailCommon14FolderTreeView17setTooltipsPolicyENS_16FolderTreeWidget20ToolTipDisplayPolicyE@Base 4:15.08.0
 _ZN10MailCommon14FolderTreeView18restoreHeaderStateERK10QByteArray@Base 4:15.08.0
 _ZN10MailCommon14FolderTreeView19prefereCreateNewTabEb@Base 4:15.08.0
 _ZN10MailCommon14FolderTreeView19slotFocusLastFolderEv@Base 4:15.08.0
 _ZN10MailCommon14FolderTreeView19slotFocusNextFolderEv@Base 4:15.08.0
 _ZN10MailCommon14FolderTreeView19slotFocusPrevFolderEv@Base 4:15.08.0
 _ZN10MailCommon14FolderTreeView20changeTooltipsPolicyENS_16FolderTreeWidget20ToolTipDisplayPolicyE@Base 4:15.08.0
 _ZN10MailCommon14FolderTreeView20manualSortingChangedEb@Base 4:15.08.0
 _ZN10MailCommon14FolderTreeView20setCurrentModelIndexERK11QModelIndex@Base 4:15.08.0
 _ZN10MailCommon14FolderTreeView20slotFocusFirstFolderEv@Base 4:15.08.0
 _ZN10MailCommon14FolderTreeView21slotSelectFocusFolderEv@Base 4:15.08.0
 _ZN10MailCommon14FolderTreeView22selectNextUnreadFolderEb@Base 4:15.08.0
 _ZN10MailCommon14FolderTreeView22selectPrevUnreadFolderEb@Base 4:15.08.0
 _ZN10MailCommon14FolderTreeView22showStatisticAnimationEb@Base 4:15.08.0
 _ZN10MailCommon14FolderTreeView25trySelectNextUnreadFolderERK11QModelIndexNS_4Util15SearchDirectionEb@Base 4:15.08.0
 _ZN10MailCommon14FolderTreeView30slotHeaderContextMenuRequestedERK6QPoint@Base 4:15.08.0
 _ZN10MailCommon14FolderTreeView32disableContextMenuAndExtraColumnEv@Base 4:15.08.0
 _ZN10MailCommon14FolderTreeView33slotHeaderContextMenuChangeHeaderEb@Base 4:15.08.0
 _ZN10MailCommon14FolderTreeView35slotHeaderContextMenuChangeIconSizeEb@Base 4:15.08.0
 _ZN10MailCommon14FolderTreeView40slotHeaderContextMenuChangeSortingPolicyEb@Base 4:15.08.0
 _ZN10MailCommon14FolderTreeView47slotHeaderContextMenuChangeToolTipDisplayPolicyEb@Base 4:15.08.0
 _ZN10MailCommon14FolderTreeView4initEb@Base 4:15.08.0
 _ZN10MailCommon14FolderTreeViewC1EP13KXMLGUIClientP7QWidgetb@Base 4:15.08.0
 _ZN10MailCommon14FolderTreeViewC1EP7QWidgetb@Base 4:15.08.0
 _ZN10MailCommon14FolderTreeViewC2EP13KXMLGUIClientP7QWidgetb@Base 4:15.08.0
 _ZN10MailCommon14FolderTreeViewC2EP7QWidgetb@Base 4:15.08.0
 _ZN10MailCommon14FolderTreeViewD0Ev@Base 4:15.08.0
 _ZN10MailCommon14FolderTreeViewD1Ev@Base 4:15.08.0
 _ZN10MailCommon14FolderTreeViewD2Ev@Base 4:15.08.0
 _ZN10MailCommon14KMFilterDialog11qt_metacallEN11QMetaObject4CallEiPPv@Base 4:15.08.0
 _ZN10MailCommon14KMFilterDialog11qt_metacastEPKc@Base 4:15.08.0
 _ZN10MailCommon14KMFilterDialog12createFilterERK10QByteArrayRK7QString@Base 4:15.08.0
 _ZN10MailCommon14KMFilterDialog12slotFinishedEv@Base 4:15.08.0
 _ZN10MailCommon14KMFilterDialog12slotSaveSizeEv@Base 4:15.08.0
 _ZN10MailCommon14KMFilterDialog13importFiltersENS_22FilterImporterExporter10FilterTypeE@Base 4:15.08.0
 _ZN10MailCommon14KMFilterDialog14slotRunFiltersEv@Base 4:15.08.0
 _ZN10MailCommon14KMFilterDialog16slotImportFilterEP7QAction@Base 4:15.08.0
 _ZN10MailCommon14KMFilterDialog16slotUpdateFilterEv@Base 4:15.08.0
 _ZN10MailCommon14KMFilterDialog16staticMetaObjectE@Base 4:15.08.0
 _ZN10MailCommon14KMFilterDialog17slotDialogUpdatedEv@Base 4:15.08.0
 _ZN10MailCommon14KMFilterDialog17slotDisableAcceptEv@Base 4:15.08.0
 _ZN10MailCommon14KMFilterDialog17slotExportFiltersEv@Base 4:15.08.0
 _ZN10MailCommon14KMFilterDialog17slotFolderChangedERKN7Akonadi10CollectionE@Base 4:15.08.0
 _ZN10MailCommon14KMFilterDialog18slotFilterSelectedEPNS_10MailFilterE@Base 4:15.08.0
 _ZN10MailCommon14KMFilterDialog19slotShortcutChangedERK12QKeySequence@Base 4:15.08.0
 _ZN10MailCommon14KMFilterDialog21slotUpdateAccountListEv@Base 4:15.08.0
 _ZN10MailCommon14KMFilterDialog23slotExportAsSieveScriptEv@Base 4:15.08.0
 _ZN10MailCommon14KMFilterDialog24slotApplicabilityChangedEv@Base 4:15.08.0
 _ZN10MailCommon14KMFilterDialog27slotFetchItemsForFolderDoneEP4KJob@Base 4:15.08.0
 _ZN10MailCommon14KMFilterDialog27slotFilterActionIconChangedERK7QString@Base 4:15.08.0
 _ZN10MailCommon14KMFilterDialog29slotApplicableAccountsChangedEv@Base 4:15.08.0
 _ZN10MailCommon14KMFilterDialog31slotStopProcessingButtonToggledEb@Base 4:15.08.0
 _ZN10MailCommon14KMFilterDialog33slotConfigureToolbarButtonToggledEb@Base 4:15.08.0
 _ZN10MailCommon14KMFilterDialog34slotConfigureShortcutButtonToggledEb@Base 4:15.08.0
 _ZN10MailCommon14KMFilterDialog5eventEP6QEvent@Base 4:15.08.0
 _ZN10MailCommon14KMFilterDialog6acceptEv@Base 4:15.08.0
 _ZN10MailCommon14KMFilterDialog8slotHelpEv@Base 4:15.08.0
 _ZN10MailCommon14KMFilterDialog9slotApplyEv@Base 4:15.08.0
 _ZN10MailCommon14KMFilterDialog9slotResetEv@Base 4:15.08.0
 _ZN10MailCommon14KMFilterDialogC1ERK5QListIP17KActionCollectionEP7QWidgetb@Base 4:15.08.0
 _ZN10MailCommon14KMFilterDialogC2ERK5QListIP17KActionCollectionEP7QWidgetb@Base 4:15.08.0
 _ZN10MailCommon14RedirectDialog11qt_metacallEN11QMetaObject4CallEiPPv@Base 4:15.08.0
 _ZN10MailCommon14RedirectDialog11qt_metacastEPKc@Base 4:15.08.0
 _ZN10MailCommon14RedirectDialog16staticMetaObjectE@Base 4:15.08.0
 _ZN10MailCommon14RedirectDialog6acceptEv@Base 4:15.08.0
 _ZN10MailCommon14RedirectDialog7Private18slotAddressChangedERK7QString@Base 4:15.08.0
 _ZN10MailCommon14RedirectDialog7Private9slotUser1Ev@Base 4:15.08.0
 _ZN10MailCommon14RedirectDialog7Private9slotUser2Ev@Base 4:15.08.0
 _ZN10MailCommon14RedirectDialogC1ENS0_8SendModeEP7QWidget@Base 4:15.08.0
 _ZN10MailCommon14RedirectDialogC2ENS0_8SendModeEP7QWidget@Base 4:15.08.0
 _ZN10MailCommon14RedirectDialogD0Ev@Base 4:15.08.0
 _ZN10MailCommon14RedirectDialogD1Ev@Base 4:15.08.0
 _ZN10MailCommon14RedirectDialogD2Ev@Base 4:15.08.0
 _ZN10MailCommon14RegExpLineEdit10initWidgetERK7QString@Base 4:15.08.0
 _ZN10MailCommon14RegExpLineEdit11qt_metacallEN11QMetaObject4CallEiPPv@Base 4:15.08.0
 _ZN10MailCommon14RegExpLineEdit11qt_metacastEPKc@Base 4:15.08.0
 _ZN10MailCommon14RegExpLineEdit11textChangedERK7QString@Base 4:15.08.0
 _ZN10MailCommon14RegExpLineEdit13returnPressedEv@Base 4:15.08.0
 _ZN10MailCommon14RegExpLineEdit14showEditButtonEb@Base 4:15.08.0
 _ZN10MailCommon14RegExpLineEdit14slotEditRegExpEv@Base 4:15.08.0
 _ZN10MailCommon14RegExpLineEdit16staticMetaObjectE@Base 4:15.08.0
 _ZN10MailCommon14RegExpLineEdit5clearEv@Base 4:15.08.0
 _ZN10MailCommon14RegExpLineEdit7setTextERK7QString@Base 4:15.08.0
 _ZN10MailCommon14RegExpLineEditC1EP7QWidget@Base 4:15.08.0
 _ZN10MailCommon14RegExpLineEditC1ERK7QStringP7QWidget@Base 4:15.08.0
 _ZN10MailCommon14RegExpLineEditC2EP7QWidget@Base 4:15.08.0
 _ZN10MailCommon14RegExpLineEditC2ERK7QStringP7QWidget@Base 4:15.08.0
 _ZN10MailCommon14SendMdnHandler11qt_metacallEN11QMetaObject4CallEiPPv@Base 4:15.08.0
 _ZN10MailCommon14SendMdnHandler11qt_metacastEPKc@Base 4:15.08.0
 _ZN10MailCommon14SendMdnHandler16staticMetaObjectE@Base 4:15.08.0
 _ZN10MailCommon14SendMdnHandler7Private14handleMessagesEv@Base 4:15.08.0
 _ZN10MailCommon14SendMdnHandler7setItemERKN7Akonadi4ItemE@Base 4:15.08.0
 _ZN10MailCommon14SendMdnHandlerC1EPNS_7IKernelEP7QObject@Base 4:15.08.0
 _ZN10MailCommon14SendMdnHandlerC2EPNS_7IKernelEP7QObject@Base 4:15.08.0
 _ZN10MailCommon14SendMdnHandlerD0Ev@Base 4:15.08.0
 _ZN10MailCommon14SendMdnHandlerD1Ev@Base 4:15.08.0
 _ZN10MailCommon14SendMdnHandlerD2Ev@Base 4:15.08.0
 _ZN10MailCommon15FolderRequester11qt_metacallEN11QMetaObject4CallEiPPv@Base 4:15.08.0
 _ZN10MailCommon15FolderRequester11qt_metacastEPKc@Base 4:15.08.0
 _ZN10MailCommon15FolderRequester13folderChangedERKN7Akonadi10CollectionE@Base 4:15.08.0
 _ZN10MailCommon15FolderRequester13keyPressEventEP9QKeyEvent@Base 4:15.08.0
 _ZN10MailCommon15FolderRequester13setCollectionERKN7Akonadi10CollectionEb@Base 4:15.08.0
 _ZN10MailCommon15FolderRequester13setShowOutboxEb@Base 4:15.08.0
 _ZN10MailCommon15FolderRequester14slotOpenDialogEv@Base 4:15.08.0
 _ZN10MailCommon15FolderRequester16staticMetaObjectE@Base 4:15.08.0
 _ZN10MailCommon15FolderRequester18setMustBeReadWriteEb@Base 4:15.08.0
 _ZN10MailCommon15FolderRequester21setCollectionFullPathERKN7Akonadi10CollectionE@Base 4:15.08.0
 _ZN10MailCommon15FolderRequester23slotCollectionsReceivedEP4KJob@Base 4:15.08.0
 _ZN10MailCommon15FolderRequester28setNotAllowToCreateNewFolderEb@Base 4:15.08.0
 _ZN10MailCommon15FolderRequesterC1EP7QWidget@Base 4:15.08.0
 _ZN10MailCommon15FolderRequesterC2EP7QWidget@Base 4:15.08.0
 _ZN10MailCommon15FolderRequesterD0Ev@Base 4:15.08.0
 _ZN10MailCommon15FolderRequesterD1Ev@Base 4:15.08.0
 _ZN10MailCommon15FolderRequesterD2Ev@Base 4:15.08.0
 _ZN10MailCommon15KMFilterListBox10slotBottomEv@Base 4:15.08.0
 _ZN10MailCommon15KMFilterListBox10slotDeleteEv@Base 4:15.08.0
 _ZN10MailCommon15KMFilterListBox10slotRenameEv@Base 4:15.08.0
 _ZN10MailCommon15KMFilterListBox11eventFilterEP7QObjectP6QEvent@Base 4:15.08.0
 _ZN10MailCommon15KMFilterListBox11qt_metacallEN11QMetaObject4CallEiPPv@Base 4:15.08.0
 _ZN10MailCommon15KMFilterListBox11qt_metacastEPKc@Base 4:15.08.0
 _ZN10MailCommon15KMFilterListBox11slotAppliedEv@Base 4:15.08.0
 _ZN10MailCommon15KMFilterListBox12appendFilterEPNS_10MailFilterE@Base 4:15.08.0
 _ZN10MailCommon15KMFilterListBox12applyWidgetsEv@Base 4:15.08.0
 _ZN10MailCommon15KMFilterListBox12createFilterERK10QByteArrayRK7QString@Base 4:15.08.0
 _ZN10MailCommon15KMFilterListBox12insertFilterEPNS_10MailFilterE@Base 4:15.08.0
 _ZN10MailCommon15KMFilterListBox12resetWidgetsEv@Base 4:15.08.0
 _ZN10MailCommon15KMFilterListBox12slotAcceptedEv@Base 4:15.08.0
 _ZN10MailCommon15KMFilterListBox12slotSelectedEi@Base 4:15.08.0
 _ZN10MailCommon15KMFilterListBox13filterCreatedEv@Base 4:15.08.0
 _ZN10MailCommon15KMFilterListBox13filterRemovedERK5QListIPNS_10MailFilterEE@Base 4:15.08.0
 _ZN10MailCommon15KMFilterListBox13filterUpdatedEPNS_10MailFilterE@Base 4:15.08.0
 _ZN10MailCommon15KMFilterListBox13slotRowsMovedERK11QModelIndexiiS3_i@Base 4:15.08.0
 _ZN10MailCommon15KMFilterListBox14enableControlsEv@Base 4:15.08.0
 _ZN10MailCommon15KMFilterListBox14filterSelectedEPNS_10MailFilterE@Base 4:15.08.0
 _ZN10MailCommon15KMFilterListBox14loadFilterListEb@Base 4:15.08.0
 _ZN10MailCommon15KMFilterListBox14selectedFilterEv@Base 4:15.08.0
 _ZN10MailCommon15KMFilterListBox16staticMetaObjectE@Base 4:15.08.0
 _ZN10MailCommon15KMFilterListBox18applyFilterChangedEb@Base 4:15.08.0
 _ZN10MailCommon15KMFilterListBox18filterOrderAlteredEv@Base 4:15.08.0
 _ZN10MailCommon15KMFilterListBox20slotSelectionChangedEv@Base 4:15.08.0
 _ZN10MailCommon15KMFilterListBox20slotUpdateFilterNameEv@Base 4:15.08.0
 _ZN10MailCommon15KMFilterListBox23swapNeighbouringFiltersEii@Base 4:15.08.0
 _ZN10MailCommon15KMFilterListBox24slotFilterEnabledChangedEP15QListWidgetItem@Base 4:15.08.0
 _ZN10MailCommon15KMFilterListBox6slotUpEv@Base 4:15.08.0
 _ZN10MailCommon15KMFilterListBox7slotNewEv@Base 4:15.08.0
 _ZN10MailCommon15KMFilterListBox7slotTopEv@Base 4:15.08.0
 _ZN10MailCommon15KMFilterListBox8slotCopyEv@Base 4:15.08.0
 _ZN10MailCommon15KMFilterListBox8slotDownEv@Base 4:15.08.0
 _ZN10MailCommon15KMFilterListBoxC1ERK7QStringP7QWidget@Base 4:15.08.0
 _ZN10MailCommon15KMFilterListBoxC2ERK7QStringP7QWidget@Base 4:15.08.0
 _ZN10MailCommon15KMFilterListBoxD0Ev@Base 4:15.08.0
 _ZN10MailCommon15KMFilterListBoxD1Ev@Base 4:15.08.0
 _ZN10MailCommon15KMFilterListBoxD2Ev@Base 4:15.08.0
 _ZN10MailCommon15MDNAdviceDialog11qt_metacallEN11QMetaObject4CallEiPPv@Base 4:15.08.0
 _ZN10MailCommon15MDNAdviceDialog11qt_metacastEPKc@Base 4:15.08.0
 _ZN10MailCommon15MDNAdviceDialog14slotYesClickedEv@Base 4:15.08.0
 _ZN10MailCommon15MDNAdviceDialog16slotUser1ClickedEv@Base 4:15.08.0
 _ZN10MailCommon15MDNAdviceDialog16slotUser2ClickedEv@Base 4:15.08.0
 _ZN10MailCommon15MDNAdviceDialog16staticMetaObjectE@Base 4:15.08.0
 _ZN10MailCommon15MDNAdviceDialogC1ERK7QStringbP7QWidget@Base 4:15.08.0
 _ZN10MailCommon15MDNAdviceDialogC2ERK7QStringbP7QWidget@Base 4:15.08.0
 _ZN10MailCommon15MDNAdviceDialogD0Ev@Base 4:15.08.0
 _ZN10MailCommon15MDNAdviceDialogD1Ev@Base 4:15.08.0
 _ZN10MailCommon15MDNAdviceDialogD2Ev@Base 4:15.08.0
 _ZN10MailCommon15MDNAdviceHelper10s_instanceE@Base 4:15.08.0
 _ZN10MailCommon15MDNAdviceHelper11qt_metacallEN11QMetaObject4CallEiPPv@Base 4:15.08.0
 _ZN10MailCommon15MDNAdviceHelper11qt_metacastEPKc@Base 4:15.08.0
 _ZN10MailCommon15MDNAdviceHelper16staticMetaObjectE@Base 4:15.08.0
 _ZN10MailCommon15MDNAdviceHelper18checkAndSetMDNInfoERKN7Akonadi4ItemEN5KMime3MDN15DispositionTypeEb@Base 4:15.08.0
 _ZN10MailCommon15MDNAdviceHelper18questionIgnoreSendERK7QStringb@Base 4:15.08.0
 _ZN10MailCommon15MDNAdviceHelper18requestAdviceOnMDNEPKc@Base 4:15.08.0
 _ZN10MailCommon15MDNAdviceHelper22dispositionToSentStateEN5KMime3MDN15DispositionTypeE@Base 4:15.08.0
 _ZN10MailCommon15SnippetsManager11qt_metacallEN11QMetaObject4CallEiPPv@Base 4:15.08.0
 _ZN10MailCommon15SnippetsManager11qt_metacastEPKc@Base 4:15.08.0
 _ZN10MailCommon15SnippetsManager16staticMetaObjectE@Base 4:15.08.0
 _ZN10MailCommon15SnippetsManager7Private10addSnippetEv@Base 4:15.08.0
 _ZN10MailCommon15SnippetsManager7Private11createGroupERK7QString@Base 4:15.08.0
 _ZN10MailCommon15SnippetsManager7Private11editSnippetEv@Base 4:15.08.0
 _ZN10MailCommon15SnippetsManager7Private13createSnippetERK11QModelIndexRK7QStringS7_S7_@Base 4:15.08.0
 _ZN10MailCommon15SnippetsManager7Private13deleteSnippetEv@Base 4:15.08.0
 _ZN10MailCommon15SnippetsManager7Private15addSnippetGroupEv@Base 4:15.08.0
 _ZN10MailCommon15SnippetsManager7Private16editSnippetGroupEv@Base 4:15.08.0
 _ZN10MailCommon15SnippetsManager7Private16replaceVariablesERK7QString@Base 4:15.08.0
 _ZN10MailCommon15SnippetsManager7Private16selectionChangedEv@Base 4:15.08.0
 _ZN10MailCommon15SnippetsManager7Private18deleteSnippetGroupEv@Base 4:15.08.0
 _ZN10MailCommon15SnippetsManager7Private19insertActionSnippetEv@Base 4:15.08.0
 _ZN10MailCommon15SnippetsManager7Private21insertSelectedSnippetEv@Base 4:15.08.0
 _ZN10MailCommon15SnippetsManager7Private22updateActionCollectionERK7QStringS4_RK12QKeySequenceS4_@Base 4:15.08.0
 _ZN10MailCommon15SnippetsManager7Private4loadEv@Base 4:15.08.0
 _ZN10MailCommon15SnippetsManager7Private4saveEv@Base 4:15.08.0
 _ZN10MailCommon15SnippetsManager7Private7dndDoneEv@Base 4:15.08.0
 _ZN10MailCommon15SnippetsManager9setEditorEP7QObjectPKcS4_@Base 4:15.08.0
 _ZN10MailCommon15SnippetsManagerC1EP17KActionCollectionP7QObjectP7QWidget@Base 4:15.08.0
 _ZN10MailCommon15SnippetsManagerC2EP17KActionCollectionP7QObjectP7QWidget@Base 4:15.08.0
 _ZN10MailCommon15SnippetsManagerD0Ev@Base 4:15.08.0
 _ZN10MailCommon15SnippetsManagerD1Ev@Base 4:15.08.0
 _ZN10MailCommon15SnippetsManagerD2Ev@Base 4:15.08.0
 _ZN10MailCommon16FilterActionDict6insertEPFPNS_12FilterActionEvE@Base 4:15.08.0
 _ZN10MailCommon16FilterActionDictC1Ev@Base 4:15.08.0
 _ZN10MailCommon16FilterActionDictC2Ev@Base 4:15.08.0
 _ZN10MailCommon16FilterActionDictD0Ev@Base 4:15.08.0
 _ZN10MailCommon16FilterActionDictD1Ev@Base 4:15.08.0
 _ZN10MailCommon16FilterActionDictD2Ev@Base 4:15.08.0
 _ZN10MailCommon16FolderCollection10clearCacheEv@Base 4:15.08.0
 _ZN10MailCommon16FolderCollection10readConfigEv@Base 4:15.08.0
 _ZN10MailCommon16FolderCollection11qt_metacallEN11QMetaObject4CallEiPPv@Base 4:15.08.0
 _ZN10MailCommon16FolderCollection11qt_metacastEPKc@Base 4:15.08.0
 _ZN10MailCommon16FolderCollection11setIdentityEj@Base 4:15.08.0
 _ZN10MailCommon16FolderCollection11setShortcutERK12QKeySequence@Base 4:15.08.0
 _ZN10MailCommon16FolderCollection13forCollectionERKN7Akonadi10CollectionEb@Base 4:15.08.0
 _ZN10MailCommon16FolderCollection13setCollectionERKN7Akonadi10CollectionE@Base 4:15.08.0
 _ZN10MailCommon16FolderCollection14setMailingListERKN11MessageCore11MailingListE@Base 4:15.08.0
 _ZN10MailCommon16FolderCollection14setWriteConfigEb@Base 4:15.08.0
 _ZN10MailCommon16FolderCollection15configGroupNameERKN7Akonadi10CollectionE@Base 4:15.08.0
 _ZN10MailCommon16FolderCollection16staticMetaObjectE@Base 4:15.08.0
 _ZN10MailCommon16FolderCollection21setMailingListEnabledEb@Base 4:15.08.0
 _ZN10MailCommon16FolderCollection21setUseDefaultIdentityEb@Base 4:15.08.0
 _ZN10MailCommon16FolderCollection21slotIdentitiesChangedEv@Base 4:15.08.0
 _ZN10MailCommon16FolderCollectionC1ERKN7Akonadi10CollectionEb@Base 4:15.08.0
 _ZN10MailCommon16FolderCollectionC2ERKN7Akonadi10CollectionEb@Base 4:15.08.0
 _ZN10MailCommon16FolderCollectionD0Ev@Base 4:15.08.0
 _ZN10MailCommon16FolderCollectionD1Ev@Base 4:15.08.0
 _ZN10MailCommon16FolderCollectionD2Ev@Base 4:15.08.0
 _ZN10MailCommon16FolderTreeWidget10readConfigEv@Base 4:15.08.0
 _ZN10MailCommon16FolderTreeWidget11applyFilterERK7QString@Base 4:15.08.0
 _ZN10MailCommon16FolderTreeWidget11clearFilterEv@Base 4:15.08.0
 _ZN10MailCommon16FolderTreeWidget11eventFilterEP7QObjectP6QEvent@Base 4:15.08.0
 _ZN10MailCommon16FolderTreeWidget11qt_metacallEN11QMetaObject4CallEiPPv@Base 4:15.08.0
 _ZN10MailCommon16FolderTreeWidget11qt_metacastEPKc@Base 4:15.08.0
 _ZN10MailCommon16FolderTreeWidget15readQuotaConfigEv@Base 4:15.08.0
 _ZN10MailCommon16FolderTreeWidget16setSelectionModeEN17QAbstractItemView13SelectionModeE@Base 4:15.08.0
 _ZN10MailCommon16FolderTreeWidget16staticMetaObjectE@Base 4:15.08.0
 _ZN10MailCommon16FolderTreeWidget18restoreHeaderStateERK10QByteArray@Base 4:15.08.0
 _ZN10MailCommon16FolderTreeWidget21slotFilterFixedStringERK7QString@Base 4:15.08.0
 _ZN10MailCommon16FolderTreeWidget22quotaWarningParametersERK6QColord@Base 4:15.08.0
 _ZN10MailCommon16FolderTreeWidget22selectCollectionFolderERKN7Akonadi10CollectionE@Base 4:15.08.0
 _ZN10MailCommon16FolderTreeWidget22slotGeneralFontChangedEv@Base 4:15.08.0
 _ZN10MailCommon16FolderTreeWidget24slotChangeTooltipsPolicyENS0_20ToolTipDisplayPolicyE@Base 4:15.08.0
 _ZN10MailCommon16FolderTreeWidget24slotManualSortingChangedEb@Base 4:15.08.0
 _ZN10MailCommon16FolderTreeWidget25slotGeneralPaletteChangedEv@Base 4:15.08.0
 _ZN10MailCommon16FolderTreeWidget26changeToolTipsPolicyConfigENS0_20ToolTipDisplayPolicyE@Base 4:15.08.0
 _ZN10MailCommon16FolderTreeWidget32disableContextMenuAndExtraColumnEv@Base 4:15.08.0
 _ZN10MailCommon16FolderTreeWidgetC1EP7QWidgetP13KXMLGUIClient6QFlagsINS0_14TreeViewOptionEES5_INS_26FolderTreeWidgetProxyModel32FolderTreeWidgetProxyModelOptionEE@Base 4:15.08.0
 _ZN10MailCommon16FolderTreeWidgetC2EP7QWidgetP13KXMLGUIClient6QFlagsINS0_14TreeViewOptionEES5_INS_26FolderTreeWidgetProxyModel32FolderTreeWidgetProxyModelOptionEE@Base 4:15.08.0
 _ZN10MailCommon16FolderTreeWidgetD0Ev@Base 4:15.08.0
 _ZN10MailCommon16FolderTreeWidgetD1Ev@Base 4:15.08.0
 _ZN10MailCommon16FolderTreeWidgetD2Ev@Base 4:15.08.0
 _ZN10MailCommon16SearchRuleStatus21statusFromEnglishNameERK7QString@Base 4:15.08.0
 _ZN10MailCommon16SearchRuleStatusC1EN7Akonadi13MessageStatusENS_10SearchRule8FunctionE@Base 4:15.08.0
 _ZN10MailCommon16SearchRuleStatusC1ERK10QByteArrayNS_10SearchRule8FunctionERK7QString@Base 4:15.08.0
 _ZN10MailCommon16SearchRuleStatusC2EN7Akonadi13MessageStatusENS_10SearchRule8FunctionE@Base 4:15.08.0
 _ZN10MailCommon16SearchRuleStatusC2ERK10QByteArrayNS_10SearchRule8FunctionERK7QString@Base 4:15.08.0
 _ZN10MailCommon17ContentTypeWidget11qt_metacallEN11QMetaObject4CallEiPPv@Base 4:15.08.0
 _ZN10MailCommon17ContentTypeWidget11qt_metacastEPKc@Base 4:15.08.0
 _ZN10MailCommon17ContentTypeWidget14setCurrentItemERK7QString@Base 4:15.08.0
 _ZN10MailCommon17ContentTypeWidget15setCurrentIndexEi@Base 4:15.08.0
 _ZN10MailCommon17ContentTypeWidget16staticMetaObjectE@Base 4:15.08.0
 _ZN10MailCommon17ContentTypeWidget9activatedEi@Base 4:15.08.0
 _ZN10MailCommon17ContentTypeWidgetC1EP7QWidget@Base 4:15.08.0
 _ZN10MailCommon17ContentTypeWidgetC2EP7QWidget@Base 4:15.08.0
 _ZN10MailCommon17ContentTypeWidgetD0Ev@Base 4:15.08.0
 _ZN10MailCommon17ContentTypeWidgetD1Ev@Base 4:15.08.0
 _ZN10MailCommon17ContentTypeWidgetD2Ev@Base 4:15.08.0
 _ZN10MailCommon17InvalidFilterInfo14setInformationERK7QString@Base 4:15.08.0
 _ZN10MailCommon17InvalidFilterInfo7setNameERK7QString@Base 4:15.08.0
 _ZN10MailCommon17InvalidFilterInfoC1ERK7QStringS3_@Base 4:15.08.0
 _ZN10MailCommon17InvalidFilterInfoC1Ev@Base 4:15.08.0
 _ZN10MailCommon17InvalidFilterInfoC2ERK7QStringS3_@Base 4:15.08.0
 _ZN10MailCommon17InvalidFilterInfoC2Ev@Base 4:15.08.0
 _ZN10MailCommon17SearchPatternEdit10initLayoutE6QFlagsINS0_23SearchPatternEditOptionEENS0_14SearchModeTypeE@Base 4:15.08.0
 _ZN10MailCommon17SearchPatternEdit11qt_metacallEN11QMetaObject4CallEiPPv@Base 4:15.08.0
 _ZN10MailCommon17SearchPatternEdit11qt_metacastEPKc@Base 4:15.08.0
 _ZN10MailCommon17SearchPatternEdit13returnPressedEv@Base 4:15.08.0
 _ZN10MailCommon17SearchPatternEdit13slotRuleAddedEP7QWidget@Base 4:15.08.0
 _ZN10MailCommon17SearchPatternEdit14patternChangedEv@Base 4:15.08.0
 _ZN10MailCommon17SearchPatternEdit16maybeNameChangedEv@Base 4:15.08.0
 _ZN10MailCommon17SearchPatternEdit16setSearchPatternEPNS_13SearchPatternE@Base 4:15.08.0
 _ZN10MailCommon17SearchPatternEdit16slotAutoNameHackEv@Base 4:15.08.0
 _ZN10MailCommon17SearchPatternEdit16slotRadioClickedEP15QAbstractButton@Base 4:15.08.0
 _ZN10MailCommon17SearchPatternEdit16staticMetaObjectE@Base 4:15.08.0
 _ZN10MailCommon17SearchPatternEdit19updateSearchPatternEv@Base 4:15.08.0
 _ZN10MailCommon17SearchPatternEdit21setPatternEditOptionsE6QFlagsINS0_23SearchPatternEditOptionEE@Base 4:15.08.0
 _ZN10MailCommon17SearchPatternEdit5resetEv@Base 4:15.08.0
 _ZN10MailCommon17SearchPatternEditC1EP7QWidget6QFlagsINS0_23SearchPatternEditOptionEENS0_14SearchModeTypeE@Base 4:15.08.0
 _ZN10MailCommon17SearchPatternEditC2EP7QWidget6QFlagsINS0_23SearchPatternEditOptionEENS0_14SearchModeTypeE@Base 4:15.08.0
 _ZN10MailCommon17SearchPatternEditD0Ev@Base 4:15.08.0
 _ZN10MailCommon17SearchPatternEditD1Ev@Base 4:15.08.0
 _ZN10MailCommon17SearchPatternEditD2Ev@Base 4:15.08.0
 _ZN10MailCommon18CollectionTypeUtil15kolabFolderTypeEv@Base 4:15.08.0
 _ZN10MailCommon18CollectionTypeUtil15kolabSharedSeenEv@Base 4:15.08.0
 _ZN10MailCommon18CollectionTypeUtil17kolabNameFromTypeENS0_18FolderContentsTypeE@Base 4:15.08.0
 _ZN10MailCommon18CollectionTypeUtil17typeFromKolabNameERK10QByteArray@Base 4:15.08.0
 _ZN10MailCommon18CollectionTypeUtil18kolabIncidencesForEv@Base 4:15.08.0
 _ZN10MailCommon18CollectionTypeUtil21incidencesForToStringENS0_13IncidencesForE@Base 4:15.08.0
 _ZN10MailCommon18CollectionTypeUtil21typeNameFromKolabTypeERK10QByteArray@Base 4:15.08.0
 _ZN10MailCommon18CollectionTypeUtil22contentsTypeFromStringERK7QString@Base 4:15.08.0
 _ZN10MailCommon18CollectionTypeUtil23incidencesForFromStringERK7QString@Base 4:15.08.0
 _ZN10MailCommon18CollectionTypeUtil24folderContentDescriptionENS0_18FolderContentsTypeE@Base 4:15.08.0
 _ZN10MailCommon18CollectionTypeUtil24iconNameFromContentsTypeENS0_18FolderContentsTypeE@Base 4:15.08.0
 _ZN10MailCommon18CollectionTypeUtilC1Ev@Base 4:15.08.0
 _ZN10MailCommon18CollectionTypeUtilC2Ev@Base 4:15.08.0
 _ZN10MailCommon18CollectionTypeUtilD1Ev@Base 4:15.08.0
 _ZN10MailCommon18CollectionTypeUtilD2Ev@Base 4:15.08.0
 _ZN10MailCommon18MailCommonSettings4selfEv@Base 4:15.08.0
 _ZN10MailCommon18MailCommonSettingsC1Ev@Base 4:15.08.0
 _ZN10MailCommon18MailCommonSettingsC2Ev@Base 4:15.08.0
 _ZN10MailCommon18MailCommonSettingsD0Ev@Base 4:15.08.0
 _ZN10MailCommon18MailCommonSettingsD1Ev@Base 4:15.08.0
 _ZN10MailCommon18MailCommonSettingsD2Ev@Base 4:15.08.0
 _ZN10MailCommon19FilterImporterGmail12parseFiltersERK11QDomElement@Base 4:15.08.0
 _ZN10MailCommon19FilterImporterGmail20createUniqFilterNameEv@Base 4:15.08.0
 _ZN10MailCommon19FilterImporterGmail26defaultFiltersSettingsPathEv@Base 4:15.08.0
 _ZN10MailCommon19FilterImporterGmailC1EP5QFile@Base 4:15.08.0
 _ZN10MailCommon19FilterImporterGmailC2EP5QFile@Base 4:15.08.0
 _ZN10MailCommon19FilterImporterGmailD1Ev@Base 4:15.08.0
 _ZN10MailCommon19FilterImporterGmailD2Ev@Base 4:15.08.0
 _ZN10MailCommon19IncidencesForWidget11qt_metacallEN11QMetaObject4CallEiPPv@Base 4:15.08.0
 _ZN10MailCommon19IncidencesForWidget11qt_metacastEPKc@Base 4:15.08.0
 _ZN10MailCommon19IncidencesForWidget15setCurrentIndexEi@Base 4:15.08.0
 _ZN10MailCommon19IncidencesForWidget16staticMetaObjectE@Base 4:15.08.0
 _ZN10MailCommon19IncidencesForWidget19currentIndexChangedEi@Base 4:15.08.0
 _ZN10MailCommon19IncidencesForWidgetC1EP7QWidget@Base 4:15.08.0
 _ZN10MailCommon19IncidencesForWidgetC2EP7QWidget@Base 4:15.08.0
 _ZN10MailCommon19IncidencesForWidgetD0Ev@Base 4:15.08.0
 _ZN10MailCommon19IncidencesForWidgetD1Ev@Base 4:15.08.0
 _ZN10MailCommon19IncidencesForWidgetD2Ev@Base 4:15.08.0
 _ZN10MailCommon19InvalidFilterDialog10readConfigEv@Base 4:15.08.0
 _ZN10MailCommon19InvalidFilterDialog11qt_metacallEN11QMetaObject4CallEiPPv@Base 4:15.08.0
 _ZN10MailCommon19InvalidFilterDialog11qt_metacastEPKc@Base 4:15.08.0
 _ZN10MailCommon19InvalidFilterDialog11writeConfigEv@Base 4:15.08.0
 _ZN10MailCommon19InvalidFilterDialog16staticMetaObjectE@Base 4:15.08.0
 _ZN10MailCommon19InvalidFilterDialog17setInvalidFiltersERK7QVectorINS_17InvalidFilterInfoEE@Base 4:15.08.0
 _ZN10MailCommon19InvalidFilterDialogC1EP7QWidget@Base 4:15.08.0
 _ZN10MailCommon19InvalidFilterDialogC2EP7QWidget@Base 4:15.08.0
 _ZN10MailCommon19InvalidFilterDialogD0Ev@Base 4:15.08.0
 _ZN10MailCommon19InvalidFilterDialogD1Ev@Base 4:15.08.0
 _ZN10MailCommon19InvalidFilterDialogD2Ev@Base 4:15.08.0
 _ZN10MailCommon19InvalidFilterWidget11qt_metacallEN11QMetaObject4CallEiPPv@Base 4:15.08.0
 _ZN10MailCommon19InvalidFilterWidget11qt_metacastEPKc@Base 4:15.08.0
 _ZN10MailCommon19InvalidFilterWidget11showDetailsERK7QString@Base 4:15.08.0
 _ZN10MailCommon19InvalidFilterWidget16staticMetaObjectE@Base 4:15.08.0
 _ZN10MailCommon19InvalidFilterWidget17setInvalidFiltersERK7QVectorINS_17InvalidFilterInfoEE@Base 4:15.08.0
 _ZN10MailCommon19InvalidFilterWidget21hideInformationWidgetEv@Base 4:15.08.0
 _ZN10MailCommon19InvalidFilterWidgetC1EP7QWidget@Base 4:15.08.0
 _ZN10MailCommon19InvalidFilterWidgetC2EP7QWidget@Base 4:15.08.0
 _ZN10MailCommon19InvalidFilterWidgetD0Ev@Base 4:15.08.0
 _ZN10MailCommon19InvalidFilterWidgetD1Ev@Base 4:15.08.0
 _ZN10MailCommon19InvalidFilterWidgetD2Ev@Base 4:15.08.0
 _ZN10MailCommon20CollectionExpiryPage11qt_metacallEN11QMetaObject4CallEiPPv@Base 4:15.08.0
 _ZN10MailCommon20CollectionExpiryPage11qt_metacastEPKc@Base 4:15.08.0
 _ZN10MailCommon20CollectionExpiryPage11slotChangedEv@Base 4:15.08.0
 _ZN10MailCommon20CollectionExpiryPage13saveAndExpireERN7Akonadi10CollectionEbb@Base 4:15.08.0
 _ZN10MailCommon20CollectionExpiryPage16staticMetaObjectE@Base 4:15.08.0
 _ZN10MailCommon20CollectionExpiryPage17slotSaveAndExpireEv@Base 4:15.08.0
 _ZN10MailCommon20CollectionExpiryPage18slotUpdateControlsEv@Base 4:15.08.0
 _ZN10MailCommon20CollectionExpiryPage22slotCollectionModifiedEP4KJob@Base 4:15.08.0
 _ZN10MailCommon20CollectionExpiryPage4initEv@Base 4:15.08.0
 _ZN10MailCommon20CollectionExpiryPage4loadERKN7Akonadi10CollectionE@Base 4:15.08.0
 _ZN10MailCommon20CollectionExpiryPage4saveERN7Akonadi10CollectionE@Base 4:15.08.0
 _ZN10MailCommon20CollectionExpiryPageC1EP7QWidget@Base 4:15.08.0
 _ZN10MailCommon20CollectionExpiryPageC2EP7QWidget@Base 4:15.08.0
 _ZN10MailCommon20CollectionExpiryPageD0Ev@Base 4:15.08.0
 _ZN10MailCommon20CollectionExpiryPageD1Ev@Base 4:15.08.0
 _ZN10MailCommon20CollectionExpiryPageD2Ev@Base 4:15.08.0
 _ZN10MailCommon21CollectionGeneralPage11qt_metacallEN11QMetaObject4CallEiPPv@Base 4:15.08.0
 _ZN10MailCommon21CollectionGeneralPage11qt_metacastEPKc@Base 4:15.08.0
 _ZN10MailCommon21CollectionGeneralPage15slotNameChangedERK7QString@Base 4:15.08.0
 _ZN10MailCommon21CollectionGeneralPage16staticMetaObjectE@Base 4:15.08.0
 _ZN10MailCommon21CollectionGeneralPage27slotIdentityCheckboxChangedEv@Base 4:15.08.0
 _ZN10MailCommon21CollectionGeneralPage34slotFolderContentsSelectionChangedEi@Base 4:15.08.0
 _ZN10MailCommon21CollectionGeneralPage4initERKN7Akonadi10CollectionE@Base 4:15.08.0
 _ZN10MailCommon21CollectionGeneralPage4loadERKN7Akonadi10CollectionE@Base 4:15.08.0
 _ZN10MailCommon21CollectionGeneralPage4saveERN7Akonadi10CollectionE@Base 4:15.08.0
 _ZN10MailCommon21CollectionGeneralPage7addLineEP7QWidgetP11QVBoxLayout@Base 4:15.08.0
 _ZN10MailCommon21CollectionGeneralPageC1EP7QWidget@Base 4:15.08.0
 _ZN10MailCommon21CollectionGeneralPageC2EP7QWidget@Base 4:15.08.0
 _ZN10MailCommon21CollectionGeneralPageD0Ev@Base 4:15.08.0
 _ZN10MailCommon21CollectionGeneralPageD1Ev@Base 4:15.08.0
 _ZN10MailCommon21CollectionGeneralPageD2Ev@Base 4:15.08.0
 _ZN10MailCommon21FolderSelectionDialog10readConfigEv@Base 4:15.08.0
 _ZN10MailCommon21FolderSelectionDialog11qt_metacallEN11QMetaObject4CallEiPPv@Base 4:15.08.0
 _ZN10MailCommon21FolderSelectionDialog11qt_metacastEPKc@Base 4:15.08.0
 _ZN10MailCommon21FolderSelectionDialog11writeConfigEv@Base 4:15.08.0
 _ZN10MailCommon21FolderSelectionDialog12rowsInsertedERK11QModelIndexii@Base 4:15.08.0
 _ZN10MailCommon21FolderSelectionDialog13focusTreeViewEv@Base 4:15.08.0
 _ZN10MailCommon21FolderSelectionDialog15slotDoubleClickERK11QModelIndex@Base 4:15.08.0
 _ZN10MailCommon21FolderSelectionDialog16setSelectionModeEN17QAbstractItemView13SelectionModeE@Base 4:15.08.0
 _ZN10MailCommon21FolderSelectionDialog16staticMetaObjectE@Base 4:15.08.0
 _ZN10MailCommon21FolderSelectionDialog18slotAddChildFolderEv@Base 4:15.08.0
 _ZN10MailCommon21FolderSelectionDialog19canCreateCollectionERN7Akonadi10CollectionE@Base 4:15.08.0
 _ZN10MailCommon21FolderSelectionDialog20slotSelectionChangedEv@Base 4:15.08.0
 _ZN10MailCommon21FolderSelectionDialog21setSelectedCollectionERKN7Akonadi10CollectionE@Base 4:15.08.0
 _ZN10MailCommon21FolderSelectionDialog24collectionCreationResultEP4KJob@Base 4:15.08.0
 _ZN10MailCommon21FolderSelectionDialog40slotFolderTreeWidgetContextMenuRequestedERK6QPoint@Base 4:15.08.0
 _ZN10MailCommon21FolderSelectionDialog9hideEventEP10QHideEvent@Base 4:15.08.0
 _ZN10MailCommon21FolderSelectionDialog9showEventEP10QShowEvent@Base 4:15.08.0
 _ZN10MailCommon21FolderSelectionDialogC1EP7QWidget6QFlagsINS0_21SelectionFolderOptionEE@Base 4:15.08.0
 _ZN10MailCommon21FolderSelectionDialogC2EP7QWidget6QFlagsINS0_21SelectionFolderOptionEE@Base 4:15.08.0
 _ZN10MailCommon21FolderSelectionDialogD0Ev@Base 4:15.08.0
 _ZN10MailCommon21FolderSelectionDialogD1Ev@Base 4:15.08.0
 _ZN10MailCommon21FolderSelectionDialogD2Ev@Base 4:15.08.0
 _ZN10MailCommon21InvalidFilterListView11qt_metacallEN11QMetaObject4CallEiPPv@Base 4:15.08.0
 _ZN10MailCommon21InvalidFilterListView11qt_metacastEPKc@Base 4:15.08.0
 _ZN10MailCommon21InvalidFilterListView11showDetailsERK7QString@Base 4:15.08.0
 _ZN10MailCommon21InvalidFilterListView16staticMetaObjectE@Base 4:15.08.0
 _ZN10MailCommon21InvalidFilterListView17setInvalidFiltersERK7QVectorINS_17InvalidFilterInfoEE@Base 4:15.08.0
 _ZN10MailCommon21InvalidFilterListView21hideInformationWidgetEv@Base 4:15.08.0
 _ZN10MailCommon21InvalidFilterListViewC1EP7QWidget@Base 4:15.08.0
 _ZN10MailCommon21InvalidFilterListViewC2EP7QWidget@Base 4:15.08.0
 _ZN10MailCommon21InvalidFilterListViewD0Ev@Base 4:15.08.0
 _ZN10MailCommon21InvalidFilterListViewD1Ev@Base 4:15.08.0
 _ZN10MailCommon21InvalidFilterListViewD2Ev@Base 4:15.08.0
 _ZN10MailCommon22FilterImporterAbstract12appendFilterEPNS_10MailFilterE@Base 4:15.08.0
 _ZN10MailCommon22FilterImporterAbstract14loadDomElementER12QDomDocumentP5QFile@Base 4:15.08.0
 _ZN10MailCommon22FilterImporterAbstract18createFilterActionEPNS_10MailFilterERK7QStringS5_@Base 4:15.08.0
 _ZN10MailCommon22FilterImporterAbstractC1Eb@Base 4:15.08.0
 _ZN10MailCommon22FilterImporterAbstractC2Eb@Base 4:15.08.0
 _ZN10MailCommon22FilterImporterAbstractD1Ev@Base 4:15.08.0
 _ZN10MailCommon22FilterImporterAbstractD2Ev@Base 4:15.08.0
 _ZN10MailCommon22FilterImporterExporter13exportFiltersERK5QListIPNS_10MailFilterEERK4QUrlb@Base 4:15.08.0
 _ZN10MailCommon22FilterImporterExporter13importFiltersERbNS0_10FilterTypeERK7QString@Base 4:15.08.0
 _ZN10MailCommon22FilterImporterExporter20writeFiltersToConfigERK5QListIPNS_10MailFilterEE28QExplicitlySharedDataPointerI13KSharedConfigEb@Base 4:15.08.0
 _ZN10MailCommon22FilterImporterExporter21readFiltersFromConfigE28QExplicitlySharedDataPointerI13KSharedConfigER11QStringList@Base 4:15.08.0
 _ZN10MailCommon22FilterImporterExporterC1EP7QWidget@Base 4:15.08.0
 _ZN10MailCommon22FilterImporterExporterC2EP7QWidget@Base 4:15.08.0
 _ZN10MailCommon22FilterImporterExporterD0Ev@Base 4:15.08.0
 _ZN10MailCommon22FilterImporterExporterD1Ev@Base 4:15.08.0
 _ZN10MailCommon22FilterImporterExporterD2Ev@Base 4:15.08.0
 _ZN10MailCommon23FolderCollectionMonitor11qt_metacallEN11QMetaObject4CallEiPPv@Base 4:15.08.0
 _ZN10MailCommon23FolderCollectionMonitor11qt_metacastEPKc@Base 4:15.08.0
 _ZN10MailCommon23FolderCollectionMonitor13slotDeleteJobEP4KJob@Base 4:15.08.0
 _ZN10MailCommon23FolderCollectionMonitor16expireAllFoldersEbP18QAbstractItemModel@Base 4:15.08.0
 _ZN10MailCommon23FolderCollectionMonitor16staticMetaObjectE@Base 4:15.08.0
 _ZN10MailCommon23FolderCollectionMonitor19expireAllCollectionEPK18QAbstractItemModelbRK11QModelIndex@Base 4:15.08.0
 _ZN10MailCommon23FolderCollectionMonitor7expungeERKN7Akonadi10CollectionEb@Base 4:15.08.0
 _ZN10MailCommon23FolderCollectionMonitorC1EPN7Akonadi7SessionEP7QObject@Base 4:15.08.0
 _ZN10MailCommon23FolderCollectionMonitorC2EPN7Akonadi7SessionEP7QObject@Base 4:15.08.0
 _ZN10MailCommon23FolderCollectionMonitorD0Ev@Base 4:15.08.0
 _ZN10MailCommon23FolderCollectionMonitorD1Ev@Base 4:15.08.0
 _ZN10MailCommon23FolderCollectionMonitorD2Ev@Base 4:15.08.0
 _ZN10MailCommon23InvalidFilterInfoWidget11qt_metacallEN11QMetaObject4CallEiPPv@Base 4:15.08.0
 _ZN10MailCommon23InvalidFilterInfoWidget11qt_metacastEPKc@Base 4:15.08.0
 _ZN10MailCommon23InvalidFilterInfoWidget15slotShowDetailsERK7QString@Base 4:15.08.0
 _ZN10MailCommon23InvalidFilterInfoWidget16staticMetaObjectE@Base 4:15.08.0
 _ZN10MailCommon23InvalidFilterInfoWidgetC1EP7QWidget@Base 4:15.08.0
 _ZN10MailCommon23InvalidFilterInfoWidgetC2EP7QWidget@Base 4:15.08.0
 _ZN10MailCommon23InvalidFilterInfoWidgetD0Ev@Base 4:15.08.0
 _ZN10MailCommon23InvalidFilterInfoWidgetD1Ev@Base 4:15.08.0
 _ZN10MailCommon23InvalidFilterInfoWidgetD2Ev@Base 4:15.08.0
 _ZN10MailCommon24AccountConfigOrderDialog10readConfigEv@Base 4:15.08.0
 _ZN10MailCommon24AccountConfigOrderDialog10slotMoveUpEv@Base 4:15.08.0
 _ZN10MailCommon24AccountConfigOrderDialog11qt_metacallEN11QMetaObject4CallEiPPv@Base 4:15.08.0
 _ZN10MailCommon24AccountConfigOrderDialog11qt_metacastEPKc@Base 4:15.08.0
 _ZN10MailCommon24AccountConfigOrderDialog11writeConfigEv@Base 4:15.08.0
 _ZN10MailCommon24AccountConfigOrderDialog12slotMoveDownEv@Base 4:15.08.0
 _ZN10MailCommon24AccountConfigOrderDialog16staticMetaObjectE@Base 4:15.08.0
 _ZN10MailCommon24AccountConfigOrderDialog18slotEnableControlsEv@Base 4:15.08.0
 _ZN10MailCommon24AccountConfigOrderDialog22slotEnableAccountOrderEb@Base 4:15.08.0
 _ZN10MailCommon24AccountConfigOrderDialog4initEv@Base 4:15.08.0
 _ZN10MailCommon24AccountConfigOrderDialog6slotOkEv@Base 4:15.08.0
 _ZN10MailCommon24AccountConfigOrderDialogC1EP7QWidget@Base 4:15.08.0
 _ZN10MailCommon24AccountConfigOrderDialogC2EP7QWidget@Base 4:15.08.0
 _ZN10MailCommon24AccountConfigOrderDialogD0Ev@Base 4:15.08.0
 _ZN10MailCommon24AccountConfigOrderDialogD1Ev@Base 4:15.08.0
 _ZN10MailCommon24AccountConfigOrderDialogD2Ev@Base 4:15.08.0
 _ZN10MailCommon24FavoriteCollectionWidget10createMenuEP17KActionCollection@Base 4:15.08.0
 _ZN10MailCommon24FavoriteCollectionWidget10paintEventEP11QPaintEvent@Base 4:15.08.0
 _ZN10MailCommon24FavoriteCollectionWidget10readConfigEv@Base 4:15.08.0
 _ZN10MailCommon24FavoriteCollectionWidget10updateModeEv@Base 4:15.08.0
 _ZN10MailCommon24FavoriteCollectionWidget11qt_metacallEN11QMetaObject4CallEiPPv@Base 4:15.08.0
 _ZN10MailCommon24FavoriteCollectionWidget11qt_metacastEPKc@Base 4:15.08.0
 _ZN10MailCommon24FavoriteCollectionWidget14changeViewModeEN9QListView8ViewModeE@Base 4:15.08.0
 _ZN10MailCommon24FavoriteCollectionWidget14slotChangeModeEb@Base 4:15.08.0
 _ZN10MailCommon24FavoriteCollectionWidget16staticMetaObjectE@Base 4:15.08.0
 _ZN10MailCommon24FavoriteCollectionWidget18slotChangeIconSizeEb@Base 4:15.08.0
 _ZN10MailCommon24FavoriteCollectionWidget22slotGeneralFontChangedEv@Base 4:15.08.0
 _ZN10MailCommon24FavoriteCollectionWidget25slotGeneralPaletteChangedEv@Base 4:15.08.0
 _ZN10MailCommon24FavoriteCollectionWidgetC1EP13KXMLGUIClientP7QWidget@Base 4:15.08.0
 _ZN10MailCommon24FavoriteCollectionWidgetC2EP13KXMLGUIClientP7QWidget@Base 4:15.08.0
 _ZN10MailCommon24FavoriteCollectionWidgetD0Ev@Base 4:15.08.0
 _ZN10MailCommon24FavoriteCollectionWidgetD1Ev@Base 4:15.08.0
 _ZN10MailCommon24FavoriteCollectionWidgetD2Ev@Base 4:15.08.0
 _ZN10MailCommon24FilterActionWidgetLister11clearWidgetEP7QWidget@Base 4:15.08.0
 _ZN10MailCommon24FilterActionWidgetLister11qt_metacallEN11QMetaObject4CallEiPPv@Base 4:15.08.0
 _ZN10MailCommon24FilterActionWidgetLister11qt_metacastEPKc@Base 4:15.08.0
 _ZN10MailCommon24FilterActionWidgetLister12createWidgetEP7QWidget@Base 4:15.08.0
 _ZN10MailCommon24FilterActionWidgetLister13connectWidgetEP7QWidgetPNS_12FilterActionE@Base 4:15.08.0
 _ZN10MailCommon24FilterActionWidgetLister13setActionListEP5QListIPNS_12FilterActionEE@Base 4:15.08.0
 _ZN10MailCommon24FilterActionWidgetLister13slotAddWidgetEP7QWidget@Base 4:15.08.0
 _ZN10MailCommon24FilterActionWidgetLister14filterModifiedEv@Base 4:15.08.0
 _ZN10MailCommon24FilterActionWidgetLister15reconnectWidgetEPNS_18FilterActionWidgetE@Base 4:15.08.0
 _ZN10MailCommon24FilterActionWidgetLister16slotRemoveWidgetEP7QWidget@Base 4:15.08.0
 _ZN10MailCommon24FilterActionWidgetLister16staticMetaObjectE@Base 4:15.08.0
 _ZN10MailCommon24FilterActionWidgetLister16updateActionListEv@Base 4:15.08.0
 _ZN10MailCommon24FilterActionWidgetLister21updateAddRemoveButtonEv@Base 4:15.08.0
 _ZN10MailCommon24FilterActionWidgetLister5resetEv@Base 4:15.08.0
 _ZN10MailCommon24FilterActionWidgetLister7Private31regenerateActionListFromWidgetsEv@Base 4:15.08.0
 _ZN10MailCommon24FilterActionWidgetListerC1EP7QWidget@Base 4:15.08.0
 _ZN10MailCommon24FilterActionWidgetListerC2EP7QWidget@Base 4:15.08.0
 _ZN10MailCommon24FilterActionWidgetListerD0Ev@Base 4:15.08.0
 _ZN10MailCommon24FilterActionWidgetListerD1Ev@Base 4:15.08.0
 _ZN10MailCommon24FilterActionWidgetListerD2Ev@Base 4:15.08.0
 _ZN10MailCommon24FilterImporterClawsMails10readStreamER11QTextStream@Base 4:15.08.0
 _ZN10MailCommon24FilterImporterClawsMails13extractStringERK7QStringRi@Base 4:15.08.0
 _ZN10MailCommon24FilterImporterClawsMails14extractActionsERK7QStringPNS_10MailFilterE@Base 4:15.08.0
 _ZN10MailCommon24FilterImporterClawsMails17extractConditionsERK7QStringPNS_10MailFilterE@Base 4:15.08.0
 _ZN10MailCommon24FilterImporterClawsMails26defaultFiltersSettingsPathEv@Base 4:15.08.0
 _ZN10MailCommon24FilterImporterClawsMails9parseLineERK7QString@Base 4:15.08.0
 _ZN10MailCommon24FilterImporterClawsMailsC1E7QString@Base 4:15.08.0
 _ZN10MailCommon24FilterImporterClawsMailsC1EP5QFile@Base 4:15.08.0
 _ZN10MailCommon24FilterImporterClawsMailsC1Eb@Base 4:15.08.0
 _ZN10MailCommon24FilterImporterClawsMailsC2E7QString@Base 4:15.08.0
 _ZN10MailCommon24FilterImporterClawsMailsC2EP5QFile@Base 4:15.08.0
 _ZN10MailCommon24FilterImporterClawsMailsC2Eb@Base 4:15.08.0
 _ZN10MailCommon24FilterImporterClawsMailsD1Ev@Base 4:15.08.0
 _ZN10MailCommon24FilterImporterClawsMailsD2Ev@Base 4:15.08.0
 _ZN10MailCommon25ExpireCollectionAttribute11deserializeERK10QByteArray@Base 4:15.08.0
 _ZN10MailCommon25ExpireCollectionAttribute12daysToExpireERiS1_@Base 4:15.08.0
 _ZN10MailCommon25ExpireCollectionAttribute12daysToExpireEiNS0_11ExpireUnitsE@Base 4:15.08.0
 _ZN10MailCommon25ExpireCollectionAttribute13setAutoExpireEb@Base 4:15.08.0
 _ZN10MailCommon25ExpireCollectionAttribute15setExpireActionENS0_12ExpireActionE@Base 4:15.08.0
 _ZN10MailCommon25ExpireCollectionAttribute16setReadExpireAgeEi@Base 4:15.08.0
 _ZN10MailCommon25ExpireCollectionAttribute18setReadExpireUnitsENS0_11ExpireUnitsE@Base 4:15.08.0
 _ZN10MailCommon25ExpireCollectionAttribute18setUnreadExpireAgeEi@Base 4:15.08.0
 _ZN10MailCommon25ExpireCollectionAttribute19setExpireToFolderIdEx@Base 4:15.08.0
 _ZN10MailCommon25ExpireCollectionAttribute20setUnreadExpireUnitsENS0_11ExpireUnitsE@Base 4:15.08.0
 _ZN10MailCommon25ExpireCollectionAttributeC1Ev@Base 4:15.08.0
 _ZN10MailCommon25ExpireCollectionAttributeC2Ev@Base 4:15.08.0
 _ZN10MailCommon25FilterImporterThunderbird10readStreamER11QTextStream@Base 4:15.08.0
 _ZN10MailCommon25FilterImporterThunderbird11extractTypeERK7QStringPNS_10MailFilterE@Base 4:15.08.0
 _ZN10MailCommon25FilterImporterThunderbird13cleanArgumentERK7QStringS3_@Base 4:15.08.0
 _ZN10MailCommon25FilterImporterThunderbird14extractActionsERK7QStringPNS_10MailFilterERS1_@Base 4:15.08.0
 _ZN10MailCommon25FilterImporterThunderbird15splitConditionsERK7QStringPNS_10MailFilterE@Base 4:15.08.0
 _ZN10MailCommon25FilterImporterThunderbird17extractConditionsERK7QStringPNS_10MailFilterE@Base 4:15.08.0
 _ZN10MailCommon25FilterImporterThunderbird33defaultIcedoveFiltersSettingsPathEv@Base 4:15.08.0
 _ZN10MailCommon25FilterImporterThunderbird37defaultThunderbirdFiltersSettingsPathEv@Base 4:15.08.0
 _ZN10MailCommon25FilterImporterThunderbird9parseLineER11QTextStream7QStringPNS_10MailFilterE@Base 4:15.08.0
 _ZN10MailCommon25FilterImporterThunderbirdC1E7QStringb@Base 4:15.08.0
 _ZN10MailCommon25FilterImporterThunderbirdC1EP5QFileb@Base 4:15.08.0
 _ZN10MailCommon25FilterImporterThunderbirdC2E7QStringb@Base 4:15.08.0
 _ZN10MailCommon25FilterImporterThunderbirdC2EP5QFileb@Base 4:15.08.0
 _ZN10MailCommon25FilterImporterThunderbirdD1Ev@Base 4:15.08.0
 _ZN10MailCommon25FilterImporterThunderbirdD2Ev@Base 4:15.08.0
 _ZN10MailCommon30CollectionAnnotationsAttribute11deserializeERK10QByteArray@Base 4:15.08.0
 _ZN10MailCommon30CollectionAnnotationsAttribute14setAnnotationsERK4QMapI10QByteArrayS2_E@Base 4:15.08.0
 _ZN10MailCommon30CollectionAnnotationsAttributeC1ERK4QMapI10QByteArrayS2_E@Base 4:15.08.0
 _ZN10MailCommon30CollectionAnnotationsAttributeC1Ev@Base 4:15.08.0
 _ZN10MailCommon30CollectionAnnotationsAttributeC2ERK4QMapI10QByteArrayS2_E@Base 4:15.08.0
 _ZN10MailCommon30CollectionAnnotationsAttributeC2Ev@Base 4:15.08.0
 _ZN10MailCommon3Tag11compareNameER14QSharedPointerIS0_ES3_@Base 4:15.08.0
 _ZN10MailCommon3Tag11fromAkonadiERKN7Akonadi3TagE@Base 4:15.08.0
 _ZN10MailCommon3Tag16createDefaultTagERK7QString@Base 4:15.08.0
 _ZN10MailCommon3Tag16staticMetaObjectE@Base 4:15.08.0
 _ZN10MailCommon3Tag7compareER14QSharedPointerIS0_ES3_@Base 4:15.08.0
 _ZN10MailCommon4Util11foundMailerEv@Base 4:15.08.0
 _ZN10MailCommon4Util14agentInstancesEb@Base 4:15.08.0
 _ZN10MailCommon4Util14folderIdentityERKN7Akonadi4ItemE@Base 4:15.08.0
 _ZN10MailCommon4Util14realFolderPathERK7QString@Base 4:15.08.0
 _ZN10MailCommon4Util17defaultQuotaColorEv@Base 4:15.08.0
 _ZN10MailCommon4Util17expireOldMessagesERKN7Akonadi10CollectionEb@Base 4:15.08.0
 _ZN10MailCommon4Util17isLocalCollectionERK7QString@Base 4:15.08.0
 _ZN10MailCommon4Util17updatedCollectionERKN7Akonadi10CollectionE@Base 4:15.08.0
 _ZN10MailCommon4Util18fullCollectionPathERKN7Akonadi10CollectionE@Base 4:15.08.0
 _ZN10MailCommon4Util19isVirtualCollectionERK7QString@Base 4:15.08.0
 _ZN10MailCommon4Util19isVirtualCollectionERKN7Akonadi10CollectionE@Base 4:15.08.0
 _ZN10MailCommon4Util19showJobErrorMessageEP4KJob@Base 4:15.08.0
 _ZN10MailCommon4Util20nextUnreadCollectionEP18QAbstractItemModelRK11QModelIndexNS0_15SearchDirectionEPFbRKN7Akonadi10CollectionEE@Base 4:15.08.0
 _ZN10MailCommon4Util21ignoreNewMailInFolderERKN7Akonadi10CollectionE@Base 4:15.08.0
 _ZN10MailCommon4Util23ensureKorganizerRunningEb@Base 4:15.08.0
 _ZN10MailCommon4Util24parentCollectionFromItemERKN7Akonadi4ItemE@Base 4:15.08.0
 _ZN10MailCommon4Util27createPop3SettingsInterfaceERK7QString@Base 4:15.08.0
 _ZN10MailCommon4Util29expirationCollectionAttributeERKN7Akonadi10CollectionERb@Base 4:15.08.0
 _ZN10MailCommon4Util31convertFolderPathToCollectionIdERK7QString@Base 4:15.08.0
 _ZN10MailCommon4Util32convertFolderPathToCollectionStrERK7QString@Base 4:15.08.0
 _ZN10MailCommon6Kernel11initFoldersEv@Base 4:15.08.0
 _ZN10MailCommon6Kernel11qt_metacallEN11QMetaObject4CallEiPPv@Base 4:15.08.0
 _ZN10MailCommon6Kernel11qt_metacastEPKc@Base 4:15.08.0
 _ZN10MailCommon6Kernel13emergencyExitERK7QString@Base 4:15.08.0
 _ZN10MailCommon6Kernel13folderIsInboxERKN7Akonadi10CollectionEb@Base 4:15.08.0
 _ZN10MailCommon6Kernel13folderIsTrashERKN7Akonadi10CollectionE@Base 4:15.08.0
 _ZN10MailCommon6Kernel14folderIsDraftsERKN7Akonadi10CollectionE@Base 4:15.08.0
 _ZN10MailCommon6Kernel16staticMetaObjectE@Base 4:15.08.0
 _ZN10MailCommon6Kernel17folderIsTemplatesERKN7Akonadi10CollectionE@Base 4:15.08.0
 _ZN10MailCommon6Kernel17requestConfigSyncEv@Base 4:15.08.0
 _ZN10MailCommon6Kernel20sentCollectionFolderEv@Base 4:15.08.0
 _ZN10MailCommon6Kernel21folderIsDraftOrOutboxERKN7Akonadi10CollectionE@Base 4:15.08.0
 _ZN10MailCommon6Kernel21inboxCollectionFolderEv@Base 4:15.08.0
 _ZN10MailCommon6Kernel21trashCollectionFolderEv@Base 4:15.08.0
 _ZN10MailCommon6Kernel22draftsCollectionFolderEv@Base 4:15.08.0
 _ZN10MailCommon6Kernel22folderIsSentMailFolderERKN7Akonadi10CollectionE@Base 4:15.08.0
 _ZN10MailCommon6Kernel22isMainFolderCollectionERKN7Akonadi10CollectionE@Base 4:15.08.0
 _ZN10MailCommon6Kernel22outboxCollectionFolderEv@Base 4:15.08.0
 _ZN10MailCommon6Kernel23requestSystemTrayUpdateEv@Base 4:15.08.0
 _ZN10MailCommon6Kernel24isSystemFolderCollectionERKN7Akonadi10CollectionE@Base 4:15.08.0
 _ZN10MailCommon6Kernel25templatesCollectionFolderEv@Base 4:15.08.0
 _ZN10MailCommon6Kernel27createDefaultCollectionDoneEP4KJob@Base 4:15.08.0
 _ZN10MailCommon6Kernel27findCreateDefaultCollectionEN7Akonadi22SpecialMailCollections4TypeE@Base 4:15.08.0
 _ZN10MailCommon6Kernel27trashCollectionFromResourceERKN7Akonadi10CollectionE@Base 4:15.08.0
 _ZN10MailCommon6Kernel29slotDefaultCollectionsChangedEv@Base 4:15.08.0
 _ZN10MailCommon6Kernel4selfEv@Base 4:15.08.0
 _ZN10MailCommon6KernelC1EP7QObject@Base 4:15.08.0
 _ZN10MailCommon6KernelC2EP7QObject@Base 4:15.08.0
 _ZN10MailCommon6KernelD0Ev@Base 4:15.08.0
 _ZN10MailCommon6KernelD1Ev@Base 4:15.08.0
 _ZN10MailCommon6KernelD2Ev@Base 4:15.08.0
 _ZN10MailCommon9BackupJob10backupDoneERK7QString@Base 4:15.08.0
 _ZN10MailCommon9BackupJob11qt_metacallEN11QMetaObject4CallEiPPv@Base 4:15.08.0
 _ZN10MailCommon9BackupJob11qt_metacastEPKc@Base 4:15.08.0
 _ZN10MailCommon9BackupJob11setRealPathERK7QString@Base 4:15.08.0
 _ZN10MailCommon9BackupJob12queueFoldersERKN7Akonadi10CollectionE@Base 4:15.08.0
 _ZN10MailCommon9BackupJob12setRecursiveEb@Base 4:15.08.0
 _ZN10MailCommon9BackupJob13setRootFolderERKN7Akonadi10CollectionE@Base 4:15.08.0
 _ZN10MailCommon9BackupJob14processMessageERKN7Akonadi4ItemE@Base 4:15.08.0
 _ZN10MailCommon9BackupJob14setArchiveTypeENS0_11ArchiveTypeE@Base 4:15.08.0
 _ZN10MailCommon9BackupJob14writeDirHelperERK7QString@Base 4:15.08.0
 _ZN10MailCommon9BackupJob15setSaveLocationERK4QUrl@Base 4:15.08.0
 _ZN10MailCommon9BackupJob16staticMetaObjectE@Base 4:15.08.0
 _ZN10MailCommon9BackupJob17archiveNextFolderEv@Base 4:15.08.0
 _ZN10MailCommon9BackupJob18archiveNextMessageEv@Base 4:15.08.0
 _ZN10MailCommon9BackupJob18itemFetchJobResultEP4KJob@Base 4:15.08.0
 _ZN10MailCommon9BackupJob20setDisplayMessageBoxEb@Base 4:15.08.0
 _ZN10MailCommon9BackupJob23onArchiveNextFolderDoneEP4KJob@Base 4:15.08.0
 _ZN10MailCommon9BackupJob31setDeleteFoldersAfterCompletionEb@Base 4:15.08.0
 _ZN10MailCommon9BackupJob5abortERK7QString@Base 4:15.08.0
 _ZN10MailCommon9BackupJob5errorERK7QString@Base 4:15.08.0
 _ZN10MailCommon9BackupJob5startEv@Base 4:15.08.0
 _ZN10MailCommon9BackupJob6finishEv@Base 4:15.08.0
 _ZN10MailCommon9BackupJob9cancelJobEv@Base 4:15.08.0
 _ZN10MailCommon9BackupJobC1EP7QWidget@Base 4:15.08.0
 _ZN10MailCommon9BackupJobC2EP7QWidget@Base 4:15.08.0
 _ZN10MailCommon9BackupJobD0Ev@Base 4:15.08.0
 _ZN10MailCommon9BackupJobD1Ev@Base 4:15.08.0
 _ZN10MailCommon9BackupJobD2Ev@Base 4:15.08.0
 _ZN10MailCommon9FilterLog10setLoggingEb@Base 4:15.08.0
 _ZN10MailCommon9FilterLog11logShrinkedEv@Base 4:15.08.0
 _ZN10MailCommon9FilterLog11qt_metacallEN11QMetaObject4CallEiPPv@Base 4:15.08.0
 _ZN10MailCommon9FilterLog11qt_metacastEPKc@Base 4:15.08.0
 _ZN10MailCommon9FilterLog12addSeparatorEv@Base 4:15.08.0
 _ZN10MailCommon9FilterLog13logEntryAddedERK7QString@Base 4:15.08.0
 _ZN10MailCommon9FilterLog13setMaxLogSizeEl@Base 4:15.08.0
 _ZN10MailCommon9FilterLog15logStateChangedEv@Base 4:15.08.0
 _ZN10MailCommon9FilterLog16staticMetaObjectE@Base 4:15.08.0
 _ZN10MailCommon9FilterLog21setContentTypeEnabledENS0_11ContentTypeEb@Base 4:15.08.0
 _ZN10MailCommon9FilterLog3addERK7QStringNS0_11ContentTypeE@Base 4:15.08.0
 _ZN10MailCommon9FilterLog4dumpEv@Base 4:15.08.0
 _ZN10MailCommon9FilterLog5clearEv@Base 4:15.08.0
 _ZN10MailCommon9FilterLog6recodeERK7QString@Base 4:15.08.0
 _ZN10MailCommon9FilterLog7Private12checkLogSizeEv@Base 4:15.08.0
 _ZN10MailCommon9FilterLog7Private5mSelfE@Base 4:15.08.0
 _ZN10MailCommon9FilterLog8instanceEv@Base 4:15.08.0
 _ZN10MailCommon9FilterLogC1Ev@Base 4:15.08.0
 _ZN10MailCommon9FilterLogC2Ev@Base 4:15.08.0
 _ZN10MailCommon9FilterLogD0Ev@Base 4:15.08.0
 _ZN10MailCommon9FilterLogD1Ev@Base 4:15.08.0
 _ZN10MailCommon9FilterLogD2Ev@Base 4:15.08.0
 _ZN10MailCommon9FolderJob11qt_metacallEN11QMetaObject4CallEiPPv@Base 4:15.08.0
 _ZN10MailCommon9FolderJob11qt_metacastEPKc@Base 4:15.08.0
 _ZN10MailCommon9FolderJob16staticMetaObjectE@Base 4:15.08.0
 _ZN10MailCommon9FolderJob4killEv@Base 4:15.08.0
 _ZN10MailCommon9FolderJob5startEv@Base 4:15.08.0
 _ZN10MailCommon9FolderJob6resultEPS0_@Base 4:15.08.0
 _ZN10MailCommon9FolderJob8finishedEv@Base 4:15.08.0
 _ZN10MailCommon9FolderJobC1Ev@Base 4:15.08.0
 _ZN10MailCommon9FolderJobC2Ev@Base 4:15.08.0
 _ZN10MailCommon9FolderJobD0Ev@Base 4:15.08.0
 _ZN10MailCommon9FolderJobD1Ev@Base 4:15.08.0
 _ZN10MailCommon9FolderJobD2Ev@Base 4:15.08.0
 _ZN10MailCommon9TagWidget11qt_metacallEN11QMetaObject4CallEiPPv@Base 4:15.08.0
 _ZN10MailCommon9TagWidget11qt_metacastEPKc@Base 4:15.08.0
 _ZN10MailCommon9TagWidget14setTagTextFontERK5QFont@Base 4:15.08.0
 _ZN10MailCommon9TagWidget15iconNameChangedERK7QString@Base 4:15.08.0
 _ZN10MailCommon9TagWidget15setTagTextColorERK6QColor@Base 4:15.08.0
 _ZN10MailCommon9TagWidget16staticMetaObjectE@Base 4:15.08.0
 _ZN10MailCommon9TagWidget17recordTagSettingsE14QSharedPointerINS_3TagEE@Base 4:15.08.0
 _ZN10MailCommon9TagWidget19slotEmitChangeCheckEv@Base 4:15.08.0
 _ZN10MailCommon9TagWidget21setTagBackgroundColorERK6QColor@Base 4:15.08.0
 _ZN10MailCommon9TagWidget7changedEv@Base 4:15.08.0
 _ZN10MailCommon9TagWidgetC1ERK5QListIP17KActionCollectionEP7QWidget@Base 4:15.08.0
 _ZN10MailCommon9TagWidgetC2ERK5QListIP17KActionCollectionEP7QWidget@Base 4:15.08.0
 _ZN10MailCommon9TagWidgetD0Ev@Base 4:15.08.0
 _ZN10MailCommon9TagWidgetD1Ev@Base 4:15.08.0
 _ZN10MailCommon9TagWidgetD2Ev@Base 4:15.08.0
 _ZN10MailCommonlsER11QDataStreamRKNS_10MailFilterE@Base 4:15.08.0
 _ZN10MailCommonrsER11QDataStreamRNS_10MailFilterE@Base 4:15.08.0
 (optional=templinst)_ZN12KConfigGroup10writeEntryI5QSizeEEvPKcRKT_6QFlagsIN11KConfigBase15WriteConfigFlagEE@Base 4:15.08.0
 (optional=templinst)_ZN12KConfigGroup10writeEntryIbEEvPKcRKT_6QFlagsIN11KConfigBase15WriteConfigFlagEE@Base 4:15.08.0
 (optional=templinst)_ZN12KConfigGroup10writeEntryIiEEvPKcRKT_6QFlagsIN11KConfigBase15WriteConfigFlagEE@Base 4:15.08.0
 _ZN35FilterActionMissingCollectionDialog10readConfigEv@Base 4:15.08.0
 _ZN35FilterActionMissingCollectionDialog11qt_metacallEN11QMetaObject4CallEiPPv@Base 4:15.08.0
 _ZN35FilterActionMissingCollectionDialog11qt_metacastEPKc@Base 4:15.08.0
 _ZN35FilterActionMissingCollectionDialog11writeConfigEv@Base 4:15.08.0
 _ZN35FilterActionMissingCollectionDialog16staticMetaObjectE@Base 4:15.08.0
 _ZN35FilterActionMissingCollectionDialog17slotFolderChangedERKN7Akonadi10CollectionE@Base 4:15.08.0
 _ZN35FilterActionMissingCollectionDialog19getPotentialFoldersEPK18QAbstractItemModelRK11QModelIndexRK7QStringR7QVectorIN7Akonadi10CollectionEE@Base 4:15.08.0
 _ZN35FilterActionMissingCollectionDialog21slotDoubleItemClickedEP15QListWidgetItem@Base 4:15.08.0
 _ZN35FilterActionMissingCollectionDialog22slotCurrentItemChangedEv@Base 4:15.08.0
 _ZN35FilterActionMissingCollectionDialog23potentialCorrectFoldersERK7QStringRb@Base 4:15.08.0
 _ZN35FilterActionMissingCollectionDialogC1ERK7QVectorIN7Akonadi10CollectionEERK7QStringS8_P7QWidget@Base 4:15.08.0
 _ZN35FilterActionMissingCollectionDialogC2ERK7QVectorIN7Akonadi10CollectionEERK7QStringS8_P7QWidget@Base 4:15.08.0
 _ZN35FilterActionMissingCollectionDialogD0Ev@Base 4:15.08.0
 _ZN35FilterActionMissingCollectionDialogD1Ev@Base 4:15.08.0
 _ZN35FilterActionMissingCollectionDialogD2Ev@Base 4:15.08.0
 _ZNK10MailCommon10MailFilter10identifierEv@Base 4:15.08.0
 _ZNK10MailCommon10MailFilter11execActionsERNS_11ItemContextERbb@Base 4:15.08.0
 _ZNK10MailCommon10MailFilter11toolbarNameEv@Base 4:15.08.0
 _ZNK10MailCommon10MailFilter11writeConfigER12KConfigGroupb@Base 4:15.08.0
 _ZNK10MailCommon10MailFilter12isAutoNamingEv@Base 4:15.08.0
 _ZNK10MailCommon10MailFilter12requiredPartERK7QString@Base 4:15.08.0
 _ZNK10MailCommon10MailFilter13applicabilityEv@Base 4:15.08.0
 _ZNK10MailCommon10MailFilter14applyOnAccountERK7QString@Base 4:15.08.0
 _ZNK10MailCommon10MailFilter14applyOnInboundEv@Base 4:15.08.0
 _ZNK10MailCommon10MailFilter15applyOnExplicitEv@Base 4:15.08.0
 _ZNK10MailCommon10MailFilter15applyOnOutboundEv@Base 4:15.08.0
 _ZNK10MailCommon10MailFilter16configureToolbarEv@Base 4:15.08.0
 _ZNK10MailCommon10MailFilter17configureShortcutEv@Base 4:15.08.0
 _ZNK10MailCommon10MailFilter18stopProcessingHereEv@Base 4:15.08.0
 _ZNK10MailCommon10MailFilter19applyBeforeOutboundEv@Base 4:15.08.0
 _ZNK10MailCommon10MailFilter4iconEv@Base 4:15.08.0
 _ZNK10MailCommon10MailFilter4nameEv@Base 4:15.08.0
 _ZNK10MailCommon10MailFilter7actionsEv@Base 4:15.08.0
 _ZNK10MailCommon10MailFilter7isEmptyEv@Base 4:15.08.0
 _ZNK10MailCommon10MailFilter7patternEv@Base 4:15.08.0
 _ZNK10MailCommon10MailFilter8asStringEv@Base 4:15.08.0
 _ZNK10MailCommon10MailFilter8shortcutEv@Base 4:15.08.0
 _ZNK10MailCommon10MailFilter9isEnabledEv@Base 4:15.08.0
 _ZNK10MailCommon10SearchRule11writeConfigER12KConfigGroupi@Base 4:15.08.0
 _ZNK10MailCommon10SearchRule17akonadiComparatorEv@Base 4:15.08.0
 _ZNK10MailCommon10SearchRule5fieldEv@Base 4:15.08.0
 _ZNK10MailCommon10SearchRule8asStringEv@Base 4:15.08.0
 _ZNK10MailCommon10SearchRule8contentsEv@Base 4:15.08.0
 _ZNK10MailCommon10SearchRule8functionEv@Base 4:15.08.0
 _ZNK10MailCommon10SearchRule9isNegatedEv@Base 4:15.08.0
 _ZNK10MailCommon10SearchRulersER11QDataStream@Base 4:15.08.0
 _ZNK10MailCommon11ItemContext10deleteItemEv@Base 4:15.08.0
 _ZNK10MailCommon11ItemContext14needsFlagStoreEv@Base 4:15.08.0
 _ZNK10MailCommon11ItemContext16needsFullPayloadEv@Base 4:15.08.0
 _ZNK10MailCommon11ItemContext17needsPayloadStoreEv@Base 4:15.08.0
 _ZNK10MailCommon11ItemContext20moveTargetCollectionEv@Base 4:15.08.0
 _ZNK10MailCommon12AddTagDialog10metaObjectEv@Base 4:15.08.0
 _ZNK10MailCommon12AddTagDialog3tagEv@Base 4:15.08.0
 _ZNK10MailCommon12AddTagDialog5labelEv@Base 4:15.08.0
 _ZNK10MailCommon12FilterAction10metaObjectEv@Base 4:15.08.0
 _ZNK10MailCommon12FilterAction13sieveRequiresEv@Base 4:15.08.0
 _ZNK10MailCommon12FilterAction16argsAsStringRealEv@Base 4:15.08.0
 _ZNK10MailCommon12FilterAction16clearParamWidgetEP7QWidget@Base 4:15.08.0
 _ZNK10MailCommon12FilterAction17createParamWidgetEP7QWidget@Base 4:15.08.0
 _ZNK10MailCommon12FilterAction19setParamWidgetValueEP7QWidget@Base 4:15.08.0
 _ZNK10MailCommon12FilterAction30informationAboutNotValidActionEv@Base 4:15.08.0
 _ZNK10MailCommon12FilterAction4nameEv@Base 4:15.08.0
 _ZNK10MailCommon12FilterAction5labelEv@Base 4:15.08.0
 _ZNK10MailCommon12FilterAction7isEmptyEv@Base 4:15.08.0
 _ZNK10MailCommon12FilterAction9sieveCodeEv@Base 4:15.08.0
 _ZNK10MailCommon12JobScheduler10metaObjectEv@Base 4:15.08.0
 _ZNK10MailCommon13FilterManager10metaObjectEv@Base 4:15.08.0
 _ZNK10MailCommon13FilterManager11initializedEv@Base 4:15.08.0
 _ZNK10MailCommon13FilterManager22createUniqueFilterNameERK7QString@Base 4:15.08.0
 _ZNK10MailCommon13FilterManager6filterERK7QVectorIN7Akonadi4ItemEENS0_9FilterSetE@Base 4:15.08.0
 _ZNK10MailCommon13FilterManager6filterERK7QVectorIN7Akonadi4ItemEENS_10SearchRule12RequiredPartERK11QStringList@Base 4:15.08.0
 _ZNK10MailCommon13FilterManager6filterERKN7Akonadi4ItemENS0_9FilterSetEbRK7QString@Base 4:15.08.0
 _ZNK10MailCommon13FilterManager6filterERKN7Akonadi4ItemERK7QStringS7_@Base 4:15.08.0
 _ZNK10MailCommon13FilterManager7Private11writeConfigEb@Base 4:15.08.0
 _ZNK10MailCommon13FilterManager7filtersEv@Base 4:15.08.0
 _ZNK10MailCommon13FilterManager7isValidEv@Base 4:15.08.0
 _ZNK10MailCommon13FilterManager7tagListEv@Base 4:15.08.0
 _ZNK10MailCommon13SearchPattern11writeConfigER12KConfigGroup@Base 4:15.08.0
 _ZNK10MailCommon13SearchPattern12requiredPartEv@Base 4:15.08.0
 _ZNK10MailCommon13SearchPattern14asAkonadiQueryERN7Akonadi11SearchQueryE@Base 4:15.08.0
 _ZNK10MailCommon13SearchPattern7matchesERKN7Akonadi4ItemEb@Base 4:15.08.0
 _ZNK10MailCommon13SearchPattern8asStringEv@Base 4:15.08.0
 _ZNK10MailCommon13SearchPattern9serializeEv@Base 4:15.08.0
 _ZNK10MailCommon13SearchPatternrsER11QDataStream@Base 4:15.08.0
 _ZNK10MailCommon14FolderTreeView10metaObjectEv@Base 4:15.08.0
 _ZNK10MailCommon14FolderTreeView13currentFolderEv@Base 4:15.08.0
 _ZNK10MailCommon14FolderTreeView18ignoreUnreadFolderERKN7Akonadi10CollectionEb@Base 4:15.08.0
 _ZNK10MailCommon14FolderTreeView20allowedToEnterFolderERKN7Akonadi10CollectionEb@Base 4:15.08.0
 _ZNK10MailCommon14KMFilterDialog10metaObjectEv@Base 4:15.08.0
 _ZNK10MailCommon14RedirectDialog10metaObjectEv@Base 4:15.08.0
 _ZNK10MailCommon14RedirectDialog11transportIdEv@Base 4:15.08.0
 _ZNK10MailCommon14RedirectDialog2ccEv@Base 4:15.08.0
 _ZNK10MailCommon14RedirectDialog2toEv@Base 4:15.08.0
 _ZNK10MailCommon14RedirectDialog3bccEv@Base 4:15.08.0
 _ZNK10MailCommon14RedirectDialog7Private17redirectLabelTypeENS1_11TypeAddressE@Base 4:15.08.0
 _ZNK10MailCommon14RedirectDialog8identityEv@Base 4:15.08.0
 _ZNK10MailCommon14RedirectDialog8sendModeEv@Base 4:15.08.0
 _ZNK10MailCommon14RegExpLineEdit10metaObjectEv@Base 4:15.08.0
 _ZNK10MailCommon14RegExpLineEdit4textEv@Base 4:15.08.0
 _ZNK10MailCommon14SendMdnHandler10metaObjectEv@Base 4:15.08.0
 _ZNK10MailCommon15FolderRequester10collectionEv@Base 4:15.08.0
 _ZNK10MailCommon15FolderRequester10metaObjectEv@Base 4:15.08.0
 _ZNK10MailCommon15FolderRequester13hasCollectionEv@Base 4:15.08.0
 _ZNK10MailCommon15KMFilterListBox10metaObjectEv@Base 4:15.08.0
 _ZNK10MailCommon15KMFilterListBox11itemIsValidEP15QListWidgetItem@Base 4:15.08.0
 _ZNK10MailCommon15KMFilterListBox12abortClosingEv@Base 4:15.08.0
 _ZNK10MailCommon15KMFilterListBox16filtersForSavingEbRb@Base 4:15.08.0
 _ZNK10MailCommon15KMFilterListBox16selectedFilterIdERNS_10SearchRule12RequiredPartERK7QString@Base 4:15.08.0
 _ZNK10MailCommon15MDNAdviceDialog10metaObjectEv@Base 4:15.08.0
 _ZNK10MailCommon15MDNAdviceDialog6resultEv@Base 4:15.08.0
 _ZNK10MailCommon15MDNAdviceHelper10metaObjectEv@Base 4:15.08.0
 _ZNK10MailCommon15SnippetsManager10metaObjectEv@Base 4:15.08.0
 _ZNK10MailCommon15SnippetsManager12selectedNameEv@Base 4:15.08.0
 _ZNK10MailCommon15SnippetsManager14selectionModelEv@Base 4:15.08.0
 _ZNK10MailCommon15SnippetsManager16addSnippetActionEv@Base 4:15.08.0
 _ZNK10MailCommon15SnippetsManager17editSnippetActionEv@Base 4:15.08.0
 _ZNK10MailCommon15SnippetsManager19deleteSnippetActionEv@Base 4:15.08.0
 _ZNK10MailCommon15SnippetsManager19insertSnippetActionEv@Base 4:15.08.0
 _ZNK10MailCommon15SnippetsManager20snippetGroupSelectedEv@Base 4:15.08.0
 _ZNK10MailCommon15SnippetsManager21addSnippetGroupActionEv@Base 4:15.08.0
 _ZNK10MailCommon15SnippetsManager22editSnippetGroupActionEv@Base 4:15.08.0
 _ZNK10MailCommon15SnippetsManager24deleteSnippetGroupActionEv@Base 4:15.08.0
 _ZNK10MailCommon15SnippetsManager5modelEv@Base 4:15.08.0
 _ZNK10MailCommon15SnippetsManager7Private17currentGroupIndexEv@Base 4:15.08.0
 _ZNK10MailCommon16FilterActionDict4listEv@Base 4:15.08.0
 _ZNK10MailCommon16FolderCollection10collectionEv@Base 4:15.08.0
 _ZNK10MailCommon16FolderCollection10isReadOnlyEv@Base 4:15.08.0
 _ZNK10MailCommon16FolderCollection10metaObjectEv@Base 4:15.08.0
 _ZNK10MailCommon16FolderCollection10statisticsEv@Base 4:15.08.0
 _ZNK10MailCommon16FolderCollection11writeConfigEv@Base 4:15.08.0
 _ZNK10MailCommon16FolderCollection12isStructuralEv@Base 4:15.08.0
 _ZNK10MailCommon16FolderCollection13isWriteConfigEv@Base 4:15.08.0
 _ZNK10MailCommon16FolderCollection14isSystemFolderEv@Base 4:15.08.0
 _ZNK10MailCommon16FolderCollection16fallBackIdentityEv@Base 4:15.08.0
 _ZNK10MailCommon16FolderCollection17canCreateMessagesEv@Base 4:15.08.0
 _ZNK10MailCommon16FolderCollection17canDeleteMessagesEv@Base 4:15.08.0
 _ZNK10MailCommon16FolderCollection22mailingListPostAddressEv@Base 4:15.08.0
 _ZNK10MailCommon16FolderCollection4nameEv@Base 4:15.08.0
 _ZNK10MailCommon16FolderCollection5countEv@Base 4:15.08.0
 _ZNK10MailCommon16FolderCollection6rightsEv@Base 4:15.08.0
 _ZNK10MailCommon16FolderCollection7isValidEv@Base 4:15.08.0
 _ZNK10MailCommon16FolderCollection8identityEv@Base 4:15.08.0
 _ZNK10MailCommon16FolderTreeWidget10metaObjectEv@Base 4:15.08.0
 _ZNK10MailCommon16FolderTreeWidget12currentIndexEv@Base 4:15.08.0
 _ZNK10MailCommon16FolderTreeWidget13selectionModeEv@Base 4:15.08.0
 _ZNK10MailCommon16FolderTreeWidget14folderTreeViewEv@Base 4:15.08.0
 _ZNK10MailCommon16FolderTreeWidget14selectionModelEv@Base 4:15.08.0
 _ZNK10MailCommon16FolderTreeWidget16entityOrderProxyEv@Base 4:15.08.0
 _ZNK10MailCommon16FolderTreeWidget18selectedCollectionEv@Base 4:15.08.0
 _ZNK10MailCommon16FolderTreeWidget19selectedCollectionsEv@Base 4:15.08.0
 _ZNK10MailCommon16FolderTreeWidget20filterFolderLineEditEv@Base 4:15.08.0
 _ZNK10MailCommon16FolderTreeWidget20statisticsProxyModelEv@Base 4:15.08.0
 _ZNK10MailCommon16FolderTreeWidget26folderTreeWidgetProxyModelEv@Base 4:15.08.0
 _ZNK10MailCommon16SearchRuleStatus12requiredPartEv@Base 4:15.08.0
 _ZNK10MailCommon16SearchRuleStatus13addQueryTermsERN7Akonadi10SearchTermERb@Base 4:15.08.0
 _ZNK10MailCommon16SearchRuleStatus29informationAboutNotValidRulesEv@Base 4:15.08.0
 _ZNK10MailCommon16SearchRuleStatus7isEmptyEv@Base 4:15.08.0
 _ZNK10MailCommon16SearchRuleStatus7matchesERKN7Akonadi4ItemE@Base 4:15.08.0
 _ZNK10MailCommon17ContentTypeWidget10metaObjectEv@Base 4:15.08.0
 _ZNK10MailCommon17ContentTypeWidget11currentTextEv@Base 4:15.08.0
 _ZNK10MailCommon17ContentTypeWidget12currentIndexEv@Base 4:15.08.0
 _ZNK10MailCommon17InvalidFilterInfo11informationEv@Base 4:15.08.0
 _ZNK10MailCommon17InvalidFilterInfo4nameEv@Base 4:15.08.0
 _ZNK10MailCommon17InvalidFilterInfoeqERKS0_@Base 4:15.08.0
 _ZNK10MailCommon17SearchPatternEdit10metaObjectEv@Base 4:15.08.0
 _ZNK10MailCommon19IncidencesForWidget10metaObjectEv@Base 4:15.08.0
 _ZNK10MailCommon19IncidencesForWidget12currentIndexEv@Base 4:15.08.0
 _ZNK10MailCommon19InvalidFilterDialog10metaObjectEv@Base 4:15.08.0
 _ZNK10MailCommon19InvalidFilterWidget10metaObjectEv@Base 4:15.08.0
 _ZNK10MailCommon20CollectionExpiryPage10metaObjectEv@Base 4:15.08.0
 _ZNK10MailCommon20CollectionExpiryPage9canHandleERKN7Akonadi10CollectionE@Base 4:15.08.0
 _ZNK10MailCommon21CollectionGeneralPage10metaObjectEv@Base 4:15.08.0
 _ZNK10MailCommon21FolderSelectionDialog10metaObjectEv@Base 4:15.08.0
 _ZNK10MailCommon21FolderSelectionDialog13selectionModeEv@Base 4:15.08.0
 _ZNK10MailCommon21FolderSelectionDialog18selectedCollectionEv@Base 4:15.08.0
 _ZNK10MailCommon21FolderSelectionDialog19selectedCollectionsEv@Base 4:15.08.0
 _ZNK10MailCommon21InvalidFilterListView10metaObjectEv@Base 4:15.08.0
 _ZNK10MailCommon22FilterImporterAbstract11emptyFilterEv@Base 4:15.08.0
 _ZNK10MailCommon22FilterImporterAbstract12importFilterEv@Base 4:15.08.0
 _ZNK10MailCommon22FilterImporterExporter7Private29warningInfoAboutInvalidFilterERK11QStringList@Base 4:15.08.0
 _ZNK10MailCommon23FolderCollectionMonitor10metaObjectEv@Base 4:15.08.0
 _ZNK10MailCommon23FolderCollectionMonitor7monitorEv@Base 4:15.08.0
 _ZNK10MailCommon23InvalidFilterInfoWidget10metaObjectEv@Base 4:15.08.0
 _ZNK10MailCommon24AccountConfigOrderDialog10metaObjectEv@Base 4:15.08.0
 _ZNK10MailCommon24FavoriteCollectionWidget10metaObjectEv@Base 4:15.08.0
 _ZNK10MailCommon24FilterActionWidgetLister10metaObjectEv@Base 4:15.08.0
 _ZNK10MailCommon25ExpireCollectionAttribute10serializedEv@Base 4:15.08.0
 _ZNK10MailCommon25ExpireCollectionAttribute12expireActionEv@Base 4:15.08.0
 _ZNK10MailCommon25ExpireCollectionAttribute12isAutoExpireEv@Base 4:15.08.0
 _ZNK10MailCommon25ExpireCollectionAttribute13readExpireAgeEv@Base 4:15.08.0
 _ZNK10MailCommon25ExpireCollectionAttribute15readExpireUnitsEv@Base 4:15.08.0
 _ZNK10MailCommon25ExpireCollectionAttribute15unreadExpireAgeEv@Base 4:15.08.0
 _ZNK10MailCommon25ExpireCollectionAttribute16expireToFolderIdEv@Base 4:15.08.0
 _ZNK10MailCommon25ExpireCollectionAttribute17unreadExpireUnitsEv@Base 4:15.08.0
 _ZNK10MailCommon25ExpireCollectionAttribute4typeEv@Base 4:15.08.0
 _ZNK10MailCommon25ExpireCollectionAttribute5cloneEv@Base 4:15.08.0
 _ZNK10MailCommon25ExpireCollectionAttributeeqERKS0_@Base 4:15.08.0
 _ZNK10MailCommon30CollectionAnnotationsAttribute10serializedEv@Base 4:15.08.0
 _ZNK10MailCommon30CollectionAnnotationsAttribute11annotationsEv@Base 4:15.08.0
 _ZNK10MailCommon30CollectionAnnotationsAttribute4typeEv@Base 4:15.08.0
 _ZNK10MailCommon30CollectionAnnotationsAttribute5cloneEv@Base 4:15.08.0
 _ZNK10MailCommon30CollectionAnnotationsAttributeeqERKS0_@Base 4:15.08.0
 _ZNK10MailCommon3Tag13saveToAkonadiE6QFlagsINS0_8SaveFlagEE@Base 4:15.08.0
 _ZNK10MailCommon3Tag2idEv@Base 4:15.08.0
 _ZNK10MailCommon3Tag3tagEv@Base 4:15.08.0
 _ZNK10MailCommon3Tag4nameEv@Base 4:15.08.0
 _ZNK10MailCommon3TageqERKS0_@Base 4:15.08.0
 _ZNK10MailCommon3TagneERKS0_@Base 4:15.08.0
 _ZNK10MailCommon6Kernel10metaObjectEv@Base 4:15.08.0
 _ZNK10MailCommon6Kernel16collectionFromIdERKx@Base 4:15.08.0
 _ZNK10MailCommon6Kernel19imapResourceManagerEv@Base 4:15.08.0
 _ZNK10MailCommon9BackupJob10metaObjectEv@Base 4:15.08.0
 _ZNK10MailCommon9BackupJob11hasChildrenERKN7Akonadi10CollectionE@Base 4:15.08.0
 _ZNK10MailCommon9BackupJob14collectionNameERKN7Akonadi10CollectionE@Base 4:15.08.0
 _ZNK10MailCommon9BackupJob17pathForCollectionERKN7Akonadi10CollectionE@Base 4:15.08.0
 _ZNK10MailCommon9BackupJob23subdirPathForCollectionERKN7Akonadi10CollectionE@Base 4:15.08.0
 _ZNK10MailCommon9FilterLog10logEntriesEv@Base 4:15.08.0
 _ZNK10MailCommon9FilterLog10maxLogSizeEv@Base 4:15.08.0
 _ZNK10MailCommon9FilterLog10metaObjectEv@Base 4:15.08.0
 _ZNK10MailCommon9FilterLog10saveToFileERK7QString@Base 4:15.08.0
 _ZNK10MailCommon9FilterLog20isContentTypeEnabledENS0_11ContentTypeE@Base 4:15.08.0
 _ZNK10MailCommon9FilterLog9isLoggingEv@Base 4:15.08.0
 _ZNK10MailCommon9FolderJob10metaObjectEv@Base 4:15.08.0
 _ZNK10MailCommon9TagWidget10iconButtonEv@Base 4:15.08.0
 _ZNK10MailCommon9TagWidget10metaObjectEv@Base 4:15.08.0
 _ZNK10MailCommon9TagWidget13fontRequesterEv@Base 4:15.08.0
 _ZNK10MailCommon9TagWidget13textFontCheckEv@Base 4:15.08.0
 _ZNK10MailCommon9TagWidget14inToolBarCheckEv@Base 4:15.08.0
 _ZNK10MailCommon9TagWidget14textColorCheckEv@Base 4:15.08.0
 _ZNK10MailCommon9TagWidget14textColorComboEv@Base 4:15.08.0
 _ZNK10MailCommon9TagWidget15tagNameLineEditEv@Base 4:15.08.0
 _ZNK10MailCommon9TagWidget17keySequenceWidgetEv@Base 4:15.08.0
 _ZNK10MailCommon9TagWidget20backgroundColorCheckEv@Base 4:15.08.0
 _ZNK10MailCommon9TagWidget20backgroundColorComboEv@Base 4:15.08.0
 _ZNK10MailCommon9TagWidget9saveFlagsEv@Base 4:15.08.0
 (optional=templinst)_ZNK12KConfigGroup9readEntryI5QFontEET_PKcRKS2_@Base 4:15.08.0
 (optional=templinst)_ZNK12KConfigGroup9readEntryI5QSizeEET_PKcRKS2_@Base 4:15.08.0
 (optional=templinst)_ZNK12KConfigGroup9readEntryI6QColorEET_PKcRKS2_@Base 4:15.08.0
 (optional=templinst)_ZNK12KConfigGroup9readEntryIbEET_PKcRKS1_@Base 4:15.08.0
 (optional=templinst)_ZNK12KConfigGroup9readEntryIiEET_PKcRKS1_@Base 4:15.08.0
 (optional=templinst)_ZNK12KConfigGroup9readEntryIjEET_PKcRKS1_@Base 4:15.08.0
 _ZNK35FilterActionMissingCollectionDialog10metaObjectEv@Base 4:15.08.0
 _ZNK35FilterActionMissingCollectionDialog18selectedCollectionEv@Base 4:15.08.0
 (optional=templinst)_ZNK7Akonadi4Item11payloadImplIN5boost10shared_ptrIN5KMime7MessageEEEEENSt9enable_ifIXntsrNS_8Internal12PayloadTraitIT_EE13isPolymorphicESA_E4typeEv@Base 4:15.08.0
 (optional=templinst)_ZNK7Akonadi4Item14hasPayloadImplIN5boost10shared_ptrIN5KMime7MessageEEEEENSt9enable_ifIXntsrNS_8Internal12PayloadTraitIT_EE13isPolymorphicEbE4typeEv@Base 4:15.08.0
 (optional=templinst)_ZNK7Akonadi4Item14tryToCloneImplIN5boost10shared_ptrIN5KMime7MessageEEE14QSharedPointerIS5_EEENSt9enable_ifIXntsrSt7is_sameIT_T0_E5valueEbE4typeEPSB_PKi@Base 4:15.08.0
 _ZTI35FilterActionMissingCollectionDialog@Base 4:15.08.0
 _ZTIN10MailCommon10SearchRuleE@Base 4:15.08.0
 _ZTIN10MailCommon12AddTagDialogE@Base 4:15.08.0
 _ZTIN10MailCommon12FilterActionE@Base 4:15.08.0
 _ZTIN10MailCommon12JobSchedulerE@Base 4:15.08.0
 _ZTIN10MailCommon12ScheduledJobE@Base 4:15.08.0
 _ZTIN10MailCommon13FilterManagerE@Base 4:15.08.0
 _ZTIN10MailCommon13ScheduledTaskE@Base 4:15.08.0
 _ZTIN10MailCommon14FolderTreeViewE@Base 4:15.08.0
 _ZTIN10MailCommon14KMFilterDialogE@Base 4:15.08.0
 _ZTIN10MailCommon14RedirectDialogE@Base 4:15.08.0
 _ZTIN10MailCommon14RegExpLineEditE@Base 4:15.08.0
 _ZTIN10MailCommon14SendMdnHandlerE@Base 4:15.08.0
 _ZTIN10MailCommon15FolderRequesterE@Base 4:15.08.0
 _ZTIN10MailCommon15KMFilterListBoxE@Base 4:15.08.0
 _ZTIN10MailCommon15MDNAdviceDialogE@Base 4:15.08.0
 _ZTIN10MailCommon15MDNAdviceHelperE@Base 4:15.08.0
 _ZTIN10MailCommon15SnippetsManagerE@Base 4:15.08.0
 _ZTIN10MailCommon16FolderCollectionE@Base 4:15.08.0
 _ZTIN10MailCommon16FolderTreeWidgetE@Base 4:15.08.0
 _ZTIN10MailCommon16SearchRuleStatusE@Base 4:15.08.0
 _ZTIN10MailCommon17ContentTypeWidgetE@Base 4:15.08.0
 _ZTIN10MailCommon17SearchPatternEditE@Base 4:15.08.0
 _ZTIN10MailCommon18MailCommonSettingsE@Base 4:15.08.0
 _ZTIN10MailCommon19IncidencesForWidgetE@Base 4:15.08.0
 _ZTIN10MailCommon19InvalidFilterDialogE@Base 4:15.08.0
 _ZTIN10MailCommon19InvalidFilterWidgetE@Base 4:15.08.0
 _ZTIN10MailCommon20CollectionExpiryPageE@Base 4:15.08.0
 _ZTIN10MailCommon21CollectionGeneralPageE@Base 4:15.08.0
 _ZTIN10MailCommon21FolderSelectionDialogE@Base 4:15.08.0
 _ZTIN10MailCommon21InvalidFilterListViewE@Base 4:15.08.0
 _ZTIN10MailCommon22FilterImporterExporterE@Base 4:15.08.0
 _ZTIN10MailCommon23FolderCollectionMonitorE@Base 4:15.08.0
 _ZTIN10MailCommon23InvalidFilterInfoWidgetE@Base 4:15.08.0
 _ZTIN10MailCommon24AccountConfigOrderDialogE@Base 4:15.08.0
 _ZTIN10MailCommon24FavoriteCollectionWidgetE@Base 4:15.08.0
 _ZTIN10MailCommon24FilterActionWidgetListerE@Base 4:15.08.0
 _ZTIN10MailCommon25ExpireCollectionAttributeE@Base 4:15.08.0
 _ZTIN10MailCommon30CollectionAnnotationsAttributeE@Base 4:15.08.0
 _ZTIN10MailCommon6KernelE@Base 4:15.08.0
 _ZTIN10MailCommon9BackupJobE@Base 4:15.08.0
 _ZTIN10MailCommon9FilterLogE@Base 4:15.08.0
 _ZTIN10MailCommon9FolderJobE@Base 4:15.08.0
 _ZTIN10MailCommon9TagWidgetE@Base 4:15.08.0
 _ZTS35FilterActionMissingCollectionDialog@Base 4:15.08.0
 _ZTSN10MailCommon10SearchRuleE@Base 4:15.08.0
 _ZTSN10MailCommon12AddTagDialogE@Base 4:15.08.0
 _ZTSN10MailCommon12FilterActionE@Base 4:15.08.0
 _ZTSN10MailCommon12JobSchedulerE@Base 4:15.08.0
 _ZTSN10MailCommon12ScheduledJobE@Base 4:15.08.0
 _ZTSN10MailCommon13FilterManagerE@Base 4:15.08.0
 _ZTSN10MailCommon13ScheduledTaskE@Base 4:15.08.0
 _ZTSN10MailCommon14FolderTreeViewE@Base 4:15.08.0
 _ZTSN10MailCommon14KMFilterDialogE@Base 4:15.08.0
 _ZTSN10MailCommon14RedirectDialogE@Base 4:15.08.0
 _ZTSN10MailCommon14RegExpLineEditE@Base 4:15.08.0
 _ZTSN10MailCommon14SendMdnHandlerE@Base 4:15.08.0
 _ZTSN10MailCommon15FolderRequesterE@Base 4:15.08.0
 _ZTSN10MailCommon15KMFilterListBoxE@Base 4:15.08.0
 _ZTSN10MailCommon15MDNAdviceDialogE@Base 4:15.08.0
 _ZTSN10MailCommon15MDNAdviceHelperE@Base 4:15.08.0
 _ZTSN10MailCommon15SnippetsManagerE@Base 4:15.08.0
 _ZTSN10MailCommon16FolderCollectionE@Base 4:15.08.0
 _ZTSN10MailCommon16FolderTreeWidgetE@Base 4:15.08.0
 _ZTSN10MailCommon16SearchRuleStatusE@Base 4:15.08.0
 _ZTSN10MailCommon17ContentTypeWidgetE@Base 4:15.08.0
 _ZTSN10MailCommon17SearchPatternEditE@Base 4:15.08.0
 _ZTSN10MailCommon18MailCommonSettingsE@Base 4:15.08.0
 _ZTSN10MailCommon19IncidencesForWidgetE@Base 4:15.08.0
 _ZTSN10MailCommon19InvalidFilterDialogE@Base 4:15.08.0
 _ZTSN10MailCommon19InvalidFilterWidgetE@Base 4:15.08.0
 _ZTSN10MailCommon20CollectionExpiryPageE@Base 4:15.08.0
 _ZTSN10MailCommon21CollectionGeneralPageE@Base 4:15.08.0
 _ZTSN10MailCommon21FolderSelectionDialogE@Base 4:15.08.0
 _ZTSN10MailCommon21InvalidFilterListViewE@Base 4:15.08.0
 _ZTSN10MailCommon22FilterImporterExporterE@Base 4:15.08.0
 _ZTSN10MailCommon23FolderCollectionMonitorE@Base 4:15.08.0
 _ZTSN10MailCommon23InvalidFilterInfoWidgetE@Base 4:15.08.0
 _ZTSN10MailCommon24AccountConfigOrderDialogE@Base 4:15.08.0
 _ZTSN10MailCommon24FavoriteCollectionWidgetE@Base 4:15.08.0
 _ZTSN10MailCommon24FilterActionWidgetListerE@Base 4:15.08.0
 _ZTSN10MailCommon25ExpireCollectionAttributeE@Base 4:15.08.0
 _ZTSN10MailCommon30CollectionAnnotationsAttributeE@Base 4:15.08.0
 _ZTSN10MailCommon6KernelE@Base 4:15.08.0
 _ZTSN10MailCommon9BackupJobE@Base 4:15.08.0
 _ZTSN10MailCommon9FilterLogE@Base 4:15.08.0
 _ZTSN10MailCommon9FolderJobE@Base 4:15.08.0
 _ZTSN10MailCommon9TagWidgetE@Base 4:15.08.0
 _ZTV35FilterActionMissingCollectionDialog@Base 4:15.08.0
 _ZTVN10MailCommon10SearchRuleE@Base 4:15.08.0
 _ZTVN10MailCommon12AddTagDialogE@Base 4:15.08.0
 _ZTVN10MailCommon12FilterActionE@Base 4:15.08.0
 _ZTVN10MailCommon12JobSchedulerE@Base 4:15.08.0
 _ZTVN10MailCommon12ScheduledJobE@Base 4:15.08.0
 _ZTVN10MailCommon13FilterManagerE@Base 4:15.08.0
 _ZTVN10MailCommon13ScheduledTaskE@Base 4:15.08.0
 _ZTVN10MailCommon14FolderTreeViewE@Base 4:15.08.0
 _ZTVN10MailCommon14KMFilterDialogE@Base 4:15.08.0
 _ZTVN10MailCommon14RedirectDialogE@Base 4:15.08.0
 _ZTVN10MailCommon14RegExpLineEditE@Base 4:15.08.0
 _ZTVN10MailCommon14SendMdnHandlerE@Base 4:15.08.0
 _ZTVN10MailCommon15FolderRequesterE@Base 4:15.08.0
 _ZTVN10MailCommon15KMFilterListBoxE@Base 4:15.08.0
 _ZTVN10MailCommon15MDNAdviceDialogE@Base 4:15.08.0
 _ZTVN10MailCommon15MDNAdviceHelperE@Base 4:15.08.0
 _ZTVN10MailCommon15SnippetsManagerE@Base 4:15.08.0
 _ZTVN10MailCommon16FolderCollectionE@Base 4:15.08.0
 _ZTVN10MailCommon16FolderTreeWidgetE@Base 4:15.08.0
 _ZTVN10MailCommon16SearchRuleStatusE@Base 4:15.08.0
 _ZTVN10MailCommon17ContentTypeWidgetE@Base 4:15.08.0
 _ZTVN10MailCommon17SearchPatternEditE@Base 4:15.08.0
 _ZTVN10MailCommon18MailCommonSettingsE@Base 4:15.08.0
 _ZTVN10MailCommon19IncidencesForWidgetE@Base 4:15.08.0
 _ZTVN10MailCommon19InvalidFilterDialogE@Base 4:15.08.0
 _ZTVN10MailCommon19InvalidFilterWidgetE@Base 4:15.08.0
 _ZTVN10MailCommon20CollectionExpiryPageE@Base 4:15.08.0
 _ZTVN10MailCommon21CollectionGeneralPageE@Base 4:15.08.0
 _ZTVN10MailCommon21FolderSelectionDialogE@Base 4:15.08.0
 _ZTVN10MailCommon21InvalidFilterListViewE@Base 4:15.08.0
 _ZTVN10MailCommon22FilterImporterExporterE@Base 4:15.08.0
 _ZTVN10MailCommon23FolderCollectionMonitorE@Base 4:15.08.0
 _ZTVN10MailCommon23InvalidFilterInfoWidgetE@Base 4:15.08.0
 _ZTVN10MailCommon24AccountConfigOrderDialogE@Base 4:15.08.0
 _ZTVN10MailCommon24FavoriteCollectionWidgetE@Base 4:15.08.0
 _ZTVN10MailCommon24FilterActionWidgetListerE@Base 4:15.08.0
 _ZTVN10MailCommon25ExpireCollectionAttributeE@Base 4:15.08.0
 _ZTVN10MailCommon30CollectionAnnotationsAttributeE@Base 4:15.08.0
 _ZTVN10MailCommon6KernelE@Base 4:15.08.0
 _ZTVN10MailCommon9BackupJobE@Base 4:15.08.0
 _ZTVN10MailCommon9FilterLogE@Base 4:15.08.0
 _ZTVN10MailCommon9FolderJobE@Base 4:15.08.0
 _ZTVN10MailCommon9TagWidgetE@Base 4:15.08.0
 _ZZZN10MailCommon13FilterManager7PrivateC4EPS0_ENKUlvE0_clEvE15qstring_literal@Base 4:15.08.0
 _ZZZN10MailCommon13FilterManager7PrivateC4EPS0_ENKUlvE_clEvE15qstring_literal@Base 4:15.08.0
 _ZZZN10MailCommon18MailCommonSettings11setIconSizeEiENKUlvE_clEvE15qstring_literal@Base 4:15.08.1
 _ZZZN10MailCommon18MailCommonSettings21setEnableAccountOrderEbENKUlvE_clEvE15qstring_literal@Base 4:15.08.1
 _ZZZN10MailCommon18MailCommonSettings29setFavoriteCollectionViewModeEiENKUlvE_clEvE15qstring_literal@Base 4:15.08.1
 _ZZZN10MailCommon18MailCommonSettings8setOrderERK11QStringListENKUlvE_clEvE15qstring_literal@Base 4:15.08.1
 (c++)"non-virtual thunk to FilterActionMissingCollectionDialog::~FilterActionMissingCollectionDialog()@Base" 4:15.08.0
 (c++)"non-virtual thunk to MailCommon::AccountConfigOrderDialog::~AccountConfigOrderDialog()@Base" 4:15.08.0
 (c++)"non-virtual thunk to MailCommon::AddTagDialog::~AddTagDialog()@Base" 4:15.08.0
 (c++)"non-virtual thunk to MailCommon::CollectionExpiryPage::~CollectionExpiryPage()@Base" 4:15.08.0
 (c++)"non-virtual thunk to MailCommon::CollectionGeneralPage::~CollectionGeneralPage()@Base" 4:15.08.0
 (c++)"non-virtual thunk to MailCommon::ContentTypeWidget::~ContentTypeWidget()@Base" 4:15.08.0
 (c++)"non-virtual thunk to MailCommon::FavoriteCollectionWidget::~FavoriteCollectionWidget()@Base" 4:15.08.0
 (c++)"non-virtual thunk to MailCommon::FilterActionWidgetLister::~FilterActionWidgetLister()@Base" 4:15.08.0
 (c++)"non-virtual thunk to MailCommon::FolderRequester::~FolderRequester()@Base" 4:15.08.0
 (c++)"non-virtual thunk to MailCommon::FolderSelectionDialog::~FolderSelectionDialog()@Base" 4:15.08.0
 (c++)"non-virtual thunk to MailCommon::FolderTreeView::~FolderTreeView()@Base" 4:15.08.0
 (c++)"non-virtual thunk to MailCommon::FolderTreeWidget::~FolderTreeWidget()@Base" 4:15.08.0
 (c++)"non-virtual thunk to MailCommon::IncidencesForWidget::~IncidencesForWidget()@Base" 4:15.08.0
 (c++)"non-virtual thunk to MailCommon::InvalidFilterDialog::~InvalidFilterDialog()@Base" 4:15.08.0
 (c++)"non-virtual thunk to MailCommon::InvalidFilterInfoWidget::~InvalidFilterInfoWidget()@Base" 4:15.08.0
 (c++)"non-virtual thunk to MailCommon::InvalidFilterListView::~InvalidFilterListView()@Base" 4:15.08.0
 (c++)"non-virtual thunk to MailCommon::InvalidFilterWidget::~InvalidFilterWidget()@Base" 4:15.08.0
 (c++)"non-virtual thunk to MailCommon::KMFilterListBox::~KMFilterListBox()@Base" 4:15.08.0
 (c++)"non-virtual thunk to MailCommon::MDNAdviceDialog::~MDNAdviceDialog()@Base" 4:15.08.0
 (c++)"non-virtual thunk to MailCommon::RedirectDialog::~RedirectDialog()@Base" 4:15.08.0
 (c++)"non-virtual thunk to MailCommon::SearchPatternEdit::~SearchPatternEdit()@Base" 4:15.08.0
 (c++)"non-virtual thunk to MailCommon::SendMdnHandler::setItem(Akonadi::Item const&)@Base" 4:15.08.0
 (c++)"non-virtual thunk to MailCommon::SendMdnHandler::~SendMdnHandler()@Base" 4:15.08.0
 (c++)"non-virtual thunk to MailCommon::TagWidget::~TagWidget()@Base" 4:15.08.0
