# SymbolsHelper-Confirmed: 4:15.08.1 amd64 i386
libnoteshared.so.5 libnoteshared5 #MINVER#
 _ZN10NoteShared10NoteEditorC1EP7QWidget@Base 4:15.08.0
 _ZN10NoteShared10NoteEditorC2EP7QWidget@Base 4:15.08.0
 _ZN10NoteShared10NoteEditorD0Ev@Base 4:15.08.0
 _ZN10NoteShared10NoteEditorD1Ev@Base 4:15.08.0
 _ZN10NoteShared10NoteEditorD2Ev@Base 4:15.08.0
 _ZN10NoteShared14NoteHostDialog10readConfigEv@Base 4:15.08.0
 _ZN10NoteShared14NoteHostDialog11qt_metacallEN11QMetaObject4CallEiPPv@Base 4:15.08.0
 _ZN10NoteShared14NoteHostDialog11qt_metacastEPKc@Base 4:15.08.0
 _ZN10NoteShared14NoteHostDialog15serviceSelectedERK11QModelIndex@Base 4:15.08.0
 _ZN10NoteShared14NoteHostDialog15slotTextChangedERK7QString@Base 4:15.08.0
 _ZN10NoteShared14NoteHostDialog16staticMetaObjectE@Base 4:15.08.0
 _ZN10NoteShared14NoteHostDialog24slotServiceDoubleClickedERK11QModelIndex@Base 4:15.08.0
 _ZN10NoteShared14NoteHostDialogC1ERK7QStringP7QWidget@Base 4:15.08.0
 _ZN10NoteShared14NoteHostDialogC2ERK7QStringP7QWidget@Base 4:15.08.0
 _ZN10NoteShared14NoteHostDialogD0Ev@Base 4:15.08.0
 _ZN10NoteShared14NoteHostDialogD1Ev@Base 4:15.08.0
 _ZN10NoteShared14NoteHostDialogD2Ev@Base 4:15.08.0
 _ZN10NoteShared14NoteListWidget10createItemERKN7Akonadi4ItemE@Base 4:15.08.0
 _ZN10NoteShared14NoteListWidget10removeNoteERKN7Akonadi4ItemE@Base 4:15.08.0
 _ZN10NoteShared14NoteListWidget8addNotesERK7QVectorIN7Akonadi4ItemEE@Base 4:15.08.0
 _ZN10NoteShared14NoteListWidget8setNotesERK7QVectorIN7Akonadi4ItemEE@Base 4:15.08.0
 _ZN10NoteShared14NoteListWidgetC1EP7QWidget@Base 4:15.08.0
 _ZN10NoteShared14NoteListWidgetC2EP7QWidget@Base 4:15.08.0
 _ZN10NoteShared14NoteListWidgetD0Ev@Base 4:15.08.0
 _ZN10NoteShared14NoteListWidgetD1Ev@Base 4:15.08.0
 _ZN10NoteShared14NoteListWidgetD2Ev@Base 4:15.08.0
 _ZN10NoteShared15NoteAlarmDialog11qt_metacallEN11QMetaObject4CallEiPPv@Base 4:15.08.0
 _ZN10NoteShared15NoteAlarmDialog11qt_metacastEPKc@Base 4:15.08.0
 _ZN10NoteShared15NoteAlarmDialog16staticMetaObjectE@Base 4:15.08.0
 _ZN10NoteShared15NoteAlarmDialog17slotButtonChangedEi@Base 4:15.08.0
 _ZN10NoteShared15NoteAlarmDialog8setAlarmERK9QDateTime@Base 4:15.08.0
 _ZN10NoteShared15NoteAlarmDialogC1ERK7QStringP7QWidget@Base 4:15.08.0
 _ZN10NoteShared15NoteAlarmDialogC2ERK7QStringP7QWidget@Base 4:15.08.0
 _ZN10NoteShared15NoteEditorUtils10insertDateEP9QTextEdit@Base 4:15.08.0
 _ZN10NoteShared15NoteEditorUtils12addCheckmarkER11QTextCursor@Base 4:15.08.0
 _ZN10NoteShared15NoteEditorUtilsC1Ev@Base 4:15.08.0
 _ZN10NoteShared15NoteEditorUtilsC2Ev@Base 4:15.08.0
 _ZN10NoteShared16CreateNewNoteJob11qt_metacallEN11QMetaObject4CallEiPPv@Base 4:15.08.0
 _ZN10NoteShared16CreateNewNoteJob11qt_metacastEPKc@Base 4:15.08.0
 _ZN10NoteShared16CreateNewNoteJob11setRichTextEb@Base 4:15.08.0
 _ZN10NoteShared16CreateNewNoteJob16staticMetaObjectE@Base 4:15.08.0
 _ZN10NoteShared16CreateNewNoteJob19selectNewCollectionEv@Base 4:15.08.0
 _ZN10NoteShared16CreateNewNoteJob19slotFetchCollectionEP4KJob@Base 4:15.08.0
 _ZN10NoteShared16CreateNewNoteJob23slotSelectNewCollectionEv@Base 4:15.08.0
 _ZN10NoteShared16CreateNewNoteJob24createFetchCollectionJobEb@Base 4:15.08.0
 _ZN10NoteShared16CreateNewNoteJob24slotNoteCreationFinishedEP4KJob@Base 4:15.08.0
 _ZN10NoteShared16CreateNewNoteJob28slotCollectionModifyFinishedEP4KJob@Base 4:15.08.0
 _ZN10NoteShared16CreateNewNoteJob5startEv@Base 4:15.08.0
 _ZN10NoteShared16CreateNewNoteJob7setNoteERK7QStringS3_@Base 4:15.08.0
 _ZN10NoteShared16CreateNewNoteJobC1EP7QObjectP7QWidget@Base 4:15.08.0
 _ZN10NoteShared16CreateNewNoteJobC2EP7QObjectP7QWidget@Base 4:15.08.0
 _ZN10NoteShared16CreateNewNoteJobD0Ev@Base 4:15.08.0
 _ZN10NoteShared16CreateNewNoteJobD1Ev@Base 4:15.08.0
 _ZN10NoteShared16CreateNewNoteJobD2Ev@Base 4:15.08.0
 _ZN10NoteShared16NoteActionConfig11qt_metacallEN11QMetaObject4CallEiPPv@Base 4:15.08.0
 _ZN10NoteShared16NoteActionConfig11qt_metacastEPKc@Base 4:15.08.0
 _ZN10NoteShared16NoteActionConfig16staticMetaObjectE@Base 4:15.08.0
 _ZN10NoteShared16NoteActionConfig19slotHelpLinkClickedERK7QString@Base 4:15.08.0
 _ZN10NoteShared16NoteActionConfig4loadEv@Base 4:15.08.0
 _ZN10NoteShared16NoteActionConfig4saveEv@Base 4:15.08.0
 _ZN10NoteShared16NoteActionConfigC1EP7QWidget@Base 4:15.08.0
 _ZN10NoteShared16NoteActionConfigC2EP7QWidget@Base 4:15.08.0
 _ZN10NoteShared17NoteLockAttribute11deserializeERK10QByteArray@Base 4:15.08.0
 _ZN10NoteShared17NoteLockAttributeC1Ev@Base 4:15.08.0
 _ZN10NoteShared17NoteLockAttributeC2Ev@Base 4:15.08.0
 _ZN10NoteShared17NoteLockAttributeD0Ev@Base 4:15.08.0
 _ZN10NoteShared17NoteLockAttributeD1Ev@Base 4:15.08.0
 _ZN10NoteShared17NoteLockAttributeD2Ev@Base 4:15.08.0
 _ZN10NoteShared17NoteNetworkConfig11qt_metacallEN11QMetaObject4CallEiPPv@Base 4:15.08.0
 _ZN10NoteShared17NoteNetworkConfig11qt_metacastEPKc@Base 4:15.08.0
 _ZN10NoteShared17NoteNetworkConfig16staticMetaObjectE@Base 4:15.08.0
 _ZN10NoteShared17NoteNetworkConfig4loadEv@Base 4:15.08.0
 _ZN10NoteShared17NoteNetworkConfig4saveEv@Base 4:15.08.0
 _ZN10NoteShared17NoteNetworkConfigC1EP7QWidget@Base 4:15.08.0
 _ZN10NoteShared17NoteNetworkConfigC2EP7QWidget@Base 4:15.08.0
 _ZN10NoteShared18NoteAlarmAttribute11deserializeERK10QByteArray@Base 4:15.08.0
 _ZN10NoteShared18NoteAlarmAttribute11setDateTimeERK9QDateTime@Base 4:15.08.0
 _ZN10NoteShared18NoteAlarmAttributeC1Ev@Base 4:15.08.0
 _ZN10NoteShared18NoteAlarmAttributeC2Ev@Base 4:15.08.0
 _ZN10NoteShared18NoteAlarmAttributeD0Ev@Base 4:15.08.0
 _ZN10NoteShared18NoteAlarmAttributeD1Ev@Base 4:15.08.0
 _ZN10NoteShared18NoteAlarmAttributeD2Ev@Base 4:15.08.0
 _ZN10NoteShared18NotesNetworkSender10slotClosedEv@Base 4:15.08.0
 _ZN10NoteShared18NotesNetworkSender11qt_metacallEN11QMetaObject4CallEiPPv@Base 4:15.08.0
 _ZN10NoteShared18NotesNetworkSender11qt_metacastEPKc@Base 4:15.08.0
 _ZN10NoteShared18NotesNetworkSender11setSenderIdERK7QString@Base 4:15.08.0
 _ZN10NoteShared18NotesNetworkSender11slotWrittenEx@Base 4:15.08.0
 _ZN10NoteShared18NotesNetworkSender13slotConnectedEv@Base 4:15.08.0
 _ZN10NoteShared18NotesNetworkSender16staticMetaObjectE@Base 4:15.08.0
 _ZN10NoteShared18NotesNetworkSender7setNoteERK7QStringS3_@Base 4:15.08.0
 _ZN10NoteShared18NotesNetworkSender9slotErrorEv@Base 4:15.08.0
 _ZN10NoteShared18NotesNetworkSenderC1EP10QTcpSocket@Base 4:15.08.0
 _ZN10NoteShared18NotesNetworkSenderC2EP10QTcpSocket@Base 4:15.08.0
 _ZN10NoteShared18NotesNetworkSenderD0Ev@Base 4:15.08.0
 _ZN10NoteShared18NotesNetworkSenderD1Ev@Base 4:15.08.0
 _ZN10NoteShared18NotesNetworkSenderD2Ev@Base 4:15.08.0
 _ZN10NoteShared19NotesChangeRecorder11qt_metacallEN11QMetaObject4CallEiPPv@Base 4:15.08.0
 _ZN10NoteShared19NotesChangeRecorder11qt_metacastEPKc@Base 4:15.08.0
 _ZN10NoteShared19NotesChangeRecorder16staticMetaObjectE@Base 4:15.08.0
 _ZN10NoteShared19NotesChangeRecorderC1EP7QObject@Base 4:15.08.0
 _ZN10NoteShared19NotesChangeRecorderC2EP7QObject@Base 4:15.08.0
 _ZN10NoteShared20LocalResourceCreator11qt_metacallEN11QMetaObject4CallEiPPv@Base 4:15.08.0
 _ZN10NoteShared20LocalResourceCreator11qt_metacastEPKc@Base 4:15.08.0
 _ZN10NoteShared20LocalResourceCreator12slotSyncDoneEP4KJob@Base 4:15.08.0
 _ZN10NoteShared20LocalResourceCreator14createInstanceEv@Base 4:15.08.0
 _ZN10NoteShared20LocalResourceCreator15createIfMissingEv@Base 4:15.08.0
 _ZN10NoteShared20LocalResourceCreator16staticMetaObjectE@Base 4:15.08.0
 _ZN10NoteShared20LocalResourceCreator19slotInstanceCreatedEP4KJob@Base 4:15.08.0
 _ZN10NoteShared20LocalResourceCreator20finishCreateResourceEv@Base 4:15.08.0
 _ZN10NoteShared20LocalResourceCreator24akonadiNotesInstanceNameEv@Base 4:15.08.0
 _ZN10NoteShared20LocalResourceCreatorC1EP7QObject@Base 4:15.08.0
 _ZN10NoteShared20LocalResourceCreatorC2EP7QObject@Base 4:15.08.0
 _ZN10NoteShared20NoteDisplayAttribute10setDesktopEi@Base 4:15.08.0
 _ZN10NoteShared20NoteDisplayAttribute10setTabSizeEi@Base 4:15.08.0
 _ZN10NoteShared20NoteDisplayAttribute11deserializeERK10QByteArray@Base 4:15.08.0
 _ZN10NoteShared20NoteDisplayAttribute11setIsHiddenEb@Base 4:15.08.0
 _ZN10NoteShared20NoteDisplayAttribute11setPositionERK6QPoint@Base 4:15.08.0
 _ZN10NoteShared20NoteDisplayAttribute12setKeepAboveEb@Base 4:15.08.0
 _ZN10NoteShared20NoteDisplayAttribute12setKeepBelowEb@Base 4:15.08.0
 _ZN10NoteShared20NoteDisplayAttribute12setTitleFontERK5QFont@Base 4:15.08.0
 _ZN10NoteShared20NoteDisplayAttribute13setAutoIndentEb@Base 4:15.08.0
 _ZN10NoteShared20NoteDisplayAttribute16setShowInTaskbarEb@Base 4:15.08.0
 _ZN10NoteShared20NoteDisplayAttribute18setBackgroundColorERK6QColor@Base 4:15.08.0
 _ZN10NoteShared20NoteDisplayAttribute18setForegroundColorERK6QColor@Base 4:15.08.0
 _ZN10NoteShared20NoteDisplayAttribute18setRememberDesktopEb@Base 4:15.08.0
 _ZN10NoteShared20NoteDisplayAttribute7setFontERK5QFont@Base 4:15.08.0
 _ZN10NoteShared20NoteDisplayAttribute7setSizeERK5QSize@Base 4:15.08.0
 _ZN10NoteShared20NoteDisplayAttributeC1Ev@Base 4:15.08.0
 _ZN10NoteShared20NoteDisplayAttributeC2Ev@Base 4:15.08.0
 _ZN10NoteShared20NoteDisplayAttributeD0Ev@Base 4:15.08.0
 _ZN10NoteShared20NoteDisplayAttributeD1Ev@Base 4:15.08.0
 _ZN10NoteShared20NoteDisplayAttributeD2Ev@Base 4:15.08.0
 _ZN10NoteShared20NotesNetworkReceiver11qt_metacallEN11QMetaObject4CallEiPPv@Base 4:15.08.0
 _ZN10NoteShared20NotesNetworkReceiver11qt_metacastEPKc@Base 4:15.08.0
 _ZN10NoteShared20NotesNetworkReceiver15sigNoteReceivedERK7QStringS3_@Base 4:15.08.0
 _ZN10NoteShared20NotesNetworkReceiver16staticMetaObjectE@Base 4:15.08.0
 _ZN10NoteShared20NotesNetworkReceiver17slotDataAvailableEv@Base 4:15.08.0
 _ZN10NoteShared20NotesNetworkReceiver20slotConnectionClosedEv@Base 4:15.08.0
 _ZN10NoteShared20NotesNetworkReceiver20slotReceptionTimeoutEv@Base 4:15.08.0
 _ZN10NoteShared20NotesNetworkReceiver9slotErrorEN15QAbstractSocket11SocketErrorE@Base 4:15.08.0
 _ZN10NoteShared20NotesNetworkReceiverC1EP10QTcpSocket@Base 4:15.08.0
 _ZN10NoteShared20NotesNetworkReceiverC2EP10QTcpSocket@Base 4:15.08.0
 _ZN10NoteShared20NotesNetworkReceiverD0Ev@Base 4:15.08.0
 _ZN10NoteShared20NotesNetworkReceiverD1Ev@Base 4:15.08.0
 _ZN10NoteShared20NotesNetworkReceiverD2Ev@Base 4:15.08.0
 _ZN10NoteShared21NotesAkonadiTreeModel11qt_metacallEN11QMetaObject4CallEiPPv@Base 4:15.08.0
 _ZN10NoteShared21NotesAkonadiTreeModel11qt_metacastEPKc@Base 4:15.08.0
 _ZN10NoteShared21NotesAkonadiTreeModel16staticMetaObjectE@Base 4:15.08.0
 _ZN10NoteShared21NotesAkonadiTreeModelC1EPN7Akonadi14ChangeRecorderEP7QObject@Base 4:15.08.0
 _ZN10NoteShared21NotesAkonadiTreeModelC2EPN7Akonadi14ChangeRecorderEP7QObject@Base 4:15.08.0
 _ZN10NoteShared21NotesAkonadiTreeModelD0Ev@Base 4:15.08.0
 _ZN10NoteShared21NotesAkonadiTreeModelD1Ev@Base 4:15.08.0
 _ZN10NoteShared21NotesAkonadiTreeModelD2Ev@Base 4:15.08.0
 _ZN10NoteShared22NoteSharedGlobalConfig4selfEv@Base 4:15.08.0
 _ZN10NoteShared22NoteSharedGlobalConfigC1Ev@Base 4:15.08.0
 _ZN10NoteShared22NoteSharedGlobalConfigC2Ev@Base 4:15.08.0
 _ZN10NoteShared22NoteSharedGlobalConfigD0Ev@Base 4:15.08.0
 _ZN10NoteShared22NoteSharedGlobalConfigD1Ev@Base 4:15.08.0
 _ZN10NoteShared22NoteSharedGlobalConfigD2Ev@Base 4:15.08.0
 _ZN10NoteShared23NoteNetworkConfigWidget11qt_metacallEN11QMetaObject4CallEiPPv@Base 4:15.08.0
 _ZN10NoteShared23NoteNetworkConfigWidget11qt_metacastEPKc@Base 4:15.08.0
 _ZN10NoteShared23NoteNetworkConfigWidget16staticMetaObjectE@Base 4:15.08.0
 _ZN10NoteShared23NoteNetworkConfigWidget4loadEv@Base 4:15.08.0
 _ZN10NoteShared23NoteNetworkConfigWidget4saveEv@Base 4:15.08.0
 _ZN10NoteShared23NoteNetworkConfigWidgetC1EP7QWidget@Base 4:15.08.0
 _ZN10NoteShared23NoteNetworkConfigWidgetC2EP7QWidget@Base 4:15.08.0
 _ZN10NoteShared23NoteNetworkConfigWidgetD0Ev@Base 4:15.08.0
 _ZN10NoteShared23NoteNetworkConfigWidgetD1Ev@Base 4:15.08.0
 _ZN10NoteShared23NoteNetworkConfigWidgetD2Ev@Base 4:15.08.0
 _ZN10NoteShared24SelectedNotefolderDialog10readConfigEv@Base 4:15.08.0
 _ZN10NoteShared24SelectedNotefolderDialog11qt_metacallEN11QMetaObject4CallEiPPv@Base 4:15.08.0
 _ZN10NoteShared24SelectedNotefolderDialog11qt_metacastEPKc@Base 4:15.08.0
 _ZN10NoteShared24SelectedNotefolderDialog11writeConfigEv@Base 4:15.08.0
 _ZN10NoteShared24SelectedNotefolderDialog16staticMetaObjectE@Base 4:15.08.0
 _ZN10NoteShared24SelectedNotefolderDialogC1EP7QWidget@Base 4:15.08.0
 _ZN10NoteShared24SelectedNotefolderDialogC2EP7QWidget@Base 4:15.08.0
 _ZN10NoteShared24SelectedNotefolderDialogD0Ev@Base 4:15.08.0
 _ZN10NoteShared24SelectedNotefolderDialogD1Ev@Base 4:15.08.0
 _ZN10NoteShared24SelectedNotefolderDialogD2Ev@Base 4:15.08.0
 _ZN10NoteShared24ShowFolderNotesAttribute11deserializeERK10QByteArray@Base 4:15.08.0
 _ZN10NoteShared24ShowFolderNotesAttributeC1Ev@Base 4:15.08.0
 _ZN10NoteShared24ShowFolderNotesAttributeC2Ev@Base 4:15.08.0
 _ZN10NoteShared24ShowFolderNotesAttributeD0Ev@Base 4:15.08.0
 _ZN10NoteShared24ShowFolderNotesAttributeD1Ev@Base 4:15.08.0
 _ZN10NoteShared24ShowFolderNotesAttributeD2Ev@Base 4:15.08.0
 _ZN10NoteShared9NoteUtils10sendToMailEP7QWidgetRK7QStringS5_@Base 4:15.08.0
 _ZN10NoteShared9NoteUtils13createToolTipERKN7Akonadi4ItemE@Base 4:15.08.0
 _ZN10NoteShared9NoteUtils13sendToNetworkEP7QWidgetRK7QStringS5_@Base 4:15.08.0
 _ZN10NoteShared9NoteUtilsC1Ev@Base 4:15.08.0
 _ZN10NoteShared9NoteUtilsC2Ev@Base 4:15.08.0
 (optional=templinst)_ZN7Akonadi4Item14setPayloadImplIN5boost10shared_ptrIN5KMime7MessageEEEEENSt9enable_ifIXntsrNS_8Internal12PayloadTraitIT_EE13isPolymorphicEvE4typeERKSA_@Base 4:15.08.0
 _ZNK10NoteShared14NoteHostDialog10metaObjectEv@Base 4:15.08.0
 _ZNK10NoteShared14NoteHostDialog4hostEv@Base 4:15.08.0
 _ZNK10NoteShared14NoteHostDialog4portEv@Base 4:15.08.0
 _ZNK10NoteShared14NoteListWidget13currentItemIdEv@Base 4:15.08.0
 _ZNK10NoteShared14NoteListWidget13selectedNotesEv@Base 4:15.08.0
 _ZNK10NoteShared14NoteListWidget6itemIdEP15QListWidgetItem@Base 4:15.08.0
 _ZNK10NoteShared15NoteAlarmDialog10metaObjectEv@Base 4:15.08.0
 _ZNK10NoteShared15NoteAlarmDialog5alarmEv@Base 4:15.08.0
 _ZNK10NoteShared16CreateNewNoteJob10metaObjectEv@Base 4:15.08.0
 _ZNK10NoteShared16NoteActionConfig10metaObjectEv@Base 4:15.08.0
 _ZNK10NoteShared17NoteLockAttribute10serializedEv@Base 4:15.08.0
 _ZNK10NoteShared17NoteLockAttribute4typeEv@Base 4:15.08.0
 _ZNK10NoteShared17NoteLockAttribute5cloneEv@Base 4:15.08.0
 _ZNK10NoteShared17NoteNetworkConfig10metaObjectEv@Base 4:15.08.0
 _ZNK10NoteShared18NoteAlarmAttribute10serializedEv@Base 4:15.08.0
 _ZNK10NoteShared18NoteAlarmAttribute4typeEv@Base 4:15.08.0
 _ZNK10NoteShared18NoteAlarmAttribute5cloneEv@Base 4:15.08.0
 _ZNK10NoteShared18NoteAlarmAttribute8dateTimeEv@Base 4:15.08.0
 _ZNK10NoteShared18NoteAlarmAttributeeqERKS0_@Base 4:15.08.0
 _ZNK10NoteShared18NotesNetworkSender10metaObjectEv@Base 4:15.08.0
 _ZNK10NoteShared19NotesChangeRecorder10metaObjectEv@Base 4:15.08.0
 _ZNK10NoteShared19NotesChangeRecorder14changeRecorderEv@Base 4:15.08.0
 _ZNK10NoteShared20LocalResourceCreator10metaObjectEv@Base 4:15.08.0
 _ZNK10NoteShared20NoteDisplayAttribute10autoIndentEv@Base 4:15.08.0
 _ZNK10NoteShared20NoteDisplayAttribute10serializedEv@Base 4:15.08.0
 _ZNK10NoteShared20NoteDisplayAttribute13showInTaskbarEv@Base 4:15.08.0
 _ZNK10NoteShared20NoteDisplayAttribute15backgroundColorEv@Base 4:15.08.0
 _ZNK10NoteShared20NoteDisplayAttribute15foregroundColorEv@Base 4:15.08.0
 _ZNK10NoteShared20NoteDisplayAttribute15rememberDesktopEv@Base 4:15.08.0
 _ZNK10NoteShared20NoteDisplayAttribute4fontEv@Base 4:15.08.0
 _ZNK10NoteShared20NoteDisplayAttribute4sizeEv@Base 4:15.08.0
 _ZNK10NoteShared20NoteDisplayAttribute4typeEv@Base 4:15.08.0
 _ZNK10NoteShared20NoteDisplayAttribute5cloneEv@Base 4:15.08.0
 _ZNK10NoteShared20NoteDisplayAttribute7desktopEv@Base 4:15.08.0
 _ZNK10NoteShared20NoteDisplayAttribute7tabSizeEv@Base 4:15.08.0
 _ZNK10NoteShared20NoteDisplayAttribute8isHiddenEv@Base 4:15.08.0
 _ZNK10NoteShared20NoteDisplayAttribute8positionEv@Base 4:15.08.0
 _ZNK10NoteShared20NoteDisplayAttribute9keepAboveEv@Base 4:15.08.0
 _ZNK10NoteShared20NoteDisplayAttribute9keepBelowEv@Base 4:15.08.0
 _ZNK10NoteShared20NoteDisplayAttribute9titleFontEv@Base 4:15.08.0
 _ZNK10NoteShared20NoteDisplayAttributeeqERKS0_@Base 4:15.08.0
 _ZNK10NoteShared20NotesNetworkReceiver10metaObjectEv@Base 4:15.08.0
 _ZNK10NoteShared21NotesAkonadiTreeModel10metaObjectEv@Base 4:15.08.0
 _ZNK10NoteShared23NoteNetworkConfigWidget10metaObjectEv@Base 4:15.08.0
 _ZNK10NoteShared24SelectedNotefolderDialog10metaObjectEv@Base 4:15.08.0
 _ZNK10NoteShared24ShowFolderNotesAttribute10serializedEv@Base 4:15.08.0
 _ZNK10NoteShared24ShowFolderNotesAttribute4typeEv@Base 4:15.08.0
 _ZNK10NoteShared24ShowFolderNotesAttribute5cloneEv@Base 4:15.08.0
 (optional=templinst)_ZNK12KConfigGroup9readEntryI5QSizeEET_PKcRKS2_@Base 4:15.08.0
 (optional=templinst)_ZNK7Akonadi4Item11payloadImplIN5boost10shared_ptrIN5KMime7MessageEEEEENSt9enable_ifIXntsrNS_8Internal12PayloadTraitIT_EE13isPolymorphicESA_E4typeEv@Base 4:15.08.0
 (optional=templinst)_ZNK7Akonadi4Item14tryToCloneImplIN5boost10shared_ptrIN5KMime7MessageEEE14QSharedPointerIS5_EEENSt9enable_ifIXntsrSt7is_sameIT_T0_E5valueEbE4typeEPSB_PKi@Base 4:15.08.0
 _ZTIN10NoteShared10NoteEditorE@Base 4:15.08.0
 _ZTIN10NoteShared14NoteHostDialogE@Base 4:15.08.0
 _ZTIN10NoteShared14NoteListWidgetE@Base 4:15.08.0
 _ZTIN10NoteShared15NoteAlarmDialogE@Base 4:15.08.0
 _ZTIN10NoteShared16CreateNewNoteJobE@Base 4:15.08.0
 _ZTIN10NoteShared16NoteActionConfigE@Base 4:15.08.0
 _ZTIN10NoteShared17NoteLockAttributeE@Base 4:15.08.0
 _ZTIN10NoteShared17NoteNetworkConfigE@Base 4:15.08.0
 _ZTIN10NoteShared18NoteAlarmAttributeE@Base 4:15.08.0
 _ZTIN10NoteShared18NotesNetworkSenderE@Base 4:15.08.0
 _ZTIN10NoteShared19NotesChangeRecorderE@Base 4:15.08.0
 _ZTIN10NoteShared20LocalResourceCreatorE@Base 4:15.08.0
 _ZTIN10NoteShared20NoteDisplayAttributeE@Base 4:15.08.0
 _ZTIN10NoteShared20NotesNetworkReceiverE@Base 4:15.08.0
 _ZTIN10NoteShared21NotesAkonadiTreeModelE@Base 4:15.08.0
 _ZTIN10NoteShared22NoteSharedGlobalConfigE@Base 4:15.08.0
 _ZTIN10NoteShared23NoteNetworkConfigWidgetE@Base 4:15.08.0
 _ZTIN10NoteShared24SelectedNotefolderDialogE@Base 4:15.08.0
 _ZTIN10NoteShared24ShowFolderNotesAttributeE@Base 4:15.08.0
 _ZTSN10NoteShared10NoteEditorE@Base 4:15.08.0
 _ZTSN10NoteShared14NoteHostDialogE@Base 4:15.08.0
 _ZTSN10NoteShared14NoteListWidgetE@Base 4:15.08.0
 _ZTSN10NoteShared15NoteAlarmDialogE@Base 4:15.08.0
 _ZTSN10NoteShared16CreateNewNoteJobE@Base 4:15.08.0
 _ZTSN10NoteShared16NoteActionConfigE@Base 4:15.08.0
 _ZTSN10NoteShared17NoteLockAttributeE@Base 4:15.08.0
 _ZTSN10NoteShared17NoteNetworkConfigE@Base 4:15.08.0
 _ZTSN10NoteShared18NoteAlarmAttributeE@Base 4:15.08.0
 _ZTSN10NoteShared18NotesNetworkSenderE@Base 4:15.08.0
 _ZTSN10NoteShared19NotesChangeRecorderE@Base 4:15.08.0
 _ZTSN10NoteShared20LocalResourceCreatorE@Base 4:15.08.0
 _ZTSN10NoteShared20NoteDisplayAttributeE@Base 4:15.08.0
 _ZTSN10NoteShared20NotesNetworkReceiverE@Base 4:15.08.0
 _ZTSN10NoteShared21NotesAkonadiTreeModelE@Base 4:15.08.0
 _ZTSN10NoteShared22NoteSharedGlobalConfigE@Base 4:15.08.0
 _ZTSN10NoteShared23NoteNetworkConfigWidgetE@Base 4:15.08.0
 _ZTSN10NoteShared24SelectedNotefolderDialogE@Base 4:15.08.0
 _ZTSN10NoteShared24ShowFolderNotesAttributeE@Base 4:15.08.0
 _ZTVN10NoteShared10NoteEditorE@Base 4:15.08.0
 _ZTVN10NoteShared14NoteHostDialogE@Base 4:15.08.0
 _ZTVN10NoteShared14NoteListWidgetE@Base 4:15.08.0
 _ZTVN10NoteShared15NoteAlarmDialogE@Base 4:15.08.0
 _ZTVN10NoteShared16CreateNewNoteJobE@Base 4:15.08.0
 _ZTVN10NoteShared16NoteActionConfigE@Base 4:15.08.0
 _ZTVN10NoteShared17NoteLockAttributeE@Base 4:15.08.0
 _ZTVN10NoteShared17NoteNetworkConfigE@Base 4:15.08.0
 _ZTVN10NoteShared18NoteAlarmAttributeE@Base 4:15.08.0
 _ZTVN10NoteShared18NotesNetworkSenderE@Base 4:15.08.0
 _ZTVN10NoteShared19NotesChangeRecorderE@Base 4:15.08.0
 _ZTVN10NoteShared20LocalResourceCreatorE@Base 4:15.08.0
 _ZTVN10NoteShared20NoteDisplayAttributeE@Base 4:15.08.0
 _ZTVN10NoteShared20NotesNetworkReceiverE@Base 4:15.08.0
 _ZTVN10NoteShared21NotesAkonadiTreeModelE@Base 4:15.08.0
 _ZTVN10NoteShared22NoteSharedGlobalConfigE@Base 4:15.08.0
 _ZTVN10NoteShared23NoteNetworkConfigWidgetE@Base 4:15.08.0
 _ZTVN10NoteShared24SelectedNotefolderDialogE@Base 4:15.08.0
 _ZTVN10NoteShared24ShowFolderNotesAttributeE@Base 4:15.08.0
 _ZZZN10NoteShared22NoteSharedGlobalConfig11setSenderIDERK7QStringENKUlvE_clEvE15qstring_literal@Base 4:15.08.1
 _ZZZN10NoteShared22NoteSharedGlobalConfig13setKnownHostsERK11QStringListENKUlvE_clEvE15qstring_literal@Base 4:15.08.1
 _ZZZN10NoteShared22NoteSharedGlobalConfig15setReceiveNotesEbENKUlvE_clEvE15qstring_literal@Base 4:15.08.1
 _ZZZN10NoteShared22NoteSharedGlobalConfig16setDefaultFolderExENKUlvE_clEvE15qstring_literal@Base 4:15.08.1
 _ZZZN10NoteShared22NoteSharedGlobalConfig21setNoteHostDialogSizeERK5QSizeENKUlvE_clEvE15qstring_literal@Base 4:15.08.1
 _ZZZN10NoteShared22NoteSharedGlobalConfig7setPortEjENKUlvE_clEvE15qstring_literal@Base 4:15.08.1
 (c++)"non-virtual thunk to NoteShared::NoteEditor::~NoteEditor()@Base" 4:15.08.0
 (c++)"non-virtual thunk to NoteShared::NoteHostDialog::~NoteHostDialog()@Base" 4:15.08.0
 (c++)"non-virtual thunk to NoteShared::NoteListWidget::~NoteListWidget()@Base" 4:15.08.0
 (c++)"non-virtual thunk to NoteShared::NoteNetworkConfigWidget::~NoteNetworkConfigWidget()@Base" 4:15.08.0
 (c++)"non-virtual thunk to NoteShared::SelectedNotefolderDialog::~SelectedNotefolderDialog()@Base" 4:15.08.0
