# SymbolsHelper-Confirmed: 4:15.08.1 amd64 i386
libpimcommon.so.5 libpimcommon5 #MINVER#
 (optional=templinst)_ZN12KConfigGroup10writeEntryI7QStringEEvPKcRK5QListIT_E6QFlagsIN11KConfigBase15WriteConfigFlagEE@Base 4:15.08.0
 (optional=templinst)_ZN12KConfigGroup10writeEntryIiEEvPKcRK5QListIT_E6QFlagsIN11KConfigBase15WriteConfigFlagEE@Base 4:15.08.0
 _ZN9PimCommon10AclManager11qt_metacallEN11QMetaObject4CallEiPPv@Base 4:15.08.0
 _ZN9PimCommon10AclManager11qt_metacastEPKc@Base 4:15.08.0
 _ZN9PimCommon10AclManager13setCollectionERKN7Akonadi10CollectionE@Base 4:15.08.0
 _ZN9PimCommon10AclManager16staticMetaObjectE@Base 4:15.08.0
 _ZN9PimCommon10AclManager17collectionChangedERKN7Akonadi10CollectionE@Base 4:15.08.0
 _ZN9PimCommon10AclManager28collectionCanBeAdministratedEb@Base 4:15.08.0
 _ZN9PimCommon10AclManager4saveEv@Base 4:15.08.0
 _ZN9PimCommon10AclManagerC1EP7QObject@Base 4:15.08.0
 _ZN9PimCommon10AclManagerC2EP7QObject@Base 4:15.08.0
 _ZN9PimCommon10AclManagerD0Ev@Base 4:15.08.0
 _ZN9PimCommon10AclManagerD1Ev@Base 4:15.08.0
 _ZN9PimCommon10AclManagerD2Ev@Base 4:15.08.0
 _ZN9PimCommon10EditorUtil11reverseCaseER11QTextCursor@Base 4:15.08.0
 _ZN9PimCommon10EditorUtil12sentenceCaseER11QTextCursor@Base 4:15.08.0
 _ZN9PimCommon10EditorUtil9lowerCaseER11QTextCursor@Base 4:15.08.0
 _ZN9PimCommon10EditorUtil9upperCaseER11QTextCursor@Base 4:15.08.0
 _ZN9PimCommon10EditorUtilC1Ev@Base 4:15.08.0
 _ZN9PimCommon10EditorUtilC2Ev@Base 4:15.08.0
 _ZN9PimCommon11AclListView10paintEventEP11QPaintEvent@Base 4:15.08.0
 _ZN9PimCommon11AclListView11qt_metacallEN11QMetaObject4CallEiPPv@Base 4:15.08.0
 _ZN9PimCommon11AclListView11qt_metacastEPKc@Base 4:15.08.0
 _ZN9PimCommon11AclListView16staticMetaObjectE@Base 4:15.08.0
 _ZN9PimCommon11AclListView21generalPaletteChangedEv@Base 4:15.08.0
 _ZN9PimCommon11AclListView32slotCollectionCanBeAdministratedEb@Base 4:15.08.0
 _ZN9PimCommon11AclListViewC1EP7QWidget@Base 4:15.08.0
 _ZN9PimCommon11AclListViewC2EP7QWidget@Base 4:15.08.0
 _ZN9PimCommon11AclListViewD0Ev@Base 4:15.08.0
 _ZN9PimCommon11AclListViewD1Ev@Base 4:15.08.0
 _ZN9PimCommon11AclListViewD2Ev@Base 4:15.08.0
 _ZN9PimCommon11NetworkUtil15setLowBandwidthEb@Base 4:15.08.0
 _ZN9PimCommon11NetworkUtil4selfEv@Base 4:15.08.0
 _ZN9PimCommon11NetworkUtilC1Ev@Base 4:15.08.0
 _ZN9PimCommon11NetworkUtilC2Ev@Base 4:15.08.0
 _ZN9PimCommon12TextToSpeech11qt_metacallEN11QMetaObject4CallEiPPv@Base 4:15.08.0
 _ZN9PimCommon12TextToSpeech11qt_metacastEPKc@Base 4:15.08.0
 _ZN9PimCommon12TextToSpeech12stateChangedENS0_5StateE@Base 4:15.08.0
 _ZN9PimCommon12TextToSpeech14reloadSettingsEv@Base 4:15.08.0
 _ZN9PimCommon12TextToSpeech16slotStateChangedEv@Base 4:15.08.0
 _ZN9PimCommon12TextToSpeech16staticMetaObjectE@Base 4:15.08.0
 _ZN9PimCommon12TextToSpeech3sayERK7QString@Base 4:15.08.0
 _ZN9PimCommon12TextToSpeech4initEv@Base 4:15.08.0
 _ZN9PimCommon12TextToSpeech4selfEv@Base 4:15.08.0
 _ZN9PimCommon12TextToSpeech4stopEv@Base 4:15.08.0
 _ZN9PimCommon12TextToSpeech5pauseEv@Base 4:15.08.0
 _ZN9PimCommon12TextToSpeech6resumeEv@Base 4:15.08.0
 _ZN9PimCommon12TextToSpeech7setRateEd@Base 4:15.08.0
 _ZN9PimCommon12TextToSpeech8setPitchEd@Base 4:15.08.0
 _ZN9PimCommon12TextToSpeech9setVolumeEi@Base 4:15.08.0
 _ZN9PimCommon12TextToSpeechC1EP7QObject@Base 4:15.08.0
 _ZN9PimCommon12TextToSpeechC2EP7QObject@Base 4:15.08.0
 _ZN9PimCommon12TextToSpeechD0Ev@Base 4:15.08.0
 _ZN9PimCommon12TextToSpeechD1Ev@Base 4:15.08.0
 _ZN9PimCommon12TextToSpeechD2Ev@Base 4:15.08.0
 _ZN9PimCommon13GravatarCache11qt_metacallEN11QMetaObject4CallEiPPv@Base 4:15.08.0
 _ZN9PimCommon13GravatarCache11qt_metacastEPKc@Base 4:15.08.0
 _ZN9PimCommon13GravatarCache13clearAllCacheEv@Base 4:15.08.0
 _ZN9PimCommon13GravatarCache14setMaximumSizeEi@Base 4:15.08.0
 _ZN9PimCommon13GravatarCache16staticMetaObjectE@Base 4:15.08.0
 _ZN9PimCommon13GravatarCache18loadGravatarPixmapERK7QStringRb@Base 4:15.08.0
 _ZN9PimCommon13GravatarCache18saveGravatarPixmapERK7QStringRK7QPixmap@Base 4:15.08.0
 _ZN9PimCommon13GravatarCache4selfEv@Base 4:15.08.0
 _ZN9PimCommon13GravatarCache5clearEv@Base 4:15.08.0
 _ZN9PimCommon13GravatarCacheC1Ev@Base 4:15.08.0
 _ZN9PimCommon13GravatarCacheC2Ev@Base 4:15.08.0
 _ZN9PimCommon13GravatarCacheD0Ev@Base 4:15.08.0
 _ZN9PimCommon13GravatarCacheD1Ev@Base 4:15.08.0
 _ZN9PimCommon13GravatarCacheD2Ev@Base 4:15.08.0
 _ZN9PimCommon13ShortUrlUtils10loadEngineENS0_10EngineTypeEP7QObject@Base 4:15.08.0
 _ZN9PimCommon14AutoCorrection10readConfigEv@Base 4:15.08.0
 _ZN9PimCommon14AutoCorrection11autocorrectEbR13QTextDocumentRi@Base 4:15.08.0
 _ZN9PimCommon14AutoCorrection11setLanguageERK7QStringb@Base 4:15.08.0
 _ZN9PimCommon14AutoCorrection11writeConfigEv@Base 4:15.08.0
 _ZN9PimCommon14AutoCorrection12singleSpacesEv@Base 4:15.08.0
 _ZN9PimCommon14AutoCorrection13autoFractionsEv@Base 4:15.08.0
 _ZN9PimCommon14AutoCorrection14addAutoCorrectERK7QStringS3_@Base 4:15.08.0
 _ZN9PimCommon14AutoCorrection14autoFormatURLsEv@Base 4:15.08.0
 _ZN9PimCommon14AutoCorrection14setSuperScriptEb@Base 4:15.08.0
 _ZN9PimCommon14AutoCorrection15setSingleSpacesEb@Base 4:15.08.0
 _ZN9PimCommon14AutoCorrection16setAutoFormatUrlEb@Base 4:15.08.0
 _ZN9PimCommon14AutoCorrection16setAutoFractionsEb@Base 4:15.08.0
 _ZN9PimCommon14AutoCorrection17autoBoldUnderlineEv@Base 4:15.08.0
 _ZN9PimCommon14AutoCorrection18capitalizeWeekDaysEv@Base 4:15.08.0
 _ZN9PimCommon14AutoCorrection18selectPreviousWordER11QTextCursori@Base 4:15.08.0
 _ZN9PimCommon14AutoCorrection19advancedAutocorrectEv@Base 4:15.08.0
 _ZN9PimCommon14AutoCorrection19superscriptAppendixEv@Base 4:15.08.0
 _ZN9PimCommon14AutoCorrection20fixTwoUppercaseCharsEv@Base 4:15.08.0
 _ZN9PimCommon14AutoCorrection20setAutoBoldUnderlineEb@Base 4:15.08.0
 _ZN9PimCommon14AutoCorrection21setAutocorrectEntriesERK5QHashI7QStringS2_E@Base 4:15.08.0
 _ZN9PimCommon14AutoCorrection21setCapitalizeWeekDaysEb@Base 4:15.08.0
 _ZN9PimCommon14AutoCorrection22setAddNonBreakingSpaceEb@Base 4:15.08.0
 _ZN9PimCommon14AutoCorrection22setAdvancedAutocorrectEb@Base 4:15.08.0
 _ZN9PimCommon14AutoCorrection22setReplaceDoubleQuotesEb@Base 4:15.08.0
 _ZN9PimCommon14AutoCorrection22setReplaceSingleQuotesEb@Base 4:15.08.0
 _ZN9PimCommon14AutoCorrection22setUpperCaseExceptionsERK4QSetI7QStringE@Base 4:15.08.0
 _ZN9PimCommon14AutoCorrection23setFixTwoUppercaseCharsEb@Base 4:15.08.0
 _ZN9PimCommon14AutoCorrection24replaceTypographicQuotesEv@Base 4:15.08.0
 _ZN9PimCommon14AutoCorrection24setEnabledAutoCorrectionEb@Base 4:15.08.0
 _ZN9PimCommon14AutoCorrection25readAutoCorrectionXmlFileEb@Base 4:15.08.0
 _ZN9PimCommon14AutoCorrection26setTypographicDoubleQuotesENS0_17TypographicQuotesE@Base 4:15.08.0
 _ZN9PimCommon14AutoCorrection26setTypographicSingleQuotesENS0_17TypographicQuotesE@Base 4:15.08.0
 _ZN9PimCommon14AutoCorrection26writeAutoCorrectionXmlFileERK7QString@Base 4:15.08.0
 _ZN9PimCommon14AutoCorrection27setTwoUpperLetterExceptionsERK4QSetI7QStringE@Base 4:15.08.0
 _ZN9PimCommon14AutoCorrection28uppercaseFirstCharOfSentenceEv@Base 4:15.08.0
 _ZN9PimCommon14AutoCorrection31setUppercaseFirstCharOfSentenceEb@Base 4:15.08.0
 _ZN9PimCommon14AutoCorrectionC1Ev@Base 4:15.08.0
 _ZN9PimCommon14AutoCorrectionC2Ev@Base 4:15.08.0
 _ZN9PimCommon14AutoCorrectionD1Ev@Base 4:15.08.0
 _ZN9PimCommon14AutoCorrectionD2Ev@Base 4:15.08.0
 _ZN9PimCommon14CreateResource11qt_metacallEN11QMetaObject4CallEiPPv@Base 4:15.08.0
 _ZN9PimCommon14CreateResource11qt_metacastEPKc@Base 4:15.08.0
 _ZN9PimCommon14CreateResource14createResourceERK7QStringS3_RK4QMapIS1_8QVariantEb@Base 4:15.08.0
 _ZN9PimCommon14CreateResource16staticMetaObjectE@Base 4:15.08.0
 _ZN9PimCommon14CreateResource18createResourceInfoERK7QString@Base 4:15.08.0
 _ZN9PimCommon14CreateResource19createResourceErrorERK7QString@Base 4:15.08.0
 _ZN9PimCommon14CreateResourceC1Ev@Base 4:15.08.0
 _ZN9PimCommon14CreateResourceC2Ev@Base 4:15.08.0
 _ZN9PimCommon14CreateResourceD0Ev@Base 4:15.08.0
 _ZN9PimCommon14CreateResourceD1Ev@Base 4:15.08.0
 _ZN9PimCommon14CreateResourceD2Ev@Base 4:15.08.0
 _ZN9PimCommon14CustomTextEdit11qt_metacallEN11QMetaObject4CallEiPPv@Base 4:15.08.0
 _ZN9PimCommon14CustomTextEdit11qt_metacastEPKc@Base 4:15.08.0
 _ZN9PimCommon14CustomTextEdit13setConfigNameERK7QString@Base 4:15.08.0
 _ZN9PimCommon14CustomTextEdit16languageSelectedEv@Base 4:15.08.0
 _ZN9PimCommon14CustomTextEdit16staticMetaObjectE@Base 4:15.08.0
 _ZN9PimCommon14CustomTextEdit17createHighlighterEv@Base 4:15.08.0
 _ZN9PimCommon14CustomTextEdit18insertLanguageMenuEP5QMenu@Base 4:15.08.0
 _ZN9PimCommon14CustomTextEditC1EP7QWidget@Base 4:15.08.0
 _ZN9PimCommon14CustomTextEditC1ERK7QStringP7QWidget@Base 4:15.08.0
 _ZN9PimCommon14CustomTextEditC2EP7QWidget@Base 4:15.08.0
 _ZN9PimCommon14CustomTextEditC2ERK7QStringP7QWidget@Base 4:15.08.0
 _ZN9PimCommon14CustomTextEditD0Ev@Base 4:15.08.0
 _ZN9PimCommon14CustomTextEditD1Ev@Base 4:15.08.0
 _ZN9PimCommon14CustomTextEditD2Ev@Base 4:15.08.0
 _ZN9PimCommon14CustomTreeView10paintEventEP11QPaintEvent@Base 4:15.08.0
 _ZN9PimCommon14CustomTreeView11changeEventEP6QEvent@Base 4:15.08.0
 _ZN9PimCommon14CustomTreeView11qt_metacallEN11QMetaObject4CallEiPPv@Base 4:15.08.0
 _ZN9PimCommon14CustomTreeView11qt_metacastEPKc@Base 4:15.08.0
 _ZN9PimCommon14CustomTreeView14setDefaultTextERK7QString@Base 4:15.08.0
 _ZN9PimCommon14CustomTreeView16staticMetaObjectE@Base 4:15.08.0
 _ZN9PimCommon14CustomTreeView18generalFontChangedEv@Base 4:15.08.0
 _ZN9PimCommon14CustomTreeView18setShowDefaultTextEb@Base 4:15.08.0
 _ZN9PimCommon14CustomTreeView21generalPaletteChangedEv@Base 4:15.08.0
 _ZN9PimCommon14CustomTreeViewC1EP7QWidget@Base 4:15.08.0
 _ZN9PimCommon14CustomTreeViewC2EP7QWidget@Base 4:15.08.0
 _ZN9PimCommon14CustomTreeViewD0Ev@Base 4:15.08.0
 _ZN9PimCommon14CustomTreeViewD1Ev@Base 4:15.08.0
 _ZN9PimCommon14CustomTreeViewD2Ev@Base 4:15.08.0
 _ZN9PimCommon14RichTextEditor11qt_metacallEN11QMetaObject4CallEiPPv@Base 4:15.08.0
 _ZN9PimCommon14RichTextEditor11qt_metacastEPKc@Base 4:15.08.0
 _ZN9PimCommon14RichTextEditor11replaceTextEv@Base 4:15.08.0
 _ZN9PimCommon14RichTextEditor11setReadOnlyEb@Base 4:15.08.0
 _ZN9PimCommon14RichTextEditor12focusInEventEP11QFocusEvent@Base 4:15.08.0
 _ZN9PimCommon14RichTextEditor12slotAllowTabEv@Base 4:15.08.0
 _ZN9PimCommon14RichTextEditor13checkSpellingEb@Base 4:15.08.0
 _ZN9PimCommon14RichTextEditor13highlightWordEii@Base 4:15.08.0
 _ZN9PimCommon14RichTextEditor13keyPressEventEP9QKeyEvent@Base 4:15.08.0
 _ZN9PimCommon14RichTextEditor13slotSpeakTextEv@Base 4:15.08.0
 _ZN9PimCommon14RichTextEditor14addIgnoreWordsERK11QStringList@Base 4:15.08.0
 _ZN9PimCommon14RichTextEditor14clearDecoratorEv@Base 4:15.08.0
 _ZN9PimCommon14RichTextEditor14deleteWordBackEv@Base 4:15.08.0
 _ZN9PimCommon14RichTextEditor14handleShortcutEPK9QKeyEvent@Base 4:15.08.0
 _ZN9PimCommon14RichTextEditor14mousePopupMenuERK6QPoint@Base 4:15.08.0
 _ZN9PimCommon14RichTextEditor14setHighlighterEPN6Sonnet11HighlighterE@Base 4:15.08.0
 _ZN9PimCommon14RichTextEditor15languageChangedERK7QString@Base 4:15.08.0
 _ZN9PimCommon14RichTextEditor16contextMenuEventEP17QContextMenuEvent@Base 4:15.08.0
 _ZN9PimCommon14RichTextEditor16overrideShortcutEPK9QKeyEvent@Base 4:15.08.0
 _ZN9PimCommon14RichTextEditor16setSearchSupportEb@Base 4:15.08.0
 _ZN9PimCommon14RichTextEditor16spellCheckStatusERK7QString@Base 4:15.08.0
 _ZN9PimCommon14RichTextEditor16staticMetaObjectE@Base 4:15.08.0
 _ZN9PimCommon14RichTextEditor17addExtraMenuEntryEP5QMenuRK6QPoint@Base 4:15.08.0
 _ZN9PimCommon14RichTextEditor17createHighlighterEv@Base 4:15.08.0
 _ZN9PimCommon14RichTextEditor17deleteWordForwardEv@Base 4:15.08.0
 _ZN9PimCommon14RichTextEditor17slotCheckSpellingEv@Base 4:15.08.0
 _ZN9PimCommon14RichTextEditor17slotUndoableClearEv@Base 4:15.08.0
 _ZN9PimCommon14RichTextEditor17updateHighLighterEv@Base 4:15.08.0
 _ZN9PimCommon14RichTextEditor18forceSpellCheckingEv@Base 4:15.08.0
 _ZN9PimCommon14RichTextEditor18setAllowTabSupportEb@Base 4:15.08.0
 _ZN9PimCommon14RichTextEditor20checkSpellingChangedEb@Base 4:15.08.0
 _ZN9PimCommon14RichTextEditor20slotLanguageSelectedEv@Base 4:15.08.0
 _ZN9PimCommon14RichTextEditor21setWebShortcutSupportEb@Base 4:15.08.0
 _ZN9PimCommon14RichTextEditor21spellCheckingCanceledEv@Base 4:15.08.0
 _ZN9PimCommon14RichTextEditor21spellCheckingFinishedEv@Base 4:15.08.0
 _ZN9PimCommon14RichTextEditor22setTextToSpeechSupportEb@Base 4:15.08.0
 _ZN9PimCommon14RichTextEditor23setActivateLanguageMenuEb@Base 4:15.08.0
 _ZN9PimCommon14RichTextEditor23setCheckSpellingEnabledEb@Base 4:15.08.0
 _ZN9PimCommon14RichTextEditor23setSpellCheckingSupportEb@Base 4:15.08.0
 _ZN9PimCommon14RichTextEditor23spellCheckerAutoCorrectERK7QStringS3_@Base 4:15.08.0
 _ZN9PimCommon14RichTextEditor24setShowAutoCorrectButtonEb@Base 4:15.08.0
 _ZN9PimCommon14RichTextEditor24setSpellCheckingLanguageERK7QString@Base 4:15.08.0
 _ZN9PimCommon14RichTextEditor24slotSpellCheckerCanceledEv@Base 4:15.08.0
 _ZN9PimCommon14RichTextEditor24slotSpellCheckerFinishedEv@Base 4:15.08.0
 _ZN9PimCommon14RichTextEditor24slotToggleAutoSpellCheckEv@Base 4:15.08.0
 _ZN9PimCommon14RichTextEditor25createSpellCheckDecoratorEv@Base 4:15.08.0
 _ZN9PimCommon14RichTextEditor25slotSpellCheckerCorrectedERK7QStringiS3_@Base 4:15.08.0
 _ZN9PimCommon14RichTextEditor27addIgnoreWordsToHighLighterEv@Base 4:15.08.0
 _ZN9PimCommon14RichTextEditor27slotDisplayMessageIndicatorERK7QString@Base 4:15.08.0
 _ZN9PimCommon14RichTextEditor27slotSpellCheckerAutoCorrectERK7QStringS3_@Base 4:15.08.0
 _ZN9PimCommon14RichTextEditor27slotSpellCheckerMisspellingERK7QStringi@Base 4:15.08.0
 _ZN9PimCommon14RichTextEditor30setSpellCheckingConfigFileNameERK7QString@Base 4:15.08.0
 _ZN9PimCommon14RichTextEditor3sayERK7QString@Base 4:15.08.0
 _ZN9PimCommon14RichTextEditor5eventEP6QEvent@Base 4:15.08.0
 _ZN9PimCommon14RichTextEditor8findTextEv@Base 4:15.08.0
 _ZN9PimCommon14RichTextEditorC1EP7QWidget@Base 4:15.08.0
 _ZN9PimCommon14RichTextEditorC2EP7QWidget@Base 4:15.08.0
 _ZN9PimCommon14RichTextEditorD0Ev@Base 4:15.08.0
 _ZN9PimCommon14RichTextEditorD1Ev@Base 4:15.08.0
 _ZN9PimCommon14RichTextEditorD2Ev@Base 4:15.08.0
 _ZN9PimCommon14ShortUrlWidget10loadEngineEv@Base 4:15.08.0
 _ZN9PimCommon14ShortUrlWidget11qt_metacallEN11QMetaObject4CallEiPPv@Base 4:15.08.0
 _ZN9PimCommon14ShortUrlWidget11qt_metacastEPKc@Base 4:15.08.0
 _ZN9PimCommon14ShortUrlWidget12toggleActionEv@Base 4:15.08.0
 _ZN9PimCommon14ShortUrlWidget13setStandaloneEb@Base 4:15.08.0
 _ZN9PimCommon14ShortUrlWidget13slotConfigureEv@Base 4:15.08.0
 _ZN9PimCommon14ShortUrlWidget14insertShortUrlERK7QString@Base 4:15.08.0
 _ZN9PimCommon14ShortUrlWidget14slotConvertUrlEv@Base 4:15.08.0
 _ZN9PimCommon14ShortUrlWidget15settingsUpdatedEv@Base 4:15.08.0
 _ZN9PimCommon14ShortUrlWidget15slotCloseWidgetEv@Base 4:15.08.0
 _ZN9PimCommon14ShortUrlWidget16slotOpenShortUrlEv@Base 4:15.08.0
 _ZN9PimCommon14ShortUrlWidget16slotShortUrlDoneERK7QString@Base 4:15.08.0
 _ZN9PimCommon14ShortUrlWidget16staticMetaObjectE@Base 4:15.08.0
 _ZN9PimCommon14ShortUrlWidget17shortUrlWasClosedEv@Base 4:15.08.0
 _ZN9PimCommon14ShortUrlWidget18slotInsertShortUrlEv@Base 4:15.08.0
 _ZN9PimCommon14ShortUrlWidget18slotShortUrlFailedERK7QString@Base 4:15.08.0
 _ZN9PimCommon14ShortUrlWidget19slotShortUrlChangedERK7QString@Base 4:15.08.0
 _ZN9PimCommon14ShortUrlWidget20slotPasteToClipboardEv@Base 4:15.08.0
 _ZN9PimCommon14ShortUrlWidget22slotOriginalUrlChangedERK7QString@Base 4:15.08.0
 _ZN9PimCommon14ShortUrlWidgetC1EP7QWidget@Base 4:15.08.0
 _ZN9PimCommon14ShortUrlWidgetC2EP7QWidget@Base 4:15.08.0
 _ZN9PimCommon14ShortUrlWidgetD0Ev@Base 4:15.08.0
 _ZN9PimCommon14ShortUrlWidgetD1Ev@Base 4:15.08.0
 _ZN9PimCommon14ShortUrlWidgetD2Ev@Base 4:15.08.0
 _ZN9PimCommon14SlideContainer10setContentEP7QWidget@Base 4:15.08.0
 _ZN9PimCommon14SlideContainer11eventFilterEP7QObjectP6QEvent@Base 4:15.08.0
 _ZN9PimCommon14SlideContainer11qt_metacallEN11QMetaObject4CallEiPPv@Base 4:15.08.0
 _ZN9PimCommon14SlideContainer11qt_metacastEPKc@Base 4:15.08.0
 _ZN9PimCommon14SlideContainer11resizeEventEP12QResizeEvent@Base 4:15.08.0
 _ZN9PimCommon14SlideContainer14setSlideHeightEi@Base 4:15.08.0
 _ZN9PimCommon14SlideContainer16slotAnimFinishedEv@Base 4:15.08.0
 _ZN9PimCommon14SlideContainer16staticMetaObjectE@Base 4:15.08.0
 _ZN9PimCommon14SlideContainer21adjustContentGeometryEv@Base 4:15.08.0
 _ZN9PimCommon14SlideContainer6animToEi@Base 4:15.08.0
 _ZN9PimCommon14SlideContainer7slideInEv@Base 4:15.08.0
 _ZN9PimCommon14SlideContainer8slideOutEv@Base 4:15.08.0
 _ZN9PimCommon14SlideContainer8slidedInEv@Base 4:15.08.0
 _ZN9PimCommon14SlideContainer9slidedOutEv@Base 4:15.08.0
 _ZN9PimCommon14SlideContainerC1EP7QWidget@Base 4:15.08.0
 _ZN9PimCommon14SlideContainerC2EP7QWidget@Base 4:15.08.0
 _ZN9PimCommon15MigrateFileInfo10setVersionEi@Base 4:15.08.0
 _ZN9PimCommon15MigrateFileInfo15setFilePatternsERK11QStringList@Base 4:15.08.0
 _ZN9PimCommon15MigrateFileInfo7setPathERK7QString@Base 4:15.08.0
 _ZN9PimCommon15MigrateFileInfo7setTypeERK7QString@Base 4:15.08.0
 _ZN9PimCommon15MigrateFileInfo9setFolderEb@Base 4:15.08.0
 _ZN9PimCommon15MigrateFileInfoC1Ev@Base 4:15.08.0
 _ZN9PimCommon15MigrateFileInfoC2Ev@Base 4:15.08.0
 _ZN9PimCommon15MinimumComboBox11qt_metacallEN11QMetaObject4CallEiPPv@Base 4:15.08.0
 _ZN9PimCommon15MinimumComboBox11qt_metacastEPKc@Base 4:15.08.0
 _ZN9PimCommon15MinimumComboBox16staticMetaObjectE@Base 4:15.08.0
 _ZN9PimCommon15MinimumComboBoxC1EP7QWidget@Base 4:15.08.0
 _ZN9PimCommon15MinimumComboBoxC2EP7QWidget@Base 4:15.08.0
 _ZN9PimCommon15PlainTextEditor11qt_metacallEN11QMetaObject4CallEiPPv@Base 4:15.08.0
 _ZN9PimCommon15PlainTextEditor11qt_metacastEPKc@Base 4:15.08.0
 _ZN9PimCommon15PlainTextEditor11replaceTextEv@Base 4:15.08.0
 _ZN9PimCommon15PlainTextEditor11setReadOnlyEb@Base 4:15.08.0
 _ZN9PimCommon15PlainTextEditor12focusInEventEP11QFocusEvent@Base 4:15.08.0
 _ZN9PimCommon15PlainTextEditor13highlightWordEii@Base 4:15.08.0
 _ZN9PimCommon15PlainTextEditor13keyPressEventEP9QKeyEvent@Base 4:15.08.0
 _ZN9PimCommon15PlainTextEditor13slotSpeakTextEv@Base 4:15.08.0
 _ZN9PimCommon15PlainTextEditor14addIgnoreWordsERK11QStringList@Base 4:15.08.0
 _ZN9PimCommon15PlainTextEditor14clearDecoratorEv@Base 4:15.08.0
 _ZN9PimCommon15PlainTextEditor14deleteWordBackEv@Base 4:15.08.0
 _ZN9PimCommon15PlainTextEditor14handleShortcutEPK9QKeyEvent@Base 4:15.08.0
 _ZN9PimCommon15PlainTextEditor14setHighlighterEPN6Sonnet11HighlighterE@Base 4:15.08.0
 _ZN9PimCommon15PlainTextEditor15languageChangedERK7QString@Base 4:15.08.0
 _ZN9PimCommon15PlainTextEditor16contextMenuEventEP17QContextMenuEvent@Base 4:15.08.0
 _ZN9PimCommon15PlainTextEditor16overrideShortcutEPK9QKeyEvent@Base 4:15.08.0
 _ZN9PimCommon15PlainTextEditor16setSearchSupportEb@Base 4:15.08.0
 _ZN9PimCommon15PlainTextEditor16spellCheckStatusERK7QString@Base 4:15.08.0
 _ZN9PimCommon15PlainTextEditor16staticMetaObjectE@Base 4:15.08.0
 _ZN9PimCommon15PlainTextEditor17addExtraMenuEntryEP5QMenuRK6QPoint@Base 4:15.08.0
 _ZN9PimCommon15PlainTextEditor17createHighlighterEv@Base 4:15.08.0
 _ZN9PimCommon15PlainTextEditor17deleteWordForwardEv@Base 4:15.08.0
 _ZN9PimCommon15PlainTextEditor17slotCheckSpellingEv@Base 4:15.08.0
 _ZN9PimCommon15PlainTextEditor17slotUndoableClearEv@Base 4:15.08.0
 _ZN9PimCommon15PlainTextEditor17updateHighLighterEv@Base 4:15.08.0
 _ZN9PimCommon15PlainTextEditor20checkSpellingChangedEb@Base 4:15.08.0
 _ZN9PimCommon15PlainTextEditor20slotLanguageSelectedEv@Base 4:15.08.0
 _ZN9PimCommon15PlainTextEditor21setWebShortcutSupportEb@Base 4:15.08.0
 _ZN9PimCommon15PlainTextEditor22setTextToSpeechSupportEb@Base 4:15.08.0
 _ZN9PimCommon15PlainTextEditor23setActivateLanguageMenuEb@Base 4:15.08.0
 _ZN9PimCommon15PlainTextEditor23setCheckSpellingEnabledEb@Base 4:15.08.0
 _ZN9PimCommon15PlainTextEditor23setSpellCheckingSupportEb@Base 4:15.08.0
 _ZN9PimCommon15PlainTextEditor23spellCheckerAutoCorrectERK7QStringS3_@Base 4:15.08.0
 _ZN9PimCommon15PlainTextEditor24setSpellCheckingLanguageERK7QString@Base 4:15.08.0
 _ZN9PimCommon15PlainTextEditor24slotSpellCheckerCanceledEv@Base 4:15.08.0
 _ZN9PimCommon15PlainTextEditor24slotSpellCheckerFinishedEv@Base 4:15.08.0
 _ZN9PimCommon15PlainTextEditor24slotToggleAutoSpellCheckEv@Base 4:15.08.0
 _ZN9PimCommon15PlainTextEditor25createSpellCheckDecoratorEv@Base 4:15.08.0
 _ZN9PimCommon15PlainTextEditor25slotSpellCheckerCorrectedERK7QStringiS3_@Base 4:15.08.0
 _ZN9PimCommon15PlainTextEditor27addIgnoreWordsToHighLighterEv@Base 4:15.08.0
 _ZN9PimCommon15PlainTextEditor27slotDisplayMessageIndicatorERK7QString@Base 4:15.08.0
 _ZN9PimCommon15PlainTextEditor27slotSpellCheckerAutoCorrectERK7QStringS3_@Base 4:15.08.0
 _ZN9PimCommon15PlainTextEditor27slotSpellCheckerMisspellingERK7QStringi@Base 4:15.08.0
 _ZN9PimCommon15PlainTextEditor30setSpellCheckingConfigFileNameERK7QString@Base 4:15.08.0
 _ZN9PimCommon15PlainTextEditor3sayERK7QString@Base 4:15.08.0
 _ZN9PimCommon15PlainTextEditor5eventEP6QEvent@Base 4:15.08.0
 _ZN9PimCommon15PlainTextEditor8findTextEv@Base 4:15.08.0
 _ZN9PimCommon15PlainTextEditorC1EP7QWidget@Base 4:15.08.0
 _ZN9PimCommon15PlainTextEditorC2EP7QWidget@Base 4:15.08.0
 _ZN9PimCommon15PlainTextEditorD0Ev@Base 4:15.08.0
 _ZN9PimCommon15PlainTextEditorD1Ev@Base 4:15.08.0
 _ZN9PimCommon15PlainTextEditorD2Ev@Base 4:15.08.0
 _ZN9PimCommon15TemplateManager11qt_metacallEN11QMetaObject4CallEiPPv@Base 4:15.08.0
 _ZN9PimCommon15TemplateManager11qt_metacastEPKc@Base 4:15.08.0
 _ZN9PimCommon15TemplateManager12loadTemplateERK7QStringS3_@Base 4:15.08.0
 _ZN9PimCommon15TemplateManager13loadTemplatesEb@Base 4:15.08.0
 _ZN9PimCommon15TemplateManager16staticMetaObjectE@Base 4:15.08.0
 _ZN9PimCommon15TemplateManager20slotDirectoryChangedEv@Base 4:15.08.0
 _ZN9PimCommon15TemplateManager24initTemplatesDirectoriesERK7QString@Base 4:15.08.0
 _ZN9PimCommon15TemplateManagerC1ERK7QStringPNS_18TemplateListWidgetE@Base 4:15.08.0
 _ZN9PimCommon15TemplateManagerC2ERK7QStringPNS_18TemplateListWidgetE@Base 4:15.08.0
 _ZN9PimCommon15TemplateManagerD0Ev@Base 4:15.08.0
 _ZN9PimCommon15TemplateManagerD1Ev@Base 4:15.08.0
 _ZN9PimCommon15TemplateManagerD2Ev@Base 4:15.08.0
 _ZN9PimCommon15TestSettingsJobC1Ev@Base 4:15.08.0
 _ZN9PimCommon15TestSettingsJobC2Ev@Base 4:15.08.0
 _ZN9PimCommon15TestSettingsJobD0Ev@Base 4:15.08.0
 _ZN9PimCommon15TestSettingsJobD1Ev@Base 4:15.08.0
 _ZN9PimCommon15TestSettingsJobD2Ev@Base 4:15.08.0
 _ZN9PimCommon16AbstractShortUrl11qt_metacallEN11QMetaObject4CallEiPPv@Base 4:15.08.0
 _ZN9PimCommon16AbstractShortUrl11qt_metacastEPKc@Base 4:15.08.0
 _ZN9PimCommon16AbstractShortUrl12shortUrlDoneERK7QString@Base 4:15.08.0
 _ZN9PimCommon16AbstractShortUrl14shortUrlFailedERK7QString@Base 4:15.08.0
 _ZN9PimCommon16AbstractShortUrl14slotErrorFoundEN13QNetworkReply12NetworkErrorE@Base 4:15.08.0
 _ZN9PimCommon16AbstractShortUrl16staticMetaObjectE@Base 4:15.08.0
 _ZN9PimCommon16AbstractShortUrl20slotShortUrlFinishedEP13QNetworkReply@Base 4:15.08.0
 _ZN9PimCommon16AbstractShortUrl8shortUrlERK7QString@Base 4:15.08.0
 _ZN9PimCommon16AbstractShortUrlC1EP7QObject@Base 4:15.08.0
 _ZN9PimCommon16AbstractShortUrlC2EP7QObject@Base 4:15.08.0
 _ZN9PimCommon16AbstractShortUrlD0Ev@Base 4:15.08.0
 _ZN9PimCommon16AbstractShortUrlD1Ev@Base 4:15.08.0
 _ZN9PimCommon16AbstractShortUrlD2Ev@Base 4:15.08.0
 _ZN9PimCommon16BalooDebugDialog10readConfigEv@Base 4:15.08.0
 _ZN9PimCommon16BalooDebugDialog10slotSaveAsEv@Base 4:15.08.0
 _ZN9PimCommon16BalooDebugDialog11qt_metacallEN11QMetaObject4CallEiPPv@Base 4:15.08.0
 _ZN9PimCommon16BalooDebugDialog11qt_metacastEPKc@Base 4:15.08.0
 _ZN9PimCommon16BalooDebugDialog11writeConfigEv@Base 4:15.08.0
 _ZN9PimCommon16BalooDebugDialog12setAkonadiIdEx@Base 4:15.08.0
 _ZN9PimCommon16BalooDebugDialog13setSearchTypeENS_28BalooDebugSearchPathComboBox10SearchTypeE@Base 4:15.08.0
 _ZN9PimCommon16BalooDebugDialog16staticMetaObjectE@Base 4:15.08.0
 _ZN9PimCommon16BalooDebugDialog8doSearchEv@Base 4:15.08.0
 _ZN9PimCommon16BalooDebugDialogC1EP7QWidget@Base 4:15.08.0
 _ZN9PimCommon16BalooDebugDialogC2EP7QWidget@Base 4:15.08.0
 _ZN9PimCommon16BalooDebugDialogD0Ev@Base 4:15.08.0
 _ZN9PimCommon16BalooDebugDialogD1Ev@Base 4:15.08.0
 _ZN9PimCommon16BalooDebugDialogD2Ev@Base 4:15.08.0
 _ZN9PimCommon16BalooDebugWidget10slotResultERK7QString@Base 4:15.08.0
 _ZN9PimCommon16BalooDebugWidget10slotSearchEv@Base 4:15.08.0
 _ZN9PimCommon16BalooDebugWidget11qt_metacallEN11QMetaObject4CallEiPPv@Base 4:15.08.0
 _ZN9PimCommon16BalooDebugWidget11qt_metacastEPKc@Base 4:15.08.0
 _ZN9PimCommon16BalooDebugWidget12setAkonadiIdEx@Base 4:15.08.0
 _ZN9PimCommon16BalooDebugWidget13setSearchTypeENS_28BalooDebugSearchPathComboBox10SearchTypeE@Base 4:15.08.0
 _ZN9PimCommon16BalooDebugWidget16staticMetaObjectE@Base 4:15.08.0
 _ZN9PimCommon16BalooDebugWidget25slotSearchLineTextChangedERK7QString@Base 4:15.08.0
 _ZN9PimCommon16BalooDebugWidget8doSearchEv@Base 4:15.08.0
 _ZN9PimCommon16BalooDebugWidget9slotErrorERK7QString@Base 4:15.08.0
 _ZN9PimCommon16BalooDebugWidgetC1EP7QWidget@Base 4:15.08.0
 _ZN9PimCommon16BalooDebugWidgetC2EP7QWidget@Base 4:15.08.0
 _ZN9PimCommon16BalooDebugWidgetD0Ev@Base 4:15.08.0
 _ZN9PimCommon16BalooDebugWidgetD1Ev@Base 4:15.08.0
 _ZN9PimCommon16BalooDebugWidgetD2Ev@Base 4:15.08.0
 _ZN9PimCommon16ImapAclAttribute11deserializeERK10QByteArray@Base 4:15.08.0
 _ZN9PimCommon16ImapAclAttribute11setMyRightsE6QFlagsIN5KIMAP3Acl5RightEE@Base 4:15.08.0
 _ZN9PimCommon16ImapAclAttribute9setRightsERK4QMapI10QByteArray6QFlagsIN5KIMAP3Acl5RightEEE@Base 4:15.08.0
 _ZN9PimCommon16ImapAclAttributeC1ERK4QMapI10QByteArray6QFlagsIN5KIMAP3Acl5RightEEESA_@Base 4:15.08.0
 _ZN9PimCommon16ImapAclAttributeC1Ev@Base 4:15.08.0
 _ZN9PimCommon16ImapAclAttributeC2ERK4QMapI10QByteArray6QFlagsIN5KIMAP3Acl5RightEEESA_@Base 4:15.08.0
 _ZN9PimCommon16ImapAclAttributeC2Ev@Base 4:15.08.0
 _ZN9PimCommon16RenameFileDialog11qt_metacallEN11QMetaObject4CallEiPPv@Base 4:15.08.0
 _ZN9PimCommon16RenameFileDialog11qt_metacastEPKc@Base 4:15.08.0
 _ZN9PimCommon16RenameFileDialog16staticMetaObjectE@Base 4:15.08.0
 _ZN9PimCommon16RenameFileDialog17slotIgnorePressedEv@Base 4:15.08.0
 _ZN9PimCommon16RenameFileDialog17slotRenamePressedEv@Base 4:15.08.0
 _ZN9PimCommon16RenameFileDialog19slotApplyAllPressedEv@Base 4:15.08.0
 _ZN9PimCommon16RenameFileDialog20slotOverwritePressedEv@Base 4:15.08.0
 _ZN9PimCommon16RenameFileDialog23RenameFileDialogPrivate11suggestNameERK4KUrlRK7QString@Base 4:15.08.0
 _ZN9PimCommon16RenameFileDialog25slotSuggestNewNamePressedEv@Base 4:15.08.0
 _ZN9PimCommon16RenameFileDialogC1ERK4KUrlbP7QWidget@Base 4:15.08.0
 _ZN9PimCommon16RenameFileDialogC2ERK4KUrlbP7QWidget@Base 4:15.08.0
 _ZN9PimCommon16RenameFileDialogD0Ev@Base 4:15.08.0
 _ZN9PimCommon16RenameFileDialogD1Ev@Base 4:15.08.0
 _ZN9PimCommon16RenameFileDialogD2Ev@Base 4:15.08.0
 _ZN9PimCommon16TranslatorWidget10readConfigEv@Base 4:15.08.0
 _ZN9PimCommon16TranslatorWidget11qt_metacallEN11QMetaObject4CallEiPPv@Base 4:15.08.0
 _ZN9PimCommon16TranslatorWidget11qt_metacastEPKc@Base 4:15.08.0
 _ZN9PimCommon16TranslatorWidget11writeConfigEv@Base 4:15.08.0
 _ZN9PimCommon16TranslatorWidget12toggleActionEv@Base 4:15.08.0
 _ZN9PimCommon16TranslatorWidget13setStandaloneEb@Base 4:15.08.0
 _ZN9PimCommon16TranslatorWidget13slotTranslateEv@Base 4:15.08.0
 _ZN9PimCommon16TranslatorWidget15slotCloseWidgetEv@Base 4:15.08.0
 _ZN9PimCommon16TranslatorWidget15slotTextChangedEv@Base 4:15.08.0
 _ZN9PimCommon16TranslatorWidget16staticMetaObjectE@Base 4:15.08.0
 _ZN9PimCommon16TranslatorWidget17slotConfigChangedEv@Base 4:15.08.0
 _ZN9PimCommon16TranslatorWidget17slotTranslateDoneEv@Base 4:15.08.0
 _ZN9PimCommon16TranslatorWidget18setTextToTranslateERK7QString@Base 4:15.08.0
 _ZN9PimCommon16TranslatorWidget18slotInvertLanguageEv@Base 4:15.08.0
 _ZN9PimCommon16TranslatorWidget19slotTranslateFailedEbRK7QString@Base 4:15.08.0
 _ZN9PimCommon16TranslatorWidget19translatorWasClosedEv@Base 4:15.08.0
 _ZN9PimCommon16TranslatorWidget23TranslatorWidgetPrivate12initLanguageEv@Base 4:15.08.0
 _ZN9PimCommon16TranslatorWidget23TranslatorWidgetPrivate14fillToComboboxERK7QString@Base 4:15.08.0
 _ZN9PimCommon16TranslatorWidget23slotFromLanguageChangedEib@Base 4:15.08.0
 _ZN9PimCommon16TranslatorWidget4initEv@Base 4:15.08.0
 _ZN9PimCommon16TranslatorWidget5eventEP6QEvent@Base 4:15.08.0
 _ZN9PimCommon16TranslatorWidget9slotClearEv@Base 4:15.08.0
 _ZN9PimCommon16TranslatorWidget9slotDebugEv@Base 4:15.08.0
 _ZN9PimCommon16TranslatorWidgetC1EP7QWidget@Base 4:15.08.0
 _ZN9PimCommon16TranslatorWidgetC1ERK7QStringP7QWidget@Base 4:15.08.0
 _ZN9PimCommon16TranslatorWidgetC2EP7QWidget@Base 4:15.08.0
 _ZN9PimCommon16TranslatorWidgetC2ERK7QStringP7QWidget@Base 4:15.08.0
 _ZN9PimCommon16TranslatorWidgetD0Ev@Base 4:15.08.0
 _ZN9PimCommon16TranslatorWidgetD1Ev@Base 4:15.08.0
 _ZN9PimCommon16TranslatorWidgetD2Ev@Base 4:15.08.0
 _ZN9PimCommon17BoxStorageService10readConfigEv@Base 4:15.08.0
 _ZN9PimCommon17BoxStorageService10serviceUrlEv@Base 4:15.08.0
 _ZN9PimCommon17BoxStorageService11descriptionEv@Base 4:15.08.0
 _ZN9PimCommon17BoxStorageService11qt_metacallEN11QMetaObject4CallEiPPv@Base 4:15.08.0
 _ZN9PimCommon17BoxStorageService11qt_metacastEPKc@Base 4:15.08.0
 _ZN9PimCommon17BoxStorageService11serviceNameEv@Base 4:15.08.0
 _ZN9PimCommon17BoxStorageService12refreshTokenEv@Base 4:15.08.0
 _ZN9PimCommon17BoxStorageService12removeConfigEv@Base 4:15.08.0
 _ZN9PimCommon17BoxStorageService13fileShareRootERK4QMapI7QString8QVariantE@Base 4:15.08.0
 _ZN9PimCommon17BoxStorageService14fileIdentifierERK4QMapI7QString8QVariantE@Base 4:15.08.0
 _ZN9PimCommon17BoxStorageService14fillListWidgetEPNS_24StorageServiceTreeWidgetERK8QVariantRK7QString@Base 4:15.08.0
 _ZN9PimCommon17BoxStorageService15itemInformationERK4QMapI7QString8QVariantE@Base 4:15.08.0
 _ZN9PimCommon17BoxStorageService15shutdownServiceEv@Base 4:15.08.0
 _ZN9PimCommon17BoxStorageService16staticMetaObjectE@Base 4:15.08.0
 _ZN9PimCommon17BoxStorageService18needToRefreshTokenEv@Base 4:15.08.0
 _ZN9PimCommon17BoxStorageService19serviceCapabilitiesEv@Base 4:15.08.0
 _ZN9PimCommon17BoxStorageService21slotAuthorizationDoneERK7QStringS3_x@Base 4:15.08.0
 _ZN9PimCommon17BoxStorageService22storageServiceCopyFileERK7QStringS3_@Base 4:15.08.0
 _ZN9PimCommon17BoxStorageService22storageServiceMoveFileERK7QStringS3_@Base 4:15.08.0
 _ZN9PimCommon17BoxStorageService23slotAuthorizationFailedERK7QString@Base 4:15.08.0
 _ZN9PimCommon17BoxStorageService23storageServiceShareLinkERK7QStringS3_@Base 4:15.08.0
 _ZN9PimCommon17BoxStorageService24storageServiceCopyFolderERK7QStringS3_@Base 4:15.08.0
 _ZN9PimCommon17BoxStorageService24storageServiceMoveFolderERK7QStringS3_@Base 4:15.08.0
 _ZN9PimCommon17BoxStorageService24storageServiceRenameFileERK7QStringS3_@Base 4:15.08.0
 _ZN9PimCommon17BoxStorageService24storageServicedeleteFileERK7QString@Base 4:15.08.0
 _ZN9PimCommon17BoxStorageService24storageServicelistFolderERK7QString@Base 4:15.08.0
 _ZN9PimCommon17BoxStorageService24storageServiceuploadFileERK7QStringS3_S3_@Base 4:15.08.0
 _ZN9PimCommon17BoxStorageService25storageServiceaccountInfoEv@Base 4:15.08.0
 _ZN9PimCommon17BoxStorageService26storageServiceRenameFolderERK7QStringS3_@Base 4:15.08.0
 _ZN9PimCommon17BoxStorageService26storageServicecreateFolderERK7QStringS3_@Base 4:15.08.0
 _ZN9PimCommon17BoxStorageService26storageServicedeleteFolderERK7QString@Base 4:15.08.0
 _ZN9PimCommon17BoxStorageService26storageServicedownloadFileERK7QStringS3_S3_@Base 4:15.08.0
 _ZN9PimCommon17BoxStorageService28storageServiceauthenticationEv@Base 4:15.08.0
 _ZN9PimCommon17BoxStorageService33storageServicecreateServiceFolderEv@Base 4:15.08.0
 _ZN9PimCommon17BoxStorageService4nameEv@Base 4:15.08.0
 _ZN9PimCommon17BoxStorageService8iconNameEv@Base 4:15.08.0
 _ZN9PimCommon17BoxStorageServiceC1EP7QObject@Base 4:15.08.0
 _ZN9PimCommon17BoxStorageServiceC2EP7QObject@Base 4:15.08.0
 _ZN9PimCommon17BoxStorageServiceD0Ev@Base 4:15.08.0
 _ZN9PimCommon17BoxStorageServiceD1Ev@Base 4:15.08.0
 _ZN9PimCommon17BoxStorageServiceD2Ev@Base 4:15.08.0
 _ZN9PimCommon17CollectionAclPage11qt_metacallEN11QMetaObject4CallEiPPv@Base 4:15.08.0
 _ZN9PimCommon17CollectionAclPage11qt_metacastEPKc@Base 4:15.08.0
 _ZN9PimCommon17CollectionAclPage16staticMetaObjectE@Base 4:15.08.0
 _ZN9PimCommon17CollectionAclPage4initEv@Base 4:15.08.0
 _ZN9PimCommon17CollectionAclPage4loadERKN7Akonadi10CollectionE@Base 4:15.08.0
 _ZN9PimCommon17CollectionAclPage4saveERN7Akonadi10CollectionE@Base 4:15.08.0
 _ZN9PimCommon17CollectionAclPageC1EP7QWidget@Base 4:15.08.0
 _ZN9PimCommon17CollectionAclPageC2EP7QWidget@Base 4:15.08.0
 _ZN9PimCommon17CustomToolsWidget11qt_metacallEN11QMetaObject4CallEiPPv@Base 4:15.08.0
 _ZN9PimCommon17CustomToolsWidget11qt_metacastEPKc@Base 4:15.08.0
 _ZN9PimCommon17CustomToolsWidget12switchToToolENS0_8ToolTypeE@Base 4:15.08.0
 _ZN9PimCommon17CustomToolsWidget12toolSwitchedENS0_8ToolTypeE@Base 4:15.08.0
 _ZN9PimCommon17CustomToolsWidget13slotHideToolsEv@Base 4:15.08.0
 _ZN9PimCommon17CustomToolsWidget14insertShortUrlERK7QString@Base 4:15.08.0
 _ZN9PimCommon17CustomToolsWidget16staticMetaObjectE@Base 4:15.08.0
 _ZN9PimCommon17CustomToolsWidget17shortUrlWasClosedEv@Base 4:15.08.0
 _ZN9PimCommon17CustomToolsWidget19customToolWasClosedEv@Base 4:15.08.0
 _ZN9PimCommon17CustomToolsWidget19translatorWasClosedEv@Base 4:15.08.0
 _ZN9PimCommon17CustomToolsWidget24slotVisibleShortUrlToolsEb@Base 4:15.08.0
 _ZN9PimCommon17CustomToolsWidget26slotVisibleTranslatorToolsEb@Base 4:15.08.0
 _ZN9PimCommon17CustomToolsWidget6actionENS0_8ToolTypeE@Base 4:15.08.0
 _ZN9PimCommon17CustomToolsWidgetC1EP7QWidget@Base 4:15.08.0
 _ZN9PimCommon17CustomToolsWidgetC2EP7QWidget@Base 4:15.08.0
 _ZN9PimCommon17CustomToolsWidgetD0Ev@Base 4:15.08.0
 _ZN9PimCommon17CustomToolsWidgetD1Ev@Base 4:15.08.0
 _ZN9PimCommon17CustomToolsWidgetD2Ev@Base 4:15.08.0
 _ZN9PimCommon17PimCommonSettings11qt_metacallEN11QMetaObject4CallEiPPv@Base 4:15.08.0
 _ZN9PimCommon17PimCommonSettings11qt_metacastEPKc@Base 4:15.08.0
 _ZN9PimCommon17PimCommonSettings11requestSyncEv@Base 4:15.08.0
 _ZN9PimCommon17PimCommonSettings11slotSyncNowEv@Base 4:15.08.0
 _ZN9PimCommon17PimCommonSettings16staticMetaObjectE@Base 4:15.08.0
 _ZN9PimCommon17PimCommonSettings4selfEv@Base 4:15.08.0
 _ZN9PimCommon17PimCommonSettings5mSelfE@Base 4:15.08.0
 _ZN9PimCommon17PimCommonSettingsC1Ev@Base 4:15.08.0
 _ZN9PimCommon17PimCommonSettingsC2Ev@Base 4:15.08.0
 _ZN9PimCommon17PimCommonSettingsD0Ev@Base 4:15.08.0
 _ZN9PimCommon17PimCommonSettingsD1Ev@Base 4:15.08.0
 _ZN9PimCommon17PimCommonSettingsD2Ev@Base 4:15.08.0
 _ZN9PimCommon18SpellCheckLineEdit11qt_metacallEN11QMetaObject4CallEiPPv@Base 4:15.08.0
 _ZN9PimCommon18SpellCheckLineEdit11qt_metacastEPKc@Base 4:15.08.0
 _ZN9PimCommon18SpellCheckLineEdit13keyPressEventEP9QKeyEvent@Base 4:15.08.0
 _ZN9PimCommon18SpellCheckLineEdit16staticMetaObjectE@Base 4:15.08.0
 _ZN9PimCommon18SpellCheckLineEdit18insertFromMimeDataEPK9QMimeData@Base 4:15.08.0
 _ZN9PimCommon18SpellCheckLineEdit7focusUpEv@Base 4:15.08.0
 _ZN9PimCommon18SpellCheckLineEdit9focusDownEv@Base 4:15.08.0
 _ZN9PimCommon18SpellCheckLineEditC1EP7QWidgetRK7QString@Base 4:15.08.0
 _ZN9PimCommon18SpellCheckLineEditC2EP7QWidgetRK7QString@Base 4:15.08.0
 _ZN9PimCommon18SpellCheckLineEditD0Ev@Base 4:15.08.0
 _ZN9PimCommon18SpellCheckLineEditD1Ev@Base 4:15.08.0
 _ZN9PimCommon18SpellCheckLineEditD2Ev@Base 4:15.08.0
 _ZN9PimCommon18TemplateListWidget11qt_metacallEN11QMetaObject4CallEiPPv@Base 4:15.08.0
 _ZN9PimCommon18TemplateListWidget11qt_metacastEPKc@Base 4:15.08.0
 _ZN9PimCommon18TemplateListWidget13loadTemplatesEv@Base 4:15.08.0
 _ZN9PimCommon18TemplateListWidget14addNewTemplateER7QStringS2_@Base 4:15.08.0
 _ZN9PimCommon18TemplateListWidget14insertTemplateERK7QString@Base 4:15.08.0
 _ZN9PimCommon18TemplateListWidget14modifyTemplateER7QStringS2_b@Base 4:15.08.0
 _ZN9PimCommon18TemplateListWidget16defaultTemplatesEv@Base 4:15.08.0
 _ZN9PimCommon18TemplateListWidget16staticMetaObjectE@Base 4:15.08.0
 _ZN9PimCommon18TemplateListWidget17insertNewTemplateERK7QString@Base 4:15.08.0
 _ZN9PimCommon18TemplateListWidget18addDefaultTemplateERK7QStringS3_@Base 4:15.08.0
 _ZN9PimCommon18TemplateListWidget22setKNewStuffConfigFileERK7QString@Base 4:15.08.0
 _ZN9PimCommon18TemplateListWidget9dropEventEP10QDropEvent@Base 4:15.08.0
 _ZN9PimCommon18TemplateListWidgetC1ERK7QStringP7QWidget@Base 4:15.08.0
 _ZN9PimCommon18TemplateListWidgetC2ERK7QStringP7QWidget@Base 4:15.08.0
 _ZN9PimCommon18TemplateListWidgetD0Ev@Base 4:15.08.0
 _ZN9PimCommon18TemplateListWidgetD1Ev@Base 4:15.08.0
 _ZN9PimCommon18TemplateListWidgetD2Ev@Base 4:15.08.0
 _ZN9PimCommon18TextGoToLineWidget10moveToLineEi@Base 4:15.08.0
 _ZN9PimCommon18TextGoToLineWidget11qt_metacallEN11QMetaObject4CallEiPPv@Base 4:15.08.0
 _ZN9PimCommon18TextGoToLineWidget11qt_metacastEPKc@Base 4:15.08.0
 _ZN9PimCommon18TextGoToLineWidget12slotCloseBarEv@Base 4:15.08.0
 _ZN9PimCommon18TextGoToLineWidget12slotGoToLineEv@Base 4:15.08.0
 _ZN9PimCommon18TextGoToLineWidget16staticMetaObjectE@Base 4:15.08.0
 _ZN9PimCommon18TextGoToLineWidget19setMaximumLineCountEi@Base 4:15.08.0
 _ZN9PimCommon18TextGoToLineWidget5eventEP6QEvent@Base 4:15.08.0
 _ZN9PimCommon18TextGoToLineWidget8goToLineEv@Base 4:15.08.0
 _ZN9PimCommon18TextGoToLineWidget9showEventEP10QShowEvent@Base 4:15.08.0
 _ZN9PimCommon18TextGoToLineWidgetC1EP7QWidget@Base 4:15.08.0
 _ZN9PimCommon18TextGoToLineWidgetC2EP7QWidget@Base 4:15.08.0
 _ZN9PimCommon18TextGoToLineWidgetD0Ev@Base 4:15.08.0
 _ZN9PimCommon18TextGoToLineWidgetD1Ev@Base 4:15.08.0
 _ZN9PimCommon18TextGoToLineWidgetD2Ev@Base 4:15.08.0
 _ZN9PimCommon18TextToSpeechWidget11qt_metacallEN11QMetaObject4CallEiPPv@Base 4:15.08.0
 _ZN9PimCommon18TextToSpeechWidget11qt_metacastEPKc@Base 4:15.08.0
 _ZN9PimCommon18TextToSpeechWidget12stateChangedENS0_5StateE@Base 4:15.08.0
 _ZN9PimCommon18TextToSpeechWidget13slotConfigureEv@Base 4:15.08.0
 _ZN9PimCommon18TextToSpeechWidget16slotStateChangedENS_12TextToSpeech5StateE@Base 4:15.08.0
 _ZN9PimCommon18TextToSpeechWidget16staticMetaObjectE@Base 4:15.08.0
 _ZN9PimCommon18TextToSpeechWidget17slotVolumeChangedEi@Base 4:15.08.0
 _ZN9PimCommon18TextToSpeechWidget24setTextToSpeechInterfaceEPNS_29AbstractTextToSpeechInterfaceE@Base 4:15.08.0
 _ZN9PimCommon18TextToSpeechWidget3sayERK7QString@Base 4:15.08.0
 _ZN9PimCommon18TextToSpeechWidget8setStateENS0_5StateE@Base 4:15.08.0
 _ZN9PimCommon18TextToSpeechWidgetC1EP7QWidget@Base 4:15.08.0
 _ZN9PimCommon18TextToSpeechWidgetC2EP7QWidget@Base 4:15.08.0
 _ZN9PimCommon18TextToSpeechWidgetD0Ev@Base 4:15.08.0
 _ZN9PimCommon18TextToSpeechWidgetD1Ev@Base 4:15.08.0
 _ZN9PimCommon18TextToSpeechWidgetD2Ev@Base 4:15.08.0
 _ZN9PimCommon18TranslatorTextEdit11qt_metacallEN11QMetaObject4CallEiPPv@Base 4:15.08.0
 _ZN9PimCommon18TranslatorTextEdit11qt_metacastEPKc@Base 4:15.08.0
 _ZN9PimCommon18TranslatorTextEdit13translateTextEv@Base 4:15.08.0
 _ZN9PimCommon18TranslatorTextEdit16staticMetaObjectE@Base 4:15.08.0
 _ZN9PimCommon18TranslatorTextEdit9dropEventEP10QDropEvent@Base 4:15.08.0
 _ZN9PimCommon18TranslatorTextEditC1EP7QWidget@Base 4:15.08.0
 _ZN9PimCommon18TranslatorTextEditC2EP7QWidget@Base 4:15.08.0
 _ZN9PimCommon19HubicStorageService10readConfigEv@Base 4:15.08.0
 _ZN9PimCommon19HubicStorageService10serviceUrlEv@Base 4:15.08.0
 _ZN9PimCommon19HubicStorageService11descriptionEv@Base 4:15.08.0
 _ZN9PimCommon19HubicStorageService11qt_metacallEN11QMetaObject4CallEiPPv@Base 4:15.08.0
 _ZN9PimCommon19HubicStorageService11qt_metacastEPKc@Base 4:15.08.0
 _ZN9PimCommon19HubicStorageService11serviceNameEv@Base 4:15.08.0
 _ZN9PimCommon19HubicStorageService12refreshTokenEv@Base 4:15.08.0
 _ZN9PimCommon19HubicStorageService12removeConfigEv@Base 4:15.08.0
 _ZN9PimCommon19HubicStorageService13fileShareRootERK4QMapI7QString8QVariantE@Base 4:15.08.0
 _ZN9PimCommon19HubicStorageService14fileIdentifierERK4QMapI7QString8QVariantE@Base 4:15.08.0
 _ZN9PimCommon19HubicStorageService14fillListWidgetEPNS_24StorageServiceTreeWidgetERK8QVariantRK7QString@Base 4:15.08.0
 _ZN9PimCommon19HubicStorageService15itemInformationERK4QMapI7QString8QVariantE@Base 4:15.08.0
 _ZN9PimCommon19HubicStorageService15shutdownServiceEv@Base 4:15.08.0
 _ZN9PimCommon19HubicStorageService16staticMetaObjectE@Base 4:15.08.0
 _ZN9PimCommon19HubicStorageService18needToRefreshTokenEv@Base 4:15.08.0
 _ZN9PimCommon19HubicStorageService19serviceCapabilitiesEv@Base 4:15.08.0
 _ZN9PimCommon19HubicStorageService21slotAuthorizationDoneERK7QStringS3_x@Base 4:15.08.0
 _ZN9PimCommon19HubicStorageService22storageServiceCopyFileERK7QStringS3_@Base 4:15.08.0
 _ZN9PimCommon19HubicStorageService22storageServiceMoveFileERK7QStringS3_@Base 4:15.08.0
 _ZN9PimCommon19HubicStorageService23slotAuthorizationFailedERK7QString@Base 4:15.08.0
 _ZN9PimCommon19HubicStorageService23storageServiceShareLinkERK7QStringS3_@Base 4:15.08.0
 _ZN9PimCommon19HubicStorageService24storageServiceCopyFolderERK7QStringS3_@Base 4:15.08.0
 _ZN9PimCommon19HubicStorageService24storageServiceMoveFolderERK7QStringS3_@Base 4:15.08.0
 _ZN9PimCommon19HubicStorageService24storageServiceRenameFileERK7QStringS3_@Base 4:15.08.0
 _ZN9PimCommon19HubicStorageService24storageServicedeleteFileERK7QString@Base 4:15.08.0
 _ZN9PimCommon19HubicStorageService24storageServicelistFolderERK7QString@Base 4:15.08.0
 _ZN9PimCommon19HubicStorageService24storageServiceuploadFileERK7QStringS3_S3_@Base 4:15.08.0
 _ZN9PimCommon19HubicStorageService25storageServiceaccountInfoEv@Base 4:15.08.0
 _ZN9PimCommon19HubicStorageService26storageServiceRenameFolderERK7QStringS3_@Base 4:15.08.0
 _ZN9PimCommon19HubicStorageService26storageServicecreateFolderERK7QStringS3_@Base 4:15.08.0
 _ZN9PimCommon19HubicStorageService26storageServicedeleteFolderERK7QString@Base 4:15.08.0
 _ZN9PimCommon19HubicStorageService26storageServicedownloadFileERK7QStringS3_S3_@Base 4:15.08.0
 _ZN9PimCommon19HubicStorageService28storageServiceauthenticationEv@Base 4:15.08.0
 _ZN9PimCommon19HubicStorageService33storageServicecreateServiceFolderEv@Base 4:15.08.0
 _ZN9PimCommon19HubicStorageService4nameEv@Base 4:15.08.0
 _ZN9PimCommon19HubicStorageService8iconNameEv@Base 4:15.08.0
 _ZN9PimCommon19HubicStorageServiceC1EP7QObject@Base 4:15.08.0
 _ZN9PimCommon19HubicStorageServiceC2EP7QObject@Base 4:15.08.0
 _ZN9PimCommon19HubicStorageServiceD0Ev@Base 4:15.08.0
 _ZN9PimCommon19HubicStorageServiceD1Ev@Base 4:15.08.0
 _ZN9PimCommon19HubicStorageServiceD2Ev@Base 4:15.08.0
 _ZN9PimCommon19ManageAccountWidget11eventFilterEP7QObjectP6QEvent@Base 4:15.08.0
 _ZN9PimCommon19ManageAccountWidget11qt_metacallEN11QMetaObject4CallEiPPv@Base 4:15.08.0
 _ZN9PimCommon19ManageAccountWidget11qt_metacastEPKc@Base 4:15.08.0
 _ZN9PimCommon19ManageAccountWidget14slotAddAccountEv@Base 4:15.08.0
 _ZN9PimCommon19ManageAccountWidget15setItemDelegateEP21QAbstractItemDelegate@Base 4:15.08.0
 _ZN9PimCommon19ManageAccountWidget16staticMetaObjectE@Base 4:15.08.0
 _ZN9PimCommon19ManageAccountWidget17setMimeTypeFilterERK11QStringList@Base 4:15.08.0
 _ZN9PimCommon19ManageAccountWidget19setCapabilityFilterERK11QStringList@Base 4:15.08.0
 _ZN9PimCommon19ManageAccountWidget19slotAccountSelectedERKN7Akonadi13AgentInstanceE@Base 4:15.08.0
 _ZN9PimCommon19ManageAccountWidget22setExcludeCapabilitiesERK11QStringList@Base 4:15.08.0
 _ZN9PimCommon19ManageAccountWidget25slotModifySelectedAccountEv@Base 4:15.08.0
 _ZN9PimCommon19ManageAccountWidget25slotRemoveSelectedAccountEv@Base 4:15.08.0
 _ZN9PimCommon19ManageAccountWidget26slotRestartSelectedAccountEv@Base 4:15.08.0
 _ZN9PimCommon19ManageAccountWidget30setSpecialCollectionIdentifierERK7QString@Base 4:15.08.0
 _ZN9PimCommon19ManageAccountWidgetC1EP7QWidget@Base 4:15.08.0
 _ZN9PimCommon19ManageAccountWidgetC2EP7QWidget@Base 4:15.08.0
 _ZN9PimCommon19ManageAccountWidgetD0Ev@Base 4:15.08.0
 _ZN9PimCommon19ManageAccountWidgetD1Ev@Base 4:15.08.0
 _ZN9PimCommon19ManageAccountWidgetD2Ev@Base 4:15.08.0
 _ZN9PimCommon19RichTextEditFindBar11qt_metacallEN11QMetaObject4CallEiPPv@Base 4:15.08.0
 _ZN9PimCommon19RichTextEditFindBar11qt_metacastEPKc@Base 4:15.08.0
 _ZN9PimCommon19RichTextEditFindBar14slotSearchTextEbb@Base 4:15.08.0
 _ZN9PimCommon19RichTextEditFindBar15slotReplaceTextEv@Base 4:15.08.0
 _ZN9PimCommon19RichTextEditFindBar16searchInDocumentERK7QString6QFlagsIN13QTextDocument8FindFlagEE@Base 4:15.08.0
 _ZN9PimCommon19RichTextEditFindBar16staticMetaObjectE@Base 4:15.08.0
 _ZN9PimCommon19RichTextEditFindBar18slotReplaceAllTextEv@Base 4:15.08.0
 _ZN9PimCommon19RichTextEditFindBar20autoSearchMoveCursorEv@Base 4:15.08.0
 _ZN9PimCommon19RichTextEditFindBarC1EP9QTextEditP7QWidget@Base 4:15.08.0
 _ZN9PimCommon19RichTextEditFindBarC2EP9QTextEditP7QWidget@Base 4:15.08.0
 _ZN9PimCommon19RichTextEditFindBarD0Ev@Base 4:15.08.0
 _ZN9PimCommon19RichTextEditFindBarD1Ev@Base 4:15.08.0
 _ZN9PimCommon19RichTextEditFindBarD2Ev@Base 4:15.08.0
 _ZN9PimCommon19TextEditFindBarBase10autoSearchERK7QString@Base 4:15.08.0
 _ZN9PimCommon19TextEditFindBarBase10searchTextEbb@Base 4:15.08.0
 _ZN9PimCommon19TextEditFindBarBase11hideFindBarEv@Base 4:15.08.0
 _ZN9PimCommon19TextEditFindBarBase11messageInfoEbbb@Base 4:15.08.0
 _ZN9PimCommon19TextEditFindBarBase11qt_metacallEN11QMetaObject4CallEiPPv@Base 4:15.08.0
 _ZN9PimCommon19TextEditFindBarBase11qt_metacastEPKc@Base 4:15.08.0
 _ZN9PimCommon19TextEditFindBarBase11showReplaceEv@Base 4:15.08.0
 _ZN9PimCommon19TextEditFindBarBase15clearSelectionsEv@Base 4:15.08.0
 _ZN9PimCommon19TextEditFindBarBase15slotClearSearchEv@Base 4:15.08.0
 _ZN9PimCommon19TextEditFindBarBase16setHideWhenCloseEb@Base 4:15.08.0
 _ZN9PimCommon19TextEditFindBarBase16staticMetaObjectE@Base 4:15.08.0
 _ZN9PimCommon19TextEditFindBarBase17focusAndSetCursorEv@Base 4:15.08.0
 _ZN9PimCommon19TextEditFindBarBase23displayMessageIndicatorERK7QString@Base 4:15.08.0
 _ZN9PimCommon19TextEditFindBarBase23slotUpdateSearchOptionsEv@Base 4:15.08.0
 _ZN9PimCommon19TextEditFindBarBase5eventEP6QEvent@Base 4:15.08.0
 _ZN9PimCommon19TextEditFindBarBase7setTextERK7QString@Base 4:15.08.0
 _ZN9PimCommon19TextEditFindBarBase8closeBarEv@Base 4:15.08.0
 _ZN9PimCommon19TextEditFindBarBase8findNextEv@Base 4:15.08.0
 _ZN9PimCommon19TextEditFindBarBase8findPrevEv@Base 4:15.08.0
 _ZN9PimCommon19TextEditFindBarBase8showFindEv@Base 4:15.08.0
 _ZN9PimCommon19TextEditFindBarBaseC1EP7QWidget@Base 4:15.08.0
 _ZN9PimCommon19TextEditFindBarBaseC2EP7QWidget@Base 4:15.08.0
 _ZN9PimCommon19TextEditFindBarBaseD0Ev@Base 4:15.08.0
 _ZN9PimCommon19TextEditFindBarBaseD1Ev@Base 4:15.08.0
 _ZN9PimCommon19TextEditFindBarBaseD2Ev@Base 4:15.08.0
 _ZN9PimCommon19TextToSpeechActions11qt_metacallEN11QMetaObject4CallEiPPv@Base 4:15.08.0
 _ZN9PimCommon19TextToSpeechActions11qt_metacastEPKc@Base 4:15.08.0
 _ZN9PimCommon19TextToSpeechActions12stateChangedENS_18TextToSpeechWidget5StateE@Base 4:15.08.0
 _ZN9PimCommon19TextToSpeechActions13slotPlayPauseEv@Base 4:15.08.0
 _ZN9PimCommon19TextToSpeechActions16staticMetaObjectE@Base 4:15.08.0
 _ZN9PimCommon19TextToSpeechActions17updateButtonStateEv@Base 4:15.08.0
 _ZN9PimCommon19TextToSpeechActions8setStateERKNS_18TextToSpeechWidget5StateE@Base 4:15.08.0
 _ZN9PimCommon19TextToSpeechActions8slotStopEv@Base 4:15.08.0
 _ZN9PimCommon19TextToSpeechActionsC1EP7QObject@Base 4:15.08.0
 _ZN9PimCommon19TextToSpeechActionsC2EP7QObject@Base 4:15.08.0
 _ZN9PimCommon19TextToSpeechActionsD0Ev@Base 4:15.08.0
 _ZN9PimCommon19TextToSpeechActionsD1Ev@Base 4:15.08.0
 _ZN9PimCommon19TextToSpeechActionsD2Ev@Base 4:15.08.0
 _ZN9PimCommon20AnnotationEditDialog10readConfigEv@Base 4:15.08.0
 _ZN9PimCommon20AnnotationEditDialog11qt_metacallEN11QMetaObject4CallEiPPv@Base 4:15.08.0
 _ZN9PimCommon20AnnotationEditDialog11qt_metacastEPKc@Base 4:15.08.0
 _ZN9PimCommon20AnnotationEditDialog11writeConfigEv@Base 4:15.08.0
 _ZN9PimCommon20AnnotationEditDialog12slotAcceptedEv@Base 4:15.08.0
 _ZN9PimCommon20AnnotationEditDialog14slotDeleteNoteEv@Base 4:15.08.0
 _ZN9PimCommon20AnnotationEditDialog16staticMetaObjectE@Base 4:15.08.0
 _ZN9PimCommon20AnnotationEditDialogC1ERKN7Akonadi4ItemEP7QWidget@Base 4:15.08.0
 _ZN9PimCommon20AnnotationEditDialogC2ERKN7Akonadi4ItemEP7QWidget@Base 4:15.08.0
 _ZN9PimCommon20AnnotationEditDialogD0Ev@Base 4:15.08.0
 _ZN9PimCommon20AnnotationEditDialogD1Ev@Base 4:15.08.0
 _ZN9PimCommon20AnnotationEditDialogD2Ev@Base 4:15.08.0
 _ZN9PimCommon20AutoCorrectionWidget10loadConfigEv@Base 4:15.08.0
 _ZN9PimCommon20AutoCorrectionWidget11emitChangedEv@Base 4:15.08.0
 _ZN9PimCommon20AutoCorrectionWidget11qt_metacallEN11QMetaObject4CallEiPPv@Base 4:15.08.0
 _ZN9PimCommon20AutoCorrectionWidget11qt_metacastEPKc@Base 4:15.08.0
 _ZN9PimCommon20AutoCorrectionWidget11setLanguageERK7QString@Base 4:15.08.0
 _ZN9PimCommon20AutoCorrectionWidget11writeConfigEv@Base 4:15.08.0
 _ZN9PimCommon20AutoCorrectionWidget14changeLanguageEi@Base 4:15.08.0
 _ZN9PimCommon20AutoCorrectionWidget14resetToDefaultEv@Base 4:15.08.0
 _ZN9PimCommon20AutoCorrectionWidget16staticMetaObjectE@Base 4:15.08.0
 _ZN9PimCommon20AutoCorrectionWidget17setAutoCorrectionEPNS_14AutoCorrectionE@Base 4:15.08.0
 _ZN9PimCommon20AutoCorrectionWidget18enableDoubleQuotesEb@Base 4:15.08.0
 _ZN9PimCommon20AutoCorrectionWidget18enableSingleQuotesEb@Base 4:15.08.0
 _ZN9PimCommon20AutoCorrectionWidget18setFindReplaceTextEP15QTreeWidgetItemi@Base 4:15.08.0
 _ZN9PimCommon20AutoCorrectionWidget19abbreviationChangedERK7QString@Base 4:15.08.0
 _ZN9PimCommon20AutoCorrectionWidget19addAutocorrectEntryEv@Base 4:15.08.0
 _ZN9PimCommon20AutoCorrectionWidget20addAbbreviationEntryEv@Base 4:15.08.0
 _ZN9PimCommon20AutoCorrectionWidget21addAutoCorrectEntriesEv@Base 4:15.08.0
 _ZN9PimCommon20AutoCorrectionWidget21enableAddRemoveButtonEv@Base 4:15.08.0
 _ZN9PimCommon20AutoCorrectionWidget21twoUpperLetterChangedERK7QString@Base 4:15.08.0
 _ZN9PimCommon20AutoCorrectionWidget21updateAddRemoveButtonEv@Base 4:15.08.0
 _ZN9PimCommon20AutoCorrectionWidget22addTwoUpperLetterEntryEv@Base 4:15.08.0
 _ZN9PimCommon20AutoCorrectionWidget22removeAutocorrectEntryEv@Base 4:15.08.0
 _ZN9PimCommon20AutoCorrectionWidget22setDefaultDoubleQuotesEv@Base 4:15.08.0
 _ZN9PimCommon20AutoCorrectionWidget22setDefaultSingleQuotesEv@Base 4:15.08.0
 _ZN9PimCommon20AutoCorrectionWidget23enableAdvAutocorrectionEb@Base 4:15.08.0
 _ZN9PimCommon20AutoCorrectionWidget23removeAbbreviationEntryEv@Base 4:15.08.0
 _ZN9PimCommon20AutoCorrectionWidget24slotExportAutoCorrectionEv@Base 4:15.08.0
 _ZN9PimCommon20AutoCorrectionWidget24slotImportAutoCorrectionEP7QAction@Base 4:15.08.0
 _ZN9PimCommon20AutoCorrectionWidget25removeTwoUpperLetterEntryEv@Base 4:15.08.0
 _ZN9PimCommon20AutoCorrectionWidget25selectDoubleQuoteCharOpenEv@Base 4:15.08.0
 _ZN9PimCommon20AutoCorrectionWidget25selectSingleQuoteCharOpenEv@Base 4:15.08.0
 _ZN9PimCommon20AutoCorrectionWidget26selectDoubleQuoteCharCloseEv@Base 4:15.08.0
 _ZN9PimCommon20AutoCorrectionWidget26selectSingleQuoteCharCloseEv@Base 4:15.08.0
 _ZN9PimCommon20AutoCorrectionWidget30loadAutoCorrectionAndExceptionEv@Base 4:15.08.0
 _ZN9PimCommon20AutoCorrectionWidget30slotEnableDisableTwoUpperEntryEv@Base 4:15.08.0
 _ZN9PimCommon20AutoCorrectionWidget32slotEnableDisableAbreviationListEv@Base 4:15.08.0
 _ZN9PimCommon20AutoCorrectionWidget36loadGlobalAutoCorrectionAndExceptionEv@Base 4:15.08.0
 _ZN9PimCommon20AutoCorrectionWidget7changedEv@Base 4:15.08.0
 _ZN9PimCommon20AutoCorrectionWidgetC1EP7QWidget@Base 4:15.08.0
 _ZN9PimCommon20AutoCorrectionWidgetC2EP7QWidget@Base 4:15.08.0
 _ZN9PimCommon20AutoCorrectionWidgetD0Ev@Base 4:15.08.0
 _ZN9PimCommon20AutoCorrectionWidgetD1Ev@Base 4:15.08.0
 _ZN9PimCommon20AutoCorrectionWidgetD2Ev@Base 4:15.08.0
 _ZN9PimCommon20GDriveStorageService10readConfigEv@Base 4:15.08.0
 _ZN9PimCommon20GDriveStorageService10serviceUrlEv@Base 4:15.08.0
 _ZN9PimCommon20GDriveStorageService11descriptionEv@Base 4:15.08.0
 _ZN9PimCommon20GDriveStorageService11qt_metacallEN11QMetaObject4CallEiPPv@Base 4:15.08.0
 _ZN9PimCommon20GDriveStorageService11qt_metacastEPKc@Base 4:15.08.0
 _ZN9PimCommon20GDriveStorageService11serviceNameEv@Base 4:15.08.0
 _ZN9PimCommon20GDriveStorageService12refreshTokenEv@Base 4:15.08.0
 _ZN9PimCommon20GDriveStorageService12removeConfigEv@Base 4:15.08.0
 _ZN9PimCommon20GDriveStorageService13fileShareRootERK4QMapI7QString8QVariantE@Base 4:15.08.0
 _ZN9PimCommon20GDriveStorageService14fileIdentifierERK4QMapI7QString8QVariantE@Base 4:15.08.0
 _ZN9PimCommon20GDriveStorageService14fillListWidgetEPNS_24StorageServiceTreeWidgetERK8QVariantRK7QString@Base 4:15.08.0
 _ZN9PimCommon20GDriveStorageService15itemInformationERK4QMapI7QString8QVariantE@Base 4:15.08.0
 _ZN9PimCommon20GDriveStorageService15shutdownServiceEv@Base 4:15.08.0
 _ZN9PimCommon20GDriveStorageService16staticMetaObjectE@Base 4:15.08.0
 _ZN9PimCommon20GDriveStorageService19serviceCapabilitiesEv@Base 4:15.08.0
 _ZN9PimCommon20GDriveStorageService21slotAuthorizationDoneERK7QStringS3_RK9QDateTimeS3_@Base 4:15.08.0
 _ZN9PimCommon20GDriveStorageService22storageServiceCopyFileERK7QStringS3_@Base 4:15.08.0
 _ZN9PimCommon20GDriveStorageService22storageServiceMoveFileERK7QStringS3_@Base 4:15.08.0
 _ZN9PimCommon20GDriveStorageService23slotAuthorizationFailedERK7QString@Base 4:15.08.0
 _ZN9PimCommon20GDriveStorageService23storageServiceShareLinkERK7QStringS3_@Base 4:15.08.0
 _ZN9PimCommon20GDriveStorageService24storageServiceCopyFolderERK7QStringS3_@Base 4:15.08.0
 _ZN9PimCommon20GDriveStorageService24storageServiceMoveFolderERK7QStringS3_@Base 4:15.08.0
 _ZN9PimCommon20GDriveStorageService24storageServiceRenameFileERK7QStringS3_@Base 4:15.08.0
 _ZN9PimCommon20GDriveStorageService24storageServicedeleteFileERK7QString@Base 4:15.08.0
 _ZN9PimCommon20GDriveStorageService24storageServicelistFolderERK7QString@Base 4:15.08.0
 _ZN9PimCommon20GDriveStorageService24storageServiceuploadFileERK7QStringS3_S3_@Base 4:15.08.0
 _ZN9PimCommon20GDriveStorageService25storageServiceaccountInfoEv@Base 4:15.08.0
 _ZN9PimCommon20GDriveStorageService26storageServiceRenameFolderERK7QStringS3_@Base 4:15.08.0
 _ZN9PimCommon20GDriveStorageService26storageServicecreateFolderERK7QStringS3_@Base 4:15.08.0
 _ZN9PimCommon20GDriveStorageService26storageServicedeleteFolderERK7QString@Base 4:15.08.0
 _ZN9PimCommon20GDriveStorageService26storageServicedownloadFileERK7QStringS3_S3_@Base 4:15.08.0
 _ZN9PimCommon20GDriveStorageService28storageServiceauthenticationEv@Base 4:15.08.0
 _ZN9PimCommon20GDriveStorageService33storageServicecreateServiceFolderEv@Base 4:15.08.0
 _ZN9PimCommon20GDriveStorageService4nameEv@Base 4:15.08.0
 _ZN9PimCommon20GDriveStorageService8iconNameEv@Base 4:15.08.0
 _ZN9PimCommon20GDriveStorageServiceC1EP7QObject@Base 4:15.08.0
 _ZN9PimCommon20GDriveStorageServiceC2EP7QObject@Base 4:15.08.0
 _ZN9PimCommon20GDriveStorageServiceD0Ev@Base 4:15.08.0
 _ZN9PimCommon20GDriveStorageServiceD1Ev@Base 4:15.08.0
 _ZN9PimCommon20GDriveStorageServiceD2Ev@Base 4:15.08.0
 _ZN9PimCommon20GravatarResolvUrlJob11qt_metacallEN11QMetaObject4CallEiPPv@Base 4:15.08.0
 _ZN9PimCommon20GravatarResolvUrlJob11qt_metacastEPKc@Base 4:15.08.0
 _ZN9PimCommon20GravatarResolvUrlJob11setUseCacheEb@Base 4:15.08.0
 _ZN9PimCommon20GravatarResolvUrlJob11setUseHttpsEb@Base 4:15.08.0
 _ZN9PimCommon20GravatarResolvUrlJob13calculateHashEb@Base 4:15.08.0
 _ZN9PimCommon20GravatarResolvUrlJob16setUseLibravatarEb@Base 4:15.08.0
 _ZN9PimCommon20GravatarResolvUrlJob16staticMetaObjectE@Base 4:15.08.0
 _ZN9PimCommon20GravatarResolvUrlJob19generateGravatarUrlEb@Base 4:15.08.0
 _ZN9PimCommon20GravatarResolvUrlJob19setFallbackGravatarEb@Base 4:15.08.0
 _ZN9PimCommon20GravatarResolvUrlJob19setUseDefaultPixmapEb@Base 4:15.08.0
 _ZN9PimCommon20GravatarResolvUrlJob19startNetworkManagerERK4QUrl@Base 4:15.08.0
 _ZN9PimCommon20GravatarResolvUrlJob20slotFinishLoadPixmapEP13QNetworkReply@Base 4:15.08.0
 _ZN9PimCommon20GravatarResolvUrlJob5startEv@Base 4:15.08.0
 _ZN9PimCommon20GravatarResolvUrlJob7setSizeEi@Base 4:15.08.0
 _ZN9PimCommon20GravatarResolvUrlJob8finishedEPS0_@Base 4:15.08.0
 _ZN9PimCommon20GravatarResolvUrlJob8setEmailERK7QString@Base 4:15.08.0
 _ZN9PimCommon20GravatarResolvUrlJob9createUrlEb@Base 4:15.08.0
 _ZN9PimCommon20GravatarResolvUrlJob9resolvUrlERK4QUrl@Base 4:15.08.0
 _ZN9PimCommon20GravatarResolvUrlJob9slotErrorEN13QNetworkReply12NetworkErrorE@Base 4:15.08.0
 _ZN9PimCommon20GravatarResolvUrlJobC1EP7QObject@Base 4:15.08.0
 _ZN9PimCommon20GravatarResolvUrlJobC2EP7QObject@Base 4:15.08.0
 _ZN9PimCommon20GravatarResolvUrlJobD0Ev@Base 4:15.08.0
 _ZN9PimCommon20GravatarResolvUrlJobD1Ev@Base 4:15.08.0
 _ZN9PimCommon20GravatarResolvUrlJobD2Ev@Base 4:15.08.0
 _ZN9PimCommon20PlainTextEditFindBar11qt_metacallEN11QMetaObject4CallEiPPv@Base 4:15.08.0
 _ZN9PimCommon20PlainTextEditFindBar11qt_metacastEPKc@Base 4:15.08.0
 _ZN9PimCommon20PlainTextEditFindBar14slotSearchTextEbb@Base 4:15.08.0
 _ZN9PimCommon20PlainTextEditFindBar15slotReplaceTextEv@Base 4:15.08.0
 _ZN9PimCommon20PlainTextEditFindBar16searchInDocumentERK7QString6QFlagsIN13QTextDocument8FindFlagEE@Base 4:15.08.0
 _ZN9PimCommon20PlainTextEditFindBar16staticMetaObjectE@Base 4:15.08.0
 _ZN9PimCommon20PlainTextEditFindBar18slotReplaceAllTextEv@Base 4:15.08.0
 _ZN9PimCommon20PlainTextEditFindBar20autoSearchMoveCursorEv@Base 4:15.08.0
 _ZN9PimCommon20PlainTextEditFindBarC1EP14QPlainTextEditP7QWidget@Base 4:15.08.0
 _ZN9PimCommon20PlainTextEditFindBarC2EP14QPlainTextEditP7QWidget@Base 4:15.08.0
 _ZN9PimCommon20PlainTextEditFindBarD0Ev@Base 4:15.08.0
 _ZN9PimCommon20PlainTextEditFindBarD1Ev@Base 4:15.08.0
 _ZN9PimCommon20PlainTextEditFindBarD2Ev@Base 4:15.08.0
 _ZN9PimCommon20RichTextEditorWidget11qt_metacallEN11QMetaObject4CallEiPPv@Base 4:15.08.0
 _ZN9PimCommon20RichTextEditorWidget11qt_metacastEPKc@Base 4:15.08.0
 _ZN9PimCommon20RichTextEditorWidget11setReadOnlyEb@Base 4:15.08.0
 _ZN9PimCommon20RichTextEditorWidget11slotReplaceEv@Base 4:15.08.0
 _ZN9PimCommon20RichTextEditorWidget12setPlainTextERK7QString@Base 4:15.08.0
 _ZN9PimCommon20RichTextEditorWidget12slotFindNextEv@Base 4:15.08.0
 _ZN9PimCommon20RichTextEditorWidget16staticMetaObjectE@Base 4:15.08.0
 _ZN9PimCommon20RichTextEditorWidget17setAcceptRichTextEb@Base 4:15.08.0
 _ZN9PimCommon20RichTextEditorWidget30setSpellCheckingConfigFileNameERK7QString@Base 4:15.08.0
 _ZN9PimCommon20RichTextEditorWidget4initEPNS_14RichTextEditorE@Base 4:15.08.0
 _ZN9PimCommon20RichTextEditorWidget5clearEv@Base 4:15.08.0
 _ZN9PimCommon20RichTextEditorWidget7setHtmlERK7QString@Base 4:15.08.0
 _ZN9PimCommon20RichTextEditorWidget8slotFindEv@Base 4:15.08.0
 _ZN9PimCommon20RichTextEditorWidgetC1EP7QWidget@Base 4:15.08.0
 _ZN9PimCommon20RichTextEditorWidgetC1EPNS_14RichTextEditorEP7QWidget@Base 4:15.08.0
 _ZN9PimCommon20RichTextEditorWidgetC2EP7QWidget@Base 4:15.08.0
 _ZN9PimCommon20RichTextEditorWidgetC2EPNS_14RichTextEditorEP7QWidget@Base 4:15.08.0
 _ZN9PimCommon20RichTextEditorWidgetD0Ev@Base 4:15.08.0
 _ZN9PimCommon20RichTextEditorWidgetD1Ev@Base 4:15.08.0
 _ZN9PimCommon20RichTextEditorWidgetD2Ev@Base 4:15.08.0
 _ZN9PimCommon20TextMessageIndicator10paintEventEP11QPaintEvent@Base 4:15.08.0
 _ZN9PimCommon20TextMessageIndicator11eventFilterEP7QObjectP6QEvent@Base 4:15.08.0
 _ZN9PimCommon20TextMessageIndicator15mousePressEventEP11QMouseEvent@Base 4:15.08.0
 _ZN9PimCommon20TextMessageIndicator20computeSizeAndResizeEv@Base 4:15.08.0
 _ZN9PimCommon20TextMessageIndicator7displayERK7QStringS3_NS0_4IconEi@Base 4:15.08.0
 _ZN9PimCommon20TextMessageIndicatorC1EP7QWidget@Base 4:15.08.0
 _ZN9PimCommon20TextMessageIndicatorC2EP7QWidget@Base 4:15.08.0
 _ZN9PimCommon20WebDavStorageService10readConfigEv@Base 4:15.08.0
 _ZN9PimCommon20WebDavStorageService10serviceUrlEv@Base 4:15.08.0
 _ZN9PimCommon20WebDavStorageService11descriptionEv@Base 4:15.08.0
 _ZN9PimCommon20WebDavStorageService11qt_metacallEN11QMetaObject4CallEiPPv@Base 4:15.08.0
 _ZN9PimCommon20WebDavStorageService11qt_metacastEPKc@Base 4:15.08.0
 _ZN9PimCommon20WebDavStorageService11serviceNameEv@Base 4:15.08.0
 _ZN9PimCommon20WebDavStorageService12removeConfigEv@Base 4:15.08.0
 _ZN9PimCommon20WebDavStorageService13fileShareRootERK4QMapI7QString8QVariantE@Base 4:15.08.0
 _ZN9PimCommon20WebDavStorageService14fileIdentifierERK4QMapI7QString8QVariantE@Base 4:15.08.0
 _ZN9PimCommon20WebDavStorageService14fillListWidgetEPNS_24StorageServiceTreeWidgetERK8QVariantRK7QString@Base 4:15.08.0
 _ZN9PimCommon20WebDavStorageService15itemInformationERK4QMapI7QString8QVariantE@Base 4:15.08.0
 _ZN9PimCommon20WebDavStorageService15needInitializedEv@Base 4:15.08.0
 _ZN9PimCommon20WebDavStorageService15shutdownServiceEv@Base 4:15.08.0
 _ZN9PimCommon20WebDavStorageService16staticMetaObjectE@Base 4:15.08.0
 _ZN9PimCommon20WebDavStorageService18connectDefaultSlotEPNS_9WebDavJobE@Base 4:15.08.0
 _ZN9PimCommon20WebDavStorageService19serviceCapabilitiesEv@Base 4:15.08.0
 _ZN9PimCommon20WebDavStorageService21slotAuthorizationDoneERK7QStringS3_S3_S3_@Base 4:15.08.0
 _ZN9PimCommon20WebDavStorageService22storageServiceCopyFileERK7QStringS3_@Base 4:15.08.0
 _ZN9PimCommon20WebDavStorageService22storageServiceMoveFileERK7QStringS3_@Base 4:15.08.0
 _ZN9PimCommon20WebDavStorageService23slotAuthorizationFailedERK7QString@Base 4:15.08.0
 _ZN9PimCommon20WebDavStorageService23storageServiceShareLinkERK7QStringS3_@Base 4:15.08.0
 _ZN9PimCommon20WebDavStorageService24storageServiceCopyFolderERK7QStringS3_@Base 4:15.08.0
 _ZN9PimCommon20WebDavStorageService24storageServiceMoveFolderERK7QStringS3_@Base 4:15.08.0
 _ZN9PimCommon20WebDavStorageService24storageServiceRenameFileERK7QStringS3_@Base 4:15.08.0
 _ZN9PimCommon20WebDavStorageService24storageServicedeleteFileERK7QString@Base 4:15.08.0
 _ZN9PimCommon20WebDavStorageService24storageServicelistFolderERK7QString@Base 4:15.08.0
 _ZN9PimCommon20WebDavStorageService24storageServiceuploadFileERK7QStringS3_S3_@Base 4:15.08.0
 _ZN9PimCommon20WebDavStorageService25storageServiceaccountInfoEv@Base 4:15.08.0
 _ZN9PimCommon20WebDavStorageService26storageServiceRenameFolderERK7QStringS3_@Base 4:15.08.0
 _ZN9PimCommon20WebDavStorageService26storageServicecreateFolderERK7QStringS3_@Base 4:15.08.0
 _ZN9PimCommon20WebDavStorageService26storageServicedeleteFolderERK7QString@Base 4:15.08.0
 _ZN9PimCommon20WebDavStorageService26storageServicedownloadFileERK7QStringS3_S3_@Base 4:15.08.0
 _ZN9PimCommon20WebDavStorageService28storageServiceauthenticationEv@Base 4:15.08.0
 _ZN9PimCommon20WebDavStorageService33storageServicecreateServiceFolderEv@Base 4:15.08.0
 _ZN9PimCommon20WebDavStorageService4nameEv@Base 4:15.08.0
 _ZN9PimCommon20WebDavStorageService8iconNameEv@Base 4:15.08.0
 _ZN9PimCommon20WebDavStorageServiceC1EP7QObject@Base 4:15.08.0
 _ZN9PimCommon20WebDavStorageServiceC2EP7QObject@Base 4:15.08.0
 _ZN9PimCommon20WebDavStorageServiceD0Ev@Base 4:15.08.0
 _ZN9PimCommon20WebDavStorageServiceD1Ev@Base 4:15.08.0
 _ZN9PimCommon20WebDavStorageServiceD2Ev@Base 4:15.08.0
 _ZN9PimCommon21DropBoxStorageService10readConfigEv@Base 4:15.08.0
 _ZN9PimCommon21DropBoxStorageService10serviceUrlEv@Base 4:15.08.0
 _ZN9PimCommon21DropBoxStorageService11descriptionEv@Base 4:15.08.0
 _ZN9PimCommon21DropBoxStorageService11qt_metacallEN11QMetaObject4CallEiPPv@Base 4:15.08.0
 _ZN9PimCommon21DropBoxStorageService11qt_metacastEPKc@Base 4:15.08.0
 _ZN9PimCommon21DropBoxStorageService11serviceNameEv@Base 4:15.08.0
 _ZN9PimCommon21DropBoxStorageService12removeConfigEv@Base 4:15.08.0
 _ZN9PimCommon21DropBoxStorageService13fileShareRootERK4QMapI7QString8QVariantE@Base 4:15.08.0
 _ZN9PimCommon21DropBoxStorageService14fileIdentifierERK4QMapI7QString8QVariantE@Base 4:15.08.0
 _ZN9PimCommon21DropBoxStorageService14fillListWidgetEPNS_24StorageServiceTreeWidgetERK8QVariantRK7QString@Base 4:15.08.0
 _ZN9PimCommon21DropBoxStorageService15itemInformationERK4QMapI7QString8QVariantE@Base 4:15.08.0
 _ZN9PimCommon21DropBoxStorageService15shutdownServiceEv@Base 4:15.08.0
 _ZN9PimCommon21DropBoxStorageService16staticMetaObjectE@Base 4:15.08.0
 _ZN9PimCommon21DropBoxStorageService19serviceCapabilitiesEv@Base 4:15.08.0
 _ZN9PimCommon21DropBoxStorageService21checkNeedAuthenticateEv@Base 4:15.08.0
 _ZN9PimCommon21DropBoxStorageService21slotAuthorizationDoneERK7QStringS3_S3_@Base 4:15.08.0
 _ZN9PimCommon21DropBoxStorageService22storageServiceCopyFileERK7QStringS3_@Base 4:15.08.0
 _ZN9PimCommon21DropBoxStorageService22storageServiceMoveFileERK7QStringS3_@Base 4:15.08.0
 _ZN9PimCommon21DropBoxStorageService23slotAuthorizationFailedERK7QString@Base 4:15.08.0
 _ZN9PimCommon21DropBoxStorageService23storageServiceShareLinkERK7QStringS3_@Base 4:15.08.0
 _ZN9PimCommon21DropBoxStorageService24storageServiceCopyFolderERK7QStringS3_@Base 4:15.08.0
 _ZN9PimCommon21DropBoxStorageService24storageServiceMoveFolderERK7QStringS3_@Base 4:15.08.0
 _ZN9PimCommon21DropBoxStorageService24storageServiceRenameFileERK7QStringS3_@Base 4:15.08.0
 _ZN9PimCommon21DropBoxStorageService24storageServicedeleteFileERK7QString@Base 4:15.08.0
 _ZN9PimCommon21DropBoxStorageService24storageServicelistFolderERK7QString@Base 4:15.08.0
 _ZN9PimCommon21DropBoxStorageService24storageServiceuploadFileERK7QStringS3_S3_@Base 4:15.08.0
 _ZN9PimCommon21DropBoxStorageService25storageServiceaccountInfoEv@Base 4:15.08.0
 _ZN9PimCommon21DropBoxStorageService26storageServiceRenameFolderERK7QStringS3_@Base 4:15.08.0
 _ZN9PimCommon21DropBoxStorageService26storageServicecreateFolderERK7QStringS3_@Base 4:15.08.0
 _ZN9PimCommon21DropBoxStorageService26storageServicedeleteFolderERK7QString@Base 4:15.08.0
 _ZN9PimCommon21DropBoxStorageService26storageServicedownloadFileERK7QStringS3_S3_@Base 4:15.08.0
 _ZN9PimCommon21DropBoxStorageService28storageServiceauthenticationEv@Base 4:15.08.0
 _ZN9PimCommon21DropBoxStorageService33storageServicecreateServiceFolderEv@Base 4:15.08.0
 _ZN9PimCommon21DropBoxStorageService4nameEv@Base 4:15.08.0
 _ZN9PimCommon21DropBoxStorageService8iconNameEv@Base 4:15.08.0
 _ZN9PimCommon21DropBoxStorageServiceC1EP7QObject@Base 4:15.08.0
 _ZN9PimCommon21DropBoxStorageServiceC2EP7QObject@Base 4:15.08.0
 _ZN9PimCommon21DropBoxStorageServiceD0Ev@Base 4:15.08.0
 _ZN9PimCommon21DropBoxStorageServiceD1Ev@Base 4:15.08.0
 _ZN9PimCommon21DropBoxStorageServiceD2Ev@Base 4:15.08.0
 _ZN9PimCommon21EmailAddressRequester11qt_metacallEN11QMetaObject4CallEiPPv@Base 4:15.08.0
 _ZN9PimCommon21EmailAddressRequester11qt_metacastEPKc@Base 4:15.08.0
 _ZN9PimCommon21EmailAddressRequester11textChangedEv@Base 4:15.08.0
 _ZN9PimCommon21EmailAddressRequester16staticMetaObjectE@Base 4:15.08.0
 _ZN9PimCommon21EmailAddressRequester5clearEv@Base 4:15.08.0
 _ZN9PimCommon21EmailAddressRequester7Private15slotAddressBookEv@Base 4:15.08.0
 _ZN9PimCommon21EmailAddressRequester7setTextERK7QString@Base 4:15.08.0
 _ZN9PimCommon21EmailAddressRequesterC1EP7QWidget@Base 4:15.08.0
 _ZN9PimCommon21EmailAddressRequesterC2EP7QWidget@Base 4:15.08.0
 _ZN9PimCommon21EmailAddressRequesterD0Ev@Base 4:15.08.0
 _ZN9PimCommon21EmailAddressRequesterD1Ev@Base 4:15.08.0
 _ZN9PimCommon21EmailAddressRequesterD2Ev@Base 4:15.08.0
 _ZN9PimCommon21KActionMenuChangeCase11qt_metacallEN11QMetaObject4CallEiPPv@Base 4:15.08.0
 _ZN9PimCommon21KActionMenuChangeCase11qt_metacastEPKc@Base 4:15.08.0
 _ZN9PimCommon21KActionMenuChangeCase11reverseCaseEv@Base 4:15.08.0
 _ZN9PimCommon21KActionMenuChangeCase12sentenceCaseEv@Base 4:15.08.0
 _ZN9PimCommon21KActionMenuChangeCase16staticMetaObjectE@Base 4:15.08.0
 _ZN9PimCommon21KActionMenuChangeCase24appendInActionCollectionEP17KActionCollection@Base 4:15.08.0
 _ZN9PimCommon21KActionMenuChangeCase9lowerCaseEv@Base 4:15.08.0
 _ZN9PimCommon21KActionMenuChangeCase9upperCaseEv@Base 4:15.08.0
 _ZN9PimCommon21KActionMenuChangeCaseC1EP7QObject@Base 4:15.08.0
 _ZN9PimCommon21KActionMenuChangeCaseC2EP7QObject@Base 4:15.08.0
 _ZN9PimCommon21KActionMenuChangeCaseD0Ev@Base 4:15.08.0
 _ZN9PimCommon21KActionMenuChangeCaseD1Ev@Base 4:15.08.0
 _ZN9PimCommon21KActionMenuChangeCaseD2Ev@Base 4:15.08.0
 _ZN9PimCommon21LineEditWithCompleter11qt_metacallEN11QMetaObject4CallEiPPv@Base 4:15.08.0
 _ZN9PimCommon21LineEditWithCompleter11qt_metacastEPKc@Base 4:15.08.0
 _ZN9PimCommon21LineEditWithCompleter16contextMenuEventEP17QContextMenuEvent@Base 4:15.08.0
 _ZN9PimCommon21LineEditWithCompleter16slotClearHistoryEv@Base 4:15.08.0
 _ZN9PimCommon21LineEditWithCompleter16staticMetaObjectE@Base 4:15.08.0
 _ZN9PimCommon21LineEditWithCompleterC1EP7QWidget@Base 4:15.08.0
 _ZN9PimCommon21LineEditWithCompleterC2EP7QWidget@Base 4:15.08.0
 _ZN9PimCommon21LineEditWithCompleterD0Ev@Base 4:15.08.0
 _ZN9PimCommon21LineEditWithCompleterD1Ev@Base 4:15.08.0
 _ZN9PimCommon21LineEditWithCompleterD2Ev@Base 4:15.08.0
 _ZN9PimCommon21PimCommonSettingsBase4selfEv@Base 4:15.08.0
 _ZN9PimCommon21PimCommonSettingsBaseC1Ev@Base 4:15.08.0
 _ZN9PimCommon21PimCommonSettingsBaseC2Ev@Base 4:15.08.0
 _ZN9PimCommon21PimCommonSettingsBaseD0Ev@Base 4:15.08.0
 _ZN9PimCommon21PimCommonSettingsBaseD1Ev@Base 4:15.08.0
 _ZN9PimCommon21PimCommonSettingsBaseD2Ev@Base 4:15.08.0
 _ZN9PimCommon21PlainTextEditorWidget11qt_metacallEN11QMetaObject4CallEiPPv@Base 4:15.08.0
 _ZN9PimCommon21PlainTextEditorWidget11qt_metacastEPKc@Base 4:15.08.0
 _ZN9PimCommon21PlainTextEditorWidget11setReadOnlyEb@Base 4:15.08.0
 _ZN9PimCommon21PlainTextEditorWidget11slotReplaceEv@Base 4:15.08.0
 _ZN9PimCommon21PlainTextEditorWidget12setPlainTextERK7QString@Base 4:15.08.0
 _ZN9PimCommon21PlainTextEditorWidget16staticMetaObjectE@Base 4:15.08.0
 _ZN9PimCommon21PlainTextEditorWidget30setSpellCheckingConfigFileNameERK7QString@Base 4:15.08.0
 _ZN9PimCommon21PlainTextEditorWidget4initEPNS_15PlainTextEditorE@Base 4:15.08.0
 _ZN9PimCommon21PlainTextEditorWidget5clearEv@Base 4:15.08.0
 _ZN9PimCommon21PlainTextEditorWidget8slotFindEv@Base 4:15.08.0
 _ZN9PimCommon21PlainTextEditorWidgetC1EP7QWidget@Base 4:15.08.0
 _ZN9PimCommon21PlainTextEditorWidgetC1EPNS_15PlainTextEditorEP7QWidget@Base 4:15.08.0
 _ZN9PimCommon21PlainTextEditorWidgetC2EP7QWidget@Base 4:15.08.0
 _ZN9PimCommon21PlainTextEditorWidgetC2EPNS_15PlainTextEditorEP7QWidget@Base 4:15.08.0
 _ZN9PimCommon21PlainTextEditorWidgetD0Ev@Base 4:15.08.0
 _ZN9PimCommon21PlainTextEditorWidgetD1Ev@Base 4:15.08.0
 _ZN9PimCommon21PlainTextEditorWidgetD2Ev@Base 4:15.08.0
 _ZN9PimCommon21StorageServiceManager10readConfigEv@Base 4:15.08.0
 _ZN9PimCommon21StorageServiceManager10serviceUrlENS0_11ServiceTypeE@Base 4:15.08.0
 _ZN9PimCommon21StorageServiceManager11descriptionENS0_11ServiceTypeE@Base 4:15.08.0
 _ZN9PimCommon21StorageServiceManager11kconfigNameEv@Base 4:15.08.0
 _ZN9PimCommon21StorageServiceManager11qt_metacallEN11QMetaObject4CallEiPPv@Base 4:15.08.0
 _ZN9PimCommon21StorageServiceManager11qt_metacastEPKc@Base 4:15.08.0
 _ZN9PimCommon21StorageServiceManager11serviceNameENS0_11ServiceTypeE@Base 4:15.08.0
 _ZN9PimCommon21StorageServiceManager11writeConfigEv@Base 4:15.08.0
 _ZN9PimCommon21StorageServiceManager12actionFailedERK7QStringS3_@Base 4:15.08.0
 _ZN9PimCommon21StorageServiceManager12capabilitiesENS0_11ServiceTypeE@Base 4:15.08.0
 _ZN9PimCommon21StorageServiceManager13configChangedERK7QString@Base 4:15.08.0
 _ZN9PimCommon21StorageServiceManager13removeServiceERK7QString@Base 4:15.08.0
 _ZN9PimCommon21StorageServiceManager13serviceToI18nENS0_11ServiceTypeE@Base 4:15.08.0
 _ZN9PimCommon21StorageServiceManager13shareLinkDoneERK7QStringS3_@Base 4:15.08.0
 _ZN9PimCommon21StorageServiceManager13slotShareFileEv@Base 4:15.08.0
 _ZN9PimCommon21StorageServiceManager14defaultConnectEPNS_22StorageServiceAbstractE@Base 4:15.08.0
 _ZN9PimCommon21StorageServiceManager14deleteFileDoneERK7QStringS3_@Base 4:15.08.0
 _ZN9PimCommon21StorageServiceManager14setListServiceERK4QMapI7QStringPNS_22StorageServiceAbstractEE@Base 4:15.08.0
 _ZN9PimCommon21StorageServiceManager14slotDeleteFileEv@Base 4:15.08.0
 _ZN9PimCommon21StorageServiceManager14uploadFileDoneERK7QStringS3_@Base 4:15.08.0
 _ZN9PimCommon21StorageServiceManager15accountInfoDoneERK7QStringRKNS_11AccountInfoE@Base 4:15.08.0
 _ZN9PimCommon21StorageServiceManager15servicesChangedEv@Base 4:15.08.0
 _ZN9PimCommon21StorageServiceManager15slotAccountInfoEv@Base 4:15.08.0
 _ZN9PimCommon21StorageServiceManager15uploadFileStartEPNS_22StorageServiceAbstractE@Base 4:15.08.0
 _ZN9PimCommon21StorageServiceManager16deleteFolderDoneERK7QStringS3_@Base 4:15.08.0
 _ZN9PimCommon21StorageServiceManager16slotDeleteFolderEv@Base 4:15.08.0
 _ZN9PimCommon21StorageServiceManager16slotDownloadFileEv@Base 4:15.08.0
 _ZN9PimCommon21StorageServiceManager16staticMetaObjectE@Base 4:15.08.0
 _ZN9PimCommon21StorageServiceManager16uploadFileFailedERK7QStringS3_@Base 4:15.08.0
 _ZN9PimCommon21StorageServiceManager17slotConfigChangedERK7QString@Base 4:15.08.0
 _ZN9PimCommon21StorageServiceManager18authenticationDoneERK7QString@Base 4:15.08.0
 _ZN9PimCommon21StorageServiceManager20authenticationFailedERK7QStringS3_@Base 4:15.08.0
 _ZN9PimCommon21StorageServiceManager22setDefaultUploadFolderERK7QString@Base 4:15.08.0
 _ZN9PimCommon21StorageServiceManager26uploadDownloadFileProgressERK7QStringxx@Base 4:15.08.0
 _ZN9PimCommon21StorageServiceManager4iconENS0_11ServiceTypeE@Base 4:15.08.0
 _ZN9PimCommon21StorageServiceManagerC1EP7QObject@Base 4:15.08.0
 _ZN9PimCommon21StorageServiceManagerC2EP7QObject@Base 4:15.08.0
 _ZN9PimCommon21StorageServiceManagerD0Ev@Base 4:15.08.0
 _ZN9PimCommon21StorageServiceManagerD1Ev@Base 4:15.08.0
 _ZN9PimCommon21StorageServiceManagerD2Ev@Base 4:15.08.0
 _ZN9PimCommon21TextToSpeechInterface11qt_metacallEN11QMetaObject4CallEiPPv@Base 4:15.08.0
 _ZN9PimCommon21TextToSpeechInterface11qt_metacastEPKc@Base 4:15.08.0
 _ZN9PimCommon21TextToSpeechInterface12stateChangedENS_18TextToSpeechWidget5StateE@Base 4:15.08.0
 _ZN9PimCommon21TextToSpeechInterface14reloadSettingsEv@Base 4:15.08.0
 _ZN9PimCommon21TextToSpeechInterface16staticMetaObjectE@Base 4:15.08.0
 _ZN9PimCommon21TextToSpeechInterface3sayERK7QString@Base 4:15.08.0
 _ZN9PimCommon21TextToSpeechInterface9setVolumeEi@Base 4:15.08.0
 _ZN9PimCommon21TextToSpeechInterfaceC1EPNS_18TextToSpeechWidgetEP7QObject@Base 4:15.08.0
 _ZN9PimCommon21TextToSpeechInterfaceC2EPNS_18TextToSpeechWidgetEP7QObject@Base 4:15.08.0
 _ZN9PimCommon21TextToSpeechInterfaceD0Ev@Base 4:15.08.0
 _ZN9PimCommon21TextToSpeechInterfaceD1Ev@Base 4:15.08.0
 _ZN9PimCommon21TextToSpeechInterfaceD2Ev@Base 4:15.08.0
 _ZN9PimCommon22AutoCorrectionLanguage11setLanguageERK7QString@Base 4:15.08.0
 _ZN9PimCommon22AutoCorrectionLanguageC1EP7QWidget@Base 4:15.08.0
 _ZN9PimCommon22AutoCorrectionLanguageC2EP7QWidget@Base 4:15.08.0
 _ZN9PimCommon22AutoCorrectionLanguageD0Ev@Base 4:15.08.0
 _ZN9PimCommon22AutoCorrectionLanguageD1Ev@Base 4:15.08.0
 _ZN9PimCommon22AutoCorrectionLanguageD2Ev@Base 4:15.08.0
 _ZN9PimCommon22ShareServiceUrlManager10typeToI18nENS0_11ServiceTypeE@Base 4:15.08.0
 _ZN9PimCommon22ShareServiceUrlManager10typeToIconENS0_11ServiceTypeE@Base 4:15.08.0
 _ZN9PimCommon22ShareServiceUrlManager11qt_metacallEN11QMetaObject4CallEiPPv@Base 4:15.08.0
 _ZN9PimCommon22ShareServiceUrlManager11qt_metacastEPKc@Base 4:15.08.0
 _ZN9PimCommon22ShareServiceUrlManager14initializeMenuEv@Base 4:15.08.0
 _ZN9PimCommon22ShareServiceUrlManager16staticMetaObjectE@Base 4:15.08.0
 _ZN9PimCommon22ShareServiceUrlManager18generateServiceUrlERK7QStringS3_NS0_11ServiceTypeE@Base 4:15.08.0
 _ZN9PimCommon22ShareServiceUrlManager18serviceUrlSelectedENS0_11ServiceTypeE@Base 4:15.08.0
 _ZN9PimCommon22ShareServiceUrlManager20slotSelectServiceUrlEP7QAction@Base 4:15.08.0
 _ZN9PimCommon22ShareServiceUrlManager7openUrlERK4QUrl@Base 4:15.08.0
 _ZN9PimCommon22ShareServiceUrlManagerC1EP7QObject@Base 4:15.08.0
 _ZN9PimCommon22ShareServiceUrlManagerC2EP7QObject@Base 4:15.08.0
 _ZN9PimCommon22ShareServiceUrlManagerD0Ev@Base 4:15.08.0
 _ZN9PimCommon22ShareServiceUrlManagerD1Ev@Base 4:15.08.0
 _ZN9PimCommon22ShareServiceUrlManagerD2Ev@Base 4:15.08.0
 _ZN9PimCommon22SieveSyntaxHighlighter11qt_metacallEN11QMetaObject4CallEiPPv@Base 4:15.08.0
 _ZN9PimCommon22SieveSyntaxHighlighter11qt_metacastEPKc@Base 4:15.08.0
 _ZN9PimCommon22SieveSyntaxHighlighter15addCapabilitiesERK11QStringList@Base 4:15.08.0
 _ZN9PimCommon22SieveSyntaxHighlighter16staticMetaObjectE@Base 4:15.08.0
 _ZN9PimCommon22SieveSyntaxHighlighter4initEv@Base 4:15.08.0
 _ZN9PimCommon22SieveSyntaxHighlighterC1EP13QTextDocument@Base 4:15.08.0
 _ZN9PimCommon22SieveSyntaxHighlighterC2EP13QTextDocument@Base 4:15.08.0
 _ZN9PimCommon22SieveSyntaxHighlighterD0Ev@Base 4:15.08.0
 _ZN9PimCommon22SieveSyntaxHighlighterD1Ev@Base 4:15.08.0
 _ZN9PimCommon22SieveSyntaxHighlighterD2Ev@Base 4:15.08.0
 _ZN9PimCommon22SimpleStringListEditor10aboutToAddER7QString@Base 4:15.08.0
 _ZN9PimCommon22SimpleStringListEditor10slotModifyEv@Base 4:15.08.0
 _ZN9PimCommon22SimpleStringListEditor10slotRemoveEv@Base 4:15.08.0
 _ZN9PimCommon22SimpleStringListEditor11addNewEntryEv@Base 4:15.08.0
 _ZN9PimCommon22SimpleStringListEditor11modifyEntryERK7QString@Base 4:15.08.0
 _ZN9PimCommon22SimpleStringListEditor11qt_metacallEN11QMetaObject4CallEiPPv@Base 4:15.08.0
 _ZN9PimCommon22SimpleStringListEditor11qt_metacastEPKc@Base 4:15.08.0
 _ZN9PimCommon22SimpleStringListEditor13setButtonTextENS0_10ButtonCodeERK7QString@Base 4:15.08.0
 _ZN9PimCommon22SimpleStringListEditor13setStringListERK11QStringList@Base 4:15.08.0
 _ZN9PimCommon22SimpleStringListEditor14containsStringERK7QString@Base 4:15.08.0
 _ZN9PimCommon22SimpleStringListEditor14insertNewEntryERK7QString@Base 4:15.08.0
 _ZN9PimCommon22SimpleStringListEditor15slotContextMenuERK6QPoint@Base 4:15.08.0
 _ZN9PimCommon22SimpleStringListEditor16appendStringListERK11QStringList@Base 4:15.08.0
 _ZN9PimCommon22SimpleStringListEditor16staticMetaObjectE@Base 4:15.08.0
 _ZN9PimCommon22SimpleStringListEditor19setUpDownAutoRepeatEb@Base 4:15.08.0
 _ZN9PimCommon22SimpleStringListEditor20slotSelectionChangedEv@Base 4:15.08.0
 _ZN9PimCommon22SimpleStringListEditor6slotUpEv@Base 4:15.08.0
 _ZN9PimCommon22SimpleStringListEditor7changedEv@Base 4:15.08.0
 _ZN9PimCommon22SimpleStringListEditor7slotAddEv@Base 4:15.08.0
 _ZN9PimCommon22SimpleStringListEditor8slotDownEv@Base 4:15.08.0
 _ZN9PimCommon22SimpleStringListEditorC1EP7QWidgetNS0_10ButtonCodeERK7QStringS6_S6_S6_@Base 4:15.08.0
 _ZN9PimCommon22SimpleStringListEditorC2EP7QWidgetNS0_10ButtonCodeERK7QStringS6_S6_S6_@Base 4:15.08.0
 _ZN9PimCommon22StorageServiceAbstract10copyFolderERK7QStringS3_@Base 4:15.08.0
 _ZN9PimCommon22StorageServiceAbstract10deleteFileERK7QString@Base 4:15.08.0
 _ZN9PimCommon22StorageServiceAbstract10inProgressEb@Base 4:15.08.0
 _ZN9PimCommon22StorageServiceAbstract10listFolderERK7QString@Base 4:15.08.0
 _ZN9PimCommon22StorageServiceAbstract10moveFolderERK7QStringS3_@Base 4:15.08.0
 _ZN9PimCommon22StorageServiceAbstract10renameFileERK7QStringS3_@Base 4:15.08.0
 _ZN9PimCommon22StorageServiceAbstract10uploadFileERK7QStringS3_S3_@Base 4:15.08.0
 _ZN9PimCommon22StorageServiceAbstract11accountInfoEv@Base 4:15.08.0
 _ZN9PimCommon22StorageServiceAbstract11qt_metacallEN11QMetaObject4CallEiPPv@Base 4:15.08.0
 _ZN9PimCommon22StorageServiceAbstract11qt_metacastEPKc@Base 4:15.08.0
 _ZN9PimCommon22StorageServiceAbstract12actionFailedERK7QStringS3_@Base 4:15.08.0
 _ZN9PimCommon22StorageServiceAbstract12copyFileDoneERK7QStringS3_@Base 4:15.08.0
 _ZN9PimCommon22StorageServiceAbstract12createFolderERK7QStringS3_@Base 4:15.08.0
 _ZN9PimCommon22StorageServiceAbstract12deleteFolderERK7QString@Base 4:15.08.0
 _ZN9PimCommon22StorageServiceAbstract12downloadFileERK7QStringS3_S3_@Base 4:15.08.0
 _ZN9PimCommon22StorageServiceAbstract12moveFileDoneERK7QStringS3_@Base 4:15.08.0
 _ZN9PimCommon22StorageServiceAbstract12renameFolderERK7QStringS3_@Base 4:15.08.0
 _ZN9PimCommon22StorageServiceAbstract13shareLinkDoneERK7QStringS3_@Base 4:15.08.0
 _ZN9PimCommon22StorageServiceAbstract14authenticationEv@Base 4:15.08.0
 _ZN9PimCommon22StorageServiceAbstract14copyFolderDoneERK7QStringS3_@Base 4:15.08.0
 _ZN9PimCommon22StorageServiceAbstract14deleteFileDoneERK7QStringS3_@Base 4:15.08.0
 _ZN9PimCommon22StorageServiceAbstract14listFolderDoneERK7QStringRK8QVariant@Base 4:15.08.0
 _ZN9PimCommon22StorageServiceAbstract14moveFolderDoneERK7QStringS3_@Base 4:15.08.0
 _ZN9PimCommon22StorageServiceAbstract14renameFileDoneERK7QStringS3_@Base 4:15.08.0
 _ZN9PimCommon22StorageServiceAbstract14slotNextActionEv@Base 4:15.08.0
 _ZN9PimCommon22StorageServiceAbstract14uploadFileDoneERK7QStringS3_@Base 4:15.08.0
 _ZN9PimCommon22StorageServiceAbstract15accountInfoDoneERK7QStringRKNS_11AccountInfoE@Base 4:15.08.0
 _ZN9PimCommon22StorageServiceAbstract16cancelUploadFileEv@Base 4:15.08.0
 _ZN9PimCommon22StorageServiceAbstract16createFolderDoneERK7QStringS3_@Base 4:15.08.0
 _ZN9PimCommon22StorageServiceAbstract16deleteFolderDoneERK7QStringS3_@Base 4:15.08.0
 _ZN9PimCommon22StorageServiceAbstract16downLoadFileDoneERK7QStringS3_@Base 4:15.08.0
 _ZN9PimCommon22StorageServiceAbstract16renameFolderDoneERK7QStringS3_@Base 4:15.08.0
 _ZN9PimCommon22StorageServiceAbstract16slotActionFailedERK7QString@Base 4:15.08.0
 _ZN9PimCommon22StorageServiceAbstract16slotCopyFileDoneERK7QString@Base 4:15.08.0
 _ZN9PimCommon22StorageServiceAbstract16slotMoveFileDoneERK7QString@Base 4:15.08.0
 _ZN9PimCommon22StorageServiceAbstract16staticMetaObjectE@Base 4:15.08.0
 _ZN9PimCommon22StorageServiceAbstract16uploadFileFailedERK7QStringS3_@Base 4:15.08.0
 _ZN9PimCommon22StorageServiceAbstract17clearIsInProgressEv@Base 4:15.08.0
 _ZN9PimCommon22StorageServiceAbstract17executeNextActionEv@Base 4:15.08.0
 _ZN9PimCommon22StorageServiceAbstract17slotShareLinkDoneERK7QString@Base 4:15.08.0
 _ZN9PimCommon22StorageServiceAbstract18authenticationDoneERK7QString@Base 4:15.08.0
 _ZN9PimCommon22StorageServiceAbstract18cancelDownloadFileEv@Base 4:15.08.0
 _ZN9PimCommon22StorageServiceAbstract18downLoadFileFailedERK7QStringS3_@Base 4:15.08.0
 _ZN9PimCommon22StorageServiceAbstract18slotCopyFolderDoneERK7QString@Base 4:15.08.0
 _ZN9PimCommon22StorageServiceAbstract18slotDeleteFileDoneERK7QString@Base 4:15.08.0
 _ZN9PimCommon22StorageServiceAbstract18slotListFolderDoneERK8QVariant@Base 4:15.08.0
 _ZN9PimCommon22StorageServiceAbstract18slotMoveFolderDoneERK7QString@Base 4:15.08.0
 _ZN9PimCommon22StorageServiceAbstract18slotRenameFileDoneERK7QString@Base 4:15.08.0
 _ZN9PimCommon22StorageServiceAbstract18slotUploadFileDoneERK7QString@Base 4:15.08.0
 _ZN9PimCommon22StorageServiceAbstract19createServiceFolderEv@Base 4:15.08.0
 _ZN9PimCommon22StorageServiceAbstract19slotAccountInfoDoneERKNS_11AccountInfoE@Base 4:15.08.0
 _ZN9PimCommon22StorageServiceAbstract20authenticationFailedERK7QStringS3_@Base 4:15.08.0
 _ZN9PimCommon22StorageServiceAbstract20slotCreateFolderDoneERK7QString@Base 4:15.08.0
 _ZN9PimCommon22StorageServiceAbstract20slotDeleteFolderDoneERK7QString@Base 4:15.08.0
 _ZN9PimCommon22StorageServiceAbstract20slotDownLoadFileDoneERK7QString@Base 4:15.08.0
 _ZN9PimCommon22StorageServiceAbstract20slotRenameFolderDoneERK7QString@Base 4:15.08.0
 _ZN9PimCommon22StorageServiceAbstract20slotUploadFileFailedERK7QString@Base 4:15.08.0
 _ZN9PimCommon22StorageServiceAbstract22slotDownLoadFileFailedERK7QString@Base 4:15.08.0
 _ZN9PimCommon22StorageServiceAbstract24cancelUploadDownloadFileEv@Base 4:15.08.0
 _ZN9PimCommon22StorageServiceAbstract24emitAuthentificationDoneEv@Base 4:15.08.0
 _ZN9PimCommon22StorageServiceAbstract26emitAuthentificationFailedERK7QString@Base 4:15.08.0
 _ZN9PimCommon22StorageServiceAbstract26uploadDownloadFileProgressERK7QStringxx@Base 4:15.08.0
 _ZN9PimCommon22StorageServiceAbstract30slotuploadDownloadFileProgressExx@Base 4:15.08.0
 _ZN9PimCommon22StorageServiceAbstract6logoutEv@Base 4:15.08.0
 _ZN9PimCommon22StorageServiceAbstract8copyFileERK7QStringS3_@Base 4:15.08.0
 _ZN9PimCommon22StorageServiceAbstract8moveFileERK7QStringS3_@Base 4:15.08.0
 _ZN9PimCommon22StorageServiceAbstract9shareLinkERK7QStringS3_@Base 4:15.08.0
 _ZN9PimCommon22StorageServiceAbstractC1EP7QObject@Base 4:15.08.0
 _ZN9PimCommon22StorageServiceAbstractC2EP7QObject@Base 4:15.08.0
 _ZN9PimCommon22StorageServiceAbstractD0Ev@Base 4:15.08.0
 _ZN9PimCommon22StorageServiceAbstractD1Ev@Base 4:15.08.0
 _ZN9PimCommon22StorageServiceAbstractD2Ev@Base 4:15.08.0
 _ZN9PimCommon22StorageServiceSettings11closeWalletEv@Base 4:15.08.0
 _ZN9PimCommon22StorageServiceSettings11qt_metacallEN11QMetaObject4CallEiPPv@Base 4:15.08.0
 _ZN9PimCommon22StorageServiceSettings11qt_metacastEPKc@Base 4:15.08.0
 _ZN9PimCommon22StorageServiceSettings16slotWalletClosedEv@Base 4:15.08.0
 _ZN9PimCommon22StorageServiceSettings16staticMetaObjectE@Base 4:15.08.0
 _ZN9PimCommon22StorageServiceSettings19createDefaultFolderEv@Base 4:15.08.0
 _ZN9PimCommon22StorageServiceSettings4selfEv@Base 4:15.08.0
 _ZN9PimCommon22StorageServiceSettings6walletEv@Base 4:15.08.0
 _ZN9PimCommon22StorageServiceSettingsC1EP7QObject@Base 4:15.08.0
 _ZN9PimCommon22StorageServiceSettingsC2EP7QObject@Base 4:15.08.0
 _ZN9PimCommon22StorageServiceSettingsD0Ev@Base 4:15.08.0
 _ZN9PimCommon22StorageServiceSettingsD1Ev@Base 4:15.08.0
 _ZN9PimCommon22StorageServiceSettingsD2Ev@Base 4:15.08.0
 _ZN9PimCommon22WebShortcutMenuManager11qt_metacallEN11QMetaObject4CallEiPPv@Base 4:15.08.0
 _ZN9PimCommon22WebShortcutMenuManager11qt_metacastEPKc@Base 4:15.08.0
 _ZN9PimCommon22WebShortcutMenuManager15setSelectedTextERK7QString@Base 4:15.08.0
 _ZN9PimCommon22WebShortcutMenuManager16staticMetaObjectE@Base 4:15.08.0
 _ZN9PimCommon22WebShortcutMenuManager19addWebShortcutsMenuEP5QMenu@Base 4:15.08.0
 _ZN9PimCommon22WebShortcutMenuManager25slotConfigureWebShortcutsEv@Base 4:15.08.0
 _ZN9PimCommon22WebShortcutMenuManager27slotHandleWebShortcutActionEv@Base 4:15.08.0
 _ZN9PimCommon22WebShortcutMenuManagerC1EP7QObject@Base 4:15.08.0
 _ZN9PimCommon22WebShortcutMenuManagerC2EP7QObject@Base 4:15.08.0
 _ZN9PimCommon22WebShortcutMenuManagerD0Ev@Base 4:15.08.0
 _ZN9PimCommon22WebShortcutMenuManagerD1Ev@Base 4:15.08.0
 _ZN9PimCommon22WebShortcutMenuManagerD2Ev@Base 4:15.08.0
 _ZN9PimCommon23CheckedCollectionWidget11qt_metacallEN11QMetaObject4CallEiPPv@Base 4:15.08.0
 _ZN9PimCommon23CheckedCollectionWidget11qt_metacastEPKc@Base 4:15.08.0
 _ZN9PimCommon23CheckedCollectionWidget15collectionAddedERKN7Akonadi10CollectionES4_@Base 4:15.08.0
 _ZN9PimCommon23CheckedCollectionWidget16staticMetaObjectE@Base 4:15.08.0
 _ZN9PimCommon23CheckedCollectionWidget17collectionRemovedERKN7Akonadi10CollectionE@Base 4:15.08.0
 _ZN9PimCommon23CheckedCollectionWidget23slotSetCollectionFilterERK7QString@Base 4:15.08.0
 _ZN9PimCommon23CheckedCollectionWidgetC1ERK7QStringP7QWidget@Base 4:15.08.0
 _ZN9PimCommon23CheckedCollectionWidgetC2ERK7QStringP7QWidget@Base 4:15.08.0
 _ZN9PimCommon23CheckedCollectionWidgetD0Ev@Base 4:15.08.0
 _ZN9PimCommon23CheckedCollectionWidgetD1Ev@Base 4:15.08.0
 _ZN9PimCommon23CheckedCollectionWidgetD2Ev@Base 4:15.08.0
 _ZN9PimCommon23MigrateApplicationFiles10setVersionEi@Base 4:15.08.0
 _ZN9PimCommon23MigrateApplicationFiles11migrateDoneEv@Base 4:15.08.0
 _ZN9PimCommon23MigrateApplicationFiles11migrateFileERKNS_15MigrateFileInfoE@Base 4:15.08.0
 _ZN9PimCommon23MigrateApplicationFiles11qt_metacallEN11QMetaObject4CallEiPPv@Base 4:15.08.0
 _ZN9PimCommon23MigrateApplicationFiles11qt_metacastEPKc@Base 4:15.08.0
 _ZN9PimCommon23MigrateApplicationFiles11writeConfigEv@Base 4:15.08.0
 _ZN9PimCommon23MigrateApplicationFiles13migrateConfigEv@Base 4:15.08.0
 _ZN9PimCommon23MigrateApplicationFiles13migrateFolderERKNS_15MigrateFileInfoE@Base 4:15.08.0
 _ZN9PimCommon23MigrateApplicationFiles15copyRecursivelyERK7QStringS3_@Base 4:15.08.0
 _ZN9PimCommon23MigrateApplicationFiles16checkIfNecessaryEv@Base 4:15.08.0
 _ZN9PimCommon23MigrateApplicationFiles16staticMetaObjectE@Base 4:15.08.0
 _ZN9PimCommon23MigrateApplicationFiles17insertMigrateInfoERKNS_15MigrateFileInfoE@Base 4:15.08.0
 _ZN9PimCommon23MigrateApplicationFiles17setConfigFileNameERK7QString@Base 4:15.08.0
 _ZN9PimCommon23MigrateApplicationFiles18setApplicationNameERK7QString@Base 4:15.08.0
 _ZN9PimCommon23MigrateApplicationFiles23setCurrentConfigVersionEi@Base 4:15.08.0
 _ZN9PimCommon23MigrateApplicationFiles5startEv@Base 4:15.08.0
 _ZN9PimCommon23MigrateApplicationFiles8finishedEv@Base 4:15.08.0
 _ZN9PimCommon23MigrateApplicationFilesC1EP7QObject@Base 4:15.08.0
 _ZN9PimCommon23MigrateApplicationFilesC2EP7QObject@Base 4:15.08.0
 _ZN9PimCommon23MigrateApplicationFilesD0Ev@Base 4:15.08.0
 _ZN9PimCommon23MigrateApplicationFilesD1Ev@Base 4:15.08.0
 _ZN9PimCommon23MigrateApplicationFilesD2Ev@Base 4:15.08.0
 _ZN9PimCommon23ShortUrlConfigureDialog11qt_metacallEN11QMetaObject4CallEiPPv@Base 4:15.08.0
 _ZN9PimCommon23ShortUrlConfigureDialog11qt_metacastEPKc@Base 4:15.08.0
 _ZN9PimCommon23ShortUrlConfigureDialog13slotOkClickedEv@Base 4:15.08.0
 _ZN9PimCommon23ShortUrlConfigureDialog16staticMetaObjectE@Base 4:15.08.0
 _ZN9PimCommon23ShortUrlConfigureDialog18slotDefaultClickedEv@Base 4:15.08.0
 _ZN9PimCommon23ShortUrlConfigureDialogC1EP7QWidget@Base 4:15.08.0
 _ZN9PimCommon23ShortUrlConfigureDialogC2EP7QWidget@Base 4:15.08.0
 _ZN9PimCommon23ShortUrlConfigureDialogD0Ev@Base 4:15.08.0
 _ZN9PimCommon23ShortUrlConfigureDialogD1Ev@Base 4:15.08.0
 _ZN9PimCommon23ShortUrlConfigureDialogD2Ev@Base 4:15.08.0
 _ZN9PimCommon23ShortUrlConfigureWidget10loadConfigEv@Base 4:15.08.0
 _ZN9PimCommon23ShortUrlConfigureWidget11qt_metacallEN11QMetaObject4CallEiPPv@Base 4:15.08.0
 _ZN9PimCommon23ShortUrlConfigureWidget11qt_metacastEPKc@Base 4:15.08.0
 _ZN9PimCommon23ShortUrlConfigureWidget11slotChangedEv@Base 4:15.08.0
 _ZN9PimCommon23ShortUrlConfigureWidget11writeConfigEv@Base 4:15.08.0
 _ZN9PimCommon23ShortUrlConfigureWidget14resetToDefaultEv@Base 4:15.08.0
 _ZN9PimCommon23ShortUrlConfigureWidget15settingsChangedEv@Base 4:15.08.0
 _ZN9PimCommon23ShortUrlConfigureWidget16staticMetaObjectE@Base 4:15.08.0
 _ZN9PimCommon23ShortUrlConfigureWidget4initEv@Base 4:15.08.0
 _ZN9PimCommon23ShortUrlConfigureWidgetC1EP7QWidget@Base 4:15.08.0
 _ZN9PimCommon23ShortUrlConfigureWidgetC2EP7QWidget@Base 4:15.08.0
 _ZN9PimCommon23ShortUrlConfigureWidgetD0Ev@Base 4:15.08.0
 _ZN9PimCommon23ShortUrlConfigureWidgetD1Ev@Base 4:15.08.0
 _ZN9PimCommon23ShortUrlConfigureWidgetD2Ev@Base 4:15.08.0
 _ZN9PimCommon23StorageServiceJobConfig11qt_metacallEN11QMetaObject4CallEiPPv@Base 4:15.08.0
 _ZN9PimCommon23StorageServiceJobConfig11qt_metacastEPKc@Base 4:15.08.0
 _ZN9PimCommon23StorageServiceJobConfig16registerConfigIfEPNS_12ISettingsJobE@Base 4:15.08.0
 _ZN9PimCommon23StorageServiceJobConfig16staticMetaObjectE@Base 4:15.08.0
 _ZN9PimCommon23StorageServiceJobConfig4selfEv@Base 4:15.08.0
 _ZN9PimCommon23StorageServiceJobConfigC1EP7QObject@Base 4:15.08.0
 _ZN9PimCommon23StorageServiceJobConfigC2EP7QObject@Base 4:15.08.0
 _ZN9PimCommon23StorageServiceJobConfigD0Ev@Base 4:15.08.0
 _ZN9PimCommon23StorageServiceJobConfigD1Ev@Base 4:15.08.0
 _ZN9PimCommon23StorageServiceJobConfigD2Ev@Base 4:15.08.0
 _ZN9PimCommon23YouSendItStorageService10readConfigEv@Base 4:15.08.0
 _ZN9PimCommon23YouSendItStorageService10serviceUrlEv@Base 4:15.08.0
 _ZN9PimCommon23YouSendItStorageService11descriptionEv@Base 4:15.08.0
 _ZN9PimCommon23YouSendItStorageService11qt_metacallEN11QMetaObject4CallEiPPv@Base 4:15.08.0
 _ZN9PimCommon23YouSendItStorageService11qt_metacastEPKc@Base 4:15.08.0
 _ZN9PimCommon23YouSendItStorageService11serviceNameEv@Base 4:15.08.0
 _ZN9PimCommon23YouSendItStorageService12removeConfigEv@Base 4:15.08.0
 _ZN9PimCommon23YouSendItStorageService13fileShareRootERK4QMapI7QString8QVariantE@Base 4:15.08.0
 _ZN9PimCommon23YouSendItStorageService14fileIdentifierERK4QMapI7QString8QVariantE@Base 4:15.08.0
 _ZN9PimCommon23YouSendItStorageService14fillListWidgetEPNS_24StorageServiceTreeWidgetERK8QVariantRK7QString@Base 4:15.08.0
 _ZN9PimCommon23YouSendItStorageService15itemInformationERK4QMapI7QString8QVariantE@Base 4:15.08.0
 _ZN9PimCommon23YouSendItStorageService15shutdownServiceEv@Base 4:15.08.0
 _ZN9PimCommon23YouSendItStorageService16needAuthenticateEv@Base 4:15.08.0
 _ZN9PimCommon23YouSendItStorageService16staticMetaObjectE@Base 4:15.08.0
 _ZN9PimCommon23YouSendItStorageService19serviceCapabilitiesEv@Base 4:15.08.0
 _ZN9PimCommon23YouSendItStorageService21slotAuthorizationDoneERK7QStringS3_S3_@Base 4:15.08.0
 _ZN9PimCommon23YouSendItStorageService22storageServiceCopyFileERK7QStringS3_@Base 4:15.08.0
 _ZN9PimCommon23YouSendItStorageService22storageServiceMoveFileERK7QStringS3_@Base 4:15.08.0
 _ZN9PimCommon23YouSendItStorageService23slotAuthorizationFailedERK7QString@Base 4:15.08.0
 _ZN9PimCommon23YouSendItStorageService23storageServiceShareLinkERK7QStringS3_@Base 4:15.08.0
 _ZN9PimCommon23YouSendItStorageService24storageServiceCopyFolderERK7QStringS3_@Base 4:15.08.0
 _ZN9PimCommon23YouSendItStorageService24storageServiceMoveFolderERK7QStringS3_@Base 4:15.08.0
 _ZN9PimCommon23YouSendItStorageService24storageServiceRenameFileERK7QStringS3_@Base 4:15.08.0
 _ZN9PimCommon23YouSendItStorageService24storageServicedeleteFileERK7QString@Base 4:15.08.0
 _ZN9PimCommon23YouSendItStorageService24storageServicelistFolderERK7QString@Base 4:15.08.0
 _ZN9PimCommon23YouSendItStorageService24storageServiceuploadFileERK7QStringS3_S3_@Base 4:15.08.0
 _ZN9PimCommon23YouSendItStorageService25storageServiceaccountInfoEv@Base 4:15.08.0
 _ZN9PimCommon23YouSendItStorageService26storageServiceRenameFolderERK7QStringS3_@Base 4:15.08.0
 _ZN9PimCommon23YouSendItStorageService26storageServicecreateFolderERK7QStringS3_@Base 4:15.08.0
 _ZN9PimCommon23YouSendItStorageService26storageServicedeleteFolderERK7QString@Base 4:15.08.0
 _ZN9PimCommon23YouSendItStorageService26storageServicedownloadFileERK7QStringS3_S3_@Base 4:15.08.0
 _ZN9PimCommon23YouSendItStorageService28storageServiceauthenticationEv@Base 4:15.08.0
 _ZN9PimCommon23YouSendItStorageService33storageServicecreateServiceFolderEv@Base 4:15.08.0
 _ZN9PimCommon23YouSendItStorageService4nameEv@Base 4:15.08.0
 _ZN9PimCommon23YouSendItStorageService8iconNameEv@Base 4:15.08.0
 _ZN9PimCommon23YouSendItStorageServiceC1EP7QObject@Base 4:15.08.0
 _ZN9PimCommon23YouSendItStorageServiceC2EP7QObject@Base 4:15.08.0
 _ZN9PimCommon23YouSendItStorageServiceD0Ev@Base 4:15.08.0
 _ZN9PimCommon23YouSendItStorageServiceD1Ev@Base 4:15.08.0
 _ZN9PimCommon23YouSendItStorageServiceD2Ev@Base 4:15.08.0
 _ZN9PimCommon24StorageServiceTreeWidget10goToFolderERK7QStringb@Base 4:15.08.0
 _ZN9PimCommon24StorageServiceTreeWidget10slotMoveUpEv@Base 4:15.08.0
 _ZN9PimCommon24StorageServiceTreeWidget11qt_metacallEN11QMetaObject4CallEiPPv@Base 4:15.08.0
 _ZN9PimCommon24StorageServiceTreeWidget11qt_metacastEPKc@Base 4:15.08.0
 _ZN9PimCommon24StorageServiceTreeWidget11refreshListEv@Base 4:15.08.0
 _ZN9PimCommon24StorageServiceTreeWidget12changeFolderERK7QStringS3_@Base 4:15.08.0
 _ZN9PimCommon24StorageServiceTreeWidget14createUpActionEP5QMenu@Base 4:15.08.0
 _ZN9PimCommon24StorageServiceTreeWidget14slotPropertiesEv@Base 4:15.08.0
 _ZN9PimCommon24StorageServiceTreeWidget15setParentFolderERK7QString@Base 4:15.08.0
 _ZN9PimCommon24StorageServiceTreeWidget15slotContextMenuERK6QPoint@Base 4:15.08.0
 _ZN9PimCommon24StorageServiceTreeWidget16createMoveUpItemEv@Base 4:15.08.0
 _ZN9PimCommon24StorageServiceTreeWidget16setCurrentFolderERK7QString@Base 4:15.08.0
 _ZN9PimCommon24StorageServiceTreeWidget16staticMetaObjectE@Base 4:15.08.0
 _ZN9PimCommon24StorageServiceTreeWidget17createMenuActionsEP5QMenu@Base 4:15.08.0
 _ZN9PimCommon24StorageServiceTreeWidget17fileDoubleClickedEv@Base 4:15.08.0
 _ZN9PimCommon24StorageServiceTreeWidget18slotListFolderDoneERK7QStringRK8QVariant@Base 4:15.08.0
 _ZN9PimCommon24StorageServiceTreeWidget21slotItemDoubleClickedEP15QTreeWidgetItemi@Base 4:15.08.0
 _ZN9PimCommon24StorageServiceTreeWidget22createPropertiesActionEP5QMenu@Base 4:15.08.0
 _ZN9PimCommon24StorageServiceTreeWidget7addFileERK7QStringS3_S3_@Base 4:15.08.0
 _ZN9PimCommon24StorageServiceTreeWidget9addFolderERK7QStringS3_@Base 4:15.08.0
 _ZN9PimCommon24StorageServiceTreeWidgetC1EPNS_22StorageServiceAbstractEP7QWidget@Base 4:15.08.0
 _ZN9PimCommon24StorageServiceTreeWidgetC2EPNS_22StorageServiceAbstractEP7QWidget@Base 4:15.08.0
 _ZN9PimCommon24StorageServiceTreeWidgetD0Ev@Base 4:15.08.0
 _ZN9PimCommon24StorageServiceTreeWidgetD1Ev@Base 4:15.08.0
 _ZN9PimCommon24StorageServiceTreeWidgetD2Ev@Base 4:15.08.0
 _ZN9PimCommon24TextToSpeechConfigDialog10readConfigEv@Base 4:15.08.0
 _ZN9PimCommon24TextToSpeechConfigDialog11qt_metacallEN11QMetaObject4CallEiPPv@Base 4:15.08.0
 _ZN9PimCommon24TextToSpeechConfigDialog11qt_metacastEPKc@Base 4:15.08.0
 _ZN9PimCommon24TextToSpeechConfigDialog11writeConfigEv@Base 4:15.08.0
 _ZN9PimCommon24TextToSpeechConfigDialog12slotAcceptedEv@Base 4:15.08.0
 _ZN9PimCommon24TextToSpeechConfigDialog16staticMetaObjectE@Base 4:15.08.0
 _ZN9PimCommon24TextToSpeechConfigDialogC1EP7QWidget@Base 4:15.08.0
 _ZN9PimCommon24TextToSpeechConfigDialogC2EP7QWidget@Base 4:15.08.0
 _ZN9PimCommon24TextToSpeechConfigDialogD0Ev@Base 4:15.08.0
 _ZN9PimCommon24TextToSpeechConfigDialogD1Ev@Base 4:15.08.0
 _ZN9PimCommon24TextToSpeechConfigDialogD2Ev@Base 4:15.08.0
 _ZN9PimCommon24TextToSpeechConfigWidget10readConfigEv@Base 4:15.08.0
 _ZN9PimCommon24TextToSpeechConfigWidget11qt_metacallEN11QMetaObject4CallEiPPv@Base 4:15.08.0
 _ZN9PimCommon24TextToSpeechConfigWidget11qt_metacastEPKc@Base 4:15.08.0
 _ZN9PimCommon24TextToSpeechConfigWidget11writeConfigEv@Base 4:15.08.0
 _ZN9PimCommon24TextToSpeechConfigWidget12updateLocaleEv@Base 4:15.08.0
 _ZN9PimCommon24TextToSpeechConfigWidget12valueChangedEv@Base 4:15.08.0
 _ZN9PimCommon24TextToSpeechConfigWidget13configChangedEb@Base 4:15.08.0
 _ZN9PimCommon24TextToSpeechConfigWidget16staticMetaObjectE@Base 4:15.08.0
 _ZN9PimCommon24TextToSpeechConfigWidget26slotUpdateAvailableLocalesEv@Base 4:15.08.0
 _ZN9PimCommon24TextToSpeechConfigWidget30setTextToSpeechConfigInterfaceEPNS_35AbstractTextToSpeechConfigInterfaceE@Base 4:15.08.0
 _ZN9PimCommon24TextToSpeechConfigWidgetC1EP7QWidget@Base 4:15.08.0
 _ZN9PimCommon24TextToSpeechConfigWidgetC2EP7QWidget@Base 4:15.08.0
 _ZN9PimCommon24TextToSpeechConfigWidgetD0Ev@Base 4:15.08.0
 _ZN9PimCommon24TextToSpeechConfigWidgetD1Ev@Base 4:15.08.0
 _ZN9PimCommon24TextToSpeechConfigWidgetD2Ev@Base 4:15.08.0
 _ZN9PimCommon26LineEditWithAutoCorrection11qt_metacallEN11QMetaObject4CallEiPPv@Base 4:15.08.0
 _ZN9PimCommon26LineEditWithAutoCorrection11qt_metacastEPKc@Base 4:15.08.0
 _ZN9PimCommon26LineEditWithAutoCorrection13keyPressEventEP9QKeyEvent@Base 4:15.08.0
 _ZN9PimCommon26LineEditWithAutoCorrection16staticMetaObjectE@Base 4:15.08.0
 _ZN9PimCommon26LineEditWithAutoCorrection17setAutocorrectionEPNS_14AutoCorrectionE@Base 4:15.08.0
 _ZN9PimCommon26LineEditWithAutoCorrection25setAutocorrectionLanguageERK7QString@Base 4:15.08.0
 _ZN9PimCommon26LineEditWithAutoCorrectionC1EP7QWidgetRK7QString@Base 4:15.08.0
 _ZN9PimCommon26LineEditWithAutoCorrectionC2EP7QWidgetRK7QString@Base 4:15.08.0
 _ZN9PimCommon26LineEditWithAutoCorrectionD0Ev@Base 4:15.08.0
 _ZN9PimCommon26LineEditWithAutoCorrectionD1Ev@Base 4:15.08.0
 _ZN9PimCommon26LineEditWithAutoCorrectionD2Ev@Base 4:15.08.0
 _ZN9PimCommon26SieveSyntaxHighlighterUtil16fullCapabilitiesEv@Base 4:15.08.0
 _ZN9PimCommon26StorageServiceDeleteDialog10deleteFileEPNS_28StorageServiceTreeWidgetItemE@Base 4:15.08.0
 _ZN9PimCommon26StorageServiceDeleteDialog10readConfigEv@Base 4:15.08.0
 _ZN9PimCommon26StorageServiceDeleteDialog10slotDeleteEv@Base 4:15.08.0
 _ZN9PimCommon26StorageServiceDeleteDialog11qt_metacallEN11QMetaObject4CallEiPPv@Base 4:15.08.0
 _ZN9PimCommon26StorageServiceDeleteDialog11qt_metacastEPKc@Base 4:15.08.0
 _ZN9PimCommon26StorageServiceDeleteDialog11writeConfigEv@Base 4:15.08.0
 _ZN9PimCommon26StorageServiceDeleteDialog12deleteFolderEPNS_28StorageServiceTreeWidgetItemE@Base 4:15.08.0
 _ZN9PimCommon26StorageServiceDeleteDialog14deleteFileDoneERK7QStringS3_@Base 4:15.08.0
 _ZN9PimCommon26StorageServiceDeleteDialog15slotRefreshListEv@Base 4:15.08.0
 _ZN9PimCommon26StorageServiceDeleteDialog16deleteFolderDoneERK7QStringS3_@Base 4:15.08.0
 _ZN9PimCommon26StorageServiceDeleteDialog16slotActionFailedERK7QStringS3_@Base 4:15.08.0
 _ZN9PimCommon26StorageServiceDeleteDialog16slotUpdatePixmapERK7QPixmap@Base 4:15.08.0
 _ZN9PimCommon26StorageServiceDeleteDialog16staticMetaObjectE@Base 4:15.08.0
 _ZN9PimCommon26StorageServiceDeleteDialog17slotItemActivatedEP15QTreeWidgetItemi@Base 4:15.08.0
 _ZN9PimCommon26StorageServiceDeleteDialog18slotDeleteFileDoneERK7QStringS3_@Base 4:15.08.0
 _ZN9PimCommon26StorageServiceDeleteDialog18slotListFolderDoneERK7QStringRK8QVariant@Base 4:15.08.0
 _ZN9PimCommon26StorageServiceDeleteDialog20slotDeleteFolderDoneERK7QStringS3_@Base 4:15.08.0
 _ZN9PimCommon26StorageServiceDeleteDialog21slotItemDoubleClickedEP15QTreeWidgetItemi@Base 4:15.08.0
 _ZN9PimCommon26StorageServiceDeleteDialogC1ENS0_10DeleteTypeEPNS_22StorageServiceAbstractEP7QWidget@Base 4:15.08.0
 _ZN9PimCommon26StorageServiceDeleteDialogC2ENS0_10DeleteTypeEPNS_22StorageServiceAbstractEP7QWidget@Base 4:15.08.0
 _ZN9PimCommon26StorageServiceDeleteDialogD0Ev@Base 4:15.08.0
 _ZN9PimCommon26StorageServiceDeleteDialogD1Ev@Base 4:15.08.0
 _ZN9PimCommon26StorageServiceDeleteDialogD2Ev@Base 4:15.08.0
 _ZN9PimCommon27SelectMultiCollectionDialog10initializeERK7QStringRK5QListIxE@Base 4:15.08.0
 _ZN9PimCommon27SelectMultiCollectionDialog10readConfigEv@Base 4:15.08.0
 _ZN9PimCommon27SelectMultiCollectionDialog11qt_metacallEN11QMetaObject4CallEiPPv@Base 4:15.08.0
 _ZN9PimCommon27SelectMultiCollectionDialog11qt_metacastEPKc@Base 4:15.08.0
 _ZN9PimCommon27SelectMultiCollectionDialog11writeConfigEv@Base 4:15.08.0
 _ZN9PimCommon27SelectMultiCollectionDialog16staticMetaObjectE@Base 4:15.08.0
 _ZN9PimCommon27SelectMultiCollectionDialogC1ERK7QStringP7QWidget@Base 4:15.08.0
 _ZN9PimCommon27SelectMultiCollectionDialogC1ERK7QStringRK5QListIxEP7QWidget@Base 4:15.08.0
 _ZN9PimCommon27SelectMultiCollectionDialogC2ERK7QStringP7QWidget@Base 4:15.08.0
 _ZN9PimCommon27SelectMultiCollectionDialogC2ERK7QStringRK5QListIxEP7QWidget@Base 4:15.08.0
 _ZN9PimCommon27SelectMultiCollectionDialogD0Ev@Base 4:15.08.0
 _ZN9PimCommon27SelectMultiCollectionDialogD1Ev@Base 4:15.08.0
 _ZN9PimCommon27SelectMultiCollectionDialogD2Ev@Base 4:15.08.0
 _ZN9PimCommon27SieveSyntaxHighlighterRules15addCapabilitiesERK11QStringList@Base 4:15.08.0
 _ZN9PimCommon27SieveSyntaxHighlighterRules4initEv@Base 4:15.08.0
 _ZN9PimCommon27SieveSyntaxHighlighterRulesC1Ev@Base 4:15.08.0
 _ZN9PimCommon27SieveSyntaxHighlighterRulesC2Ev@Base 4:15.08.0
 _ZN9PimCommon27TextToSpeechConfigInterface11qt_metacallEN11QMetaObject4CallEiPPv@Base 4:15.08.0
 _ZN9PimCommon27TextToSpeechConfigInterface11qt_metacastEPKc@Base 4:15.08.0
 _ZN9PimCommon27TextToSpeechConfigInterface16staticMetaObjectE@Base 4:15.08.0
 _ZN9PimCommon27TextToSpeechConfigInterface9setLocaleERK7QLocale@Base 4:15.08.0
 _ZN9PimCommon27TextToSpeechConfigInterfaceC1EP7QObject@Base 4:15.08.0
 _ZN9PimCommon27TextToSpeechConfigInterfaceC2EP7QObject@Base 4:15.08.0
 _ZN9PimCommon27TextToSpeechConfigInterfaceD0Ev@Base 4:15.08.0
 _ZN9PimCommon27TextToSpeechConfigInterfaceD1Ev@Base 4:15.08.0
 _ZN9PimCommon27TextToSpeechConfigInterfaceD2Ev@Base 4:15.08.0
 _ZN9PimCommon28AttachmentTemporaryFilesDirs10addTempDirERK7QString@Base 4:15.08.0
 _ZN9PimCommon28AttachmentTemporaryFilesDirs11addTempFileERK7QString@Base 4:15.08.0
 _ZN9PimCommon28AttachmentTemporaryFilesDirs11qt_metacallEN11QMetaObject4CallEiPPv@Base 4:15.08.0
 _ZN9PimCommon28AttachmentTemporaryFilesDirs11qt_metacastEPKc@Base 4:15.08.0
 _ZN9PimCommon28AttachmentTemporaryFilesDirs15removeTempFilesEv@Base 4:15.08.0
 _ZN9PimCommon28AttachmentTemporaryFilesDirs16staticMetaObjectE@Base 4:15.08.0
 _ZN9PimCommon28AttachmentTemporaryFilesDirs19forceCleanTempFilesEv@Base 4:15.08.0
 _ZN9PimCommon28AttachmentTemporaryFilesDirs19slotRemoveTempFilesEv@Base 4:15.08.0
 _ZN9PimCommon28AttachmentTemporaryFilesDirs21setDelayRemoveAllInMsEi@Base 4:15.08.0
 _ZN9PimCommon28AttachmentTemporaryFilesDirsC1EP7QObject@Base 4:15.08.0
 _ZN9PimCommon28AttachmentTemporaryFilesDirsC2EP7QObject@Base 4:15.08.0
 _ZN9PimCommon28AttachmentTemporaryFilesDirsD0Ev@Base 4:15.08.0
 _ZN9PimCommon28AttachmentTemporaryFilesDirsD1Ev@Base 4:15.08.0
 _ZN9PimCommon28AttachmentTemporaryFilesDirsD2Ev@Base 4:15.08.0
 _ZN9PimCommon28BalooDebugSearchPathComboBox10initializeEv@Base 4:15.08.0
 _ZN9PimCommon28BalooDebugSearchPathComboBox11qt_metacallEN11QMetaObject4CallEiPPv@Base 4:15.08.0
 _ZN9PimCommon28BalooDebugSearchPathComboBox11qt_metacastEPKc@Base 4:15.08.0
 _ZN9PimCommon28BalooDebugSearchPathComboBox13setSearchTypeENS0_10SearchTypeE@Base 4:15.08.0
 _ZN9PimCommon28BalooDebugSearchPathComboBox16staticMetaObjectE@Base 4:15.08.0
 _ZN9PimCommon28BalooDebugSearchPathComboBoxC1EP7QWidget@Base 4:15.08.0
 _ZN9PimCommon28BalooDebugSearchPathComboBoxC2EP7QWidget@Base 4:15.08.0
 _ZN9PimCommon28BalooDebugSearchPathComboBoxD0Ev@Base 4:15.08.0
 _ZN9PimCommon28BalooDebugSearchPathComboBoxD1Ev@Base 4:15.08.0
 _ZN9PimCommon28BalooDebugSearchPathComboBoxD2Ev@Base 4:15.08.0
 _ZN9PimCommon28GravatarDownloadPixmapWidget11qt_metacallEN11QMetaObject4CallEiPPv@Base 4:15.08.0
 _ZN9PimCommon28GravatarDownloadPixmapWidget11qt_metacastEPKc@Base 4:15.08.0
 _ZN9PimCommon28GravatarDownloadPixmapWidget15slotTextChangedERK7QString@Base 4:15.08.0
 _ZN9PimCommon28GravatarDownloadPixmapWidget16slotSearchButtonEv@Base 4:15.08.0
 _ZN9PimCommon28GravatarDownloadPixmapWidget16staticMetaObjectE@Base 4:15.08.0
 _ZN9PimCommon28GravatarDownloadPixmapWidget19slotResolvUrlFinishEPNS_20GravatarResolvUrlJobE@Base 4:15.08.0
 _ZN9PimCommon28GravatarDownloadPixmapWidgetC1EP7QWidget@Base 4:15.08.0
 _ZN9PimCommon28GravatarDownloadPixmapWidgetC2EP7QWidget@Base 4:15.08.0
 _ZN9PimCommon28GravatarDownloadPixmapWidgetD0Ev@Base 4:15.08.0
 _ZN9PimCommon28GravatarDownloadPixmapWidgetD1Ev@Base 4:15.08.0
 _ZN9PimCommon28GravatarDownloadPixmapWidgetD2Ev@Base 4:15.08.0
 _ZN9PimCommon28StorageServiceDownloadDialog10closeEventEP11QCloseEvent@Base 4:15.08.0
 _ZN9PimCommon28StorageServiceDownloadDialog10readConfigEv@Base 4:15.08.0
 _ZN9PimCommon28StorageServiceDownloadDialog11qt_metacallEN11QMetaObject4CallEiPPv@Base 4:15.08.0
 _ZN9PimCommon28StorageServiceDownloadDialog11qt_metacastEPKc@Base 4:15.08.0
 _ZN9PimCommon28StorageServiceDownloadDialog11writeConfigEv@Base 4:15.08.0
 _ZN9PimCommon28StorageServiceDownloadDialog12downloadItemEPNS_28StorageServiceTreeWidgetItemE@Base 4:15.08.0
 _ZN9PimCommon28StorageServiceDownloadDialog14reenableDialogEv@Base 4:15.08.0
 _ZN9PimCommon28StorageServiceDownloadDialog16slotActionFailedERK7QStringS3_@Base 4:15.08.0
 _ZN9PimCommon28StorageServiceDownloadDialog16slotDownfileDoneERK7QStringS3_@Base 4:15.08.0
 _ZN9PimCommon28StorageServiceDownloadDialog16slotDownloadFileEv@Base 4:15.08.0
 _ZN9PimCommon28StorageServiceDownloadDialog16slotUpdatePixmapERK7QPixmap@Base 4:15.08.0
 _ZN9PimCommon28StorageServiceDownloadDialog16staticMetaObjectE@Base 4:15.08.0
 _ZN9PimCommon28StorageServiceDownloadDialog17slotItemActivatedEP15QTreeWidgetItemi@Base 4:15.08.0
 _ZN9PimCommon28StorageServiceDownloadDialog18slotDownfileFailedERK7QStringS3_@Base 4:15.08.0
 _ZN9PimCommon28StorageServiceDownloadDialog18slotListFolderDoneERK7QStringRK8QVariant@Base 4:15.08.0
 _ZN9PimCommon28StorageServiceDownloadDialog21slotItemDoubleClickedEP15QTreeWidgetItemi@Base 4:15.08.0
 _ZN9PimCommon28StorageServiceDownloadDialog22setDefaultDownloadPathERK7QString@Base 4:15.08.0
 _ZN9PimCommon28StorageServiceDownloadDialog30slotUploadDownloadFileProgressERK7QStringxx@Base 4:15.08.0
 _ZN9PimCommon28StorageServiceDownloadDialogC1EPNS_22StorageServiceAbstractEP7QWidget@Base 4:15.08.0
 _ZN9PimCommon28StorageServiceDownloadDialogC2EPNS_22StorageServiceAbstractEP7QWidget@Base 4:15.08.0
 _ZN9PimCommon28StorageServiceDownloadDialogD0Ev@Base 4:15.08.0
 _ZN9PimCommon28StorageServiceDownloadDialogD1Ev@Base 4:15.08.0
 _ZN9PimCommon28StorageServiceDownloadDialogD2Ev@Base 4:15.08.0
 _ZN9PimCommon28StorageServiceProgressWidget10setServiceEPNS_22StorageServiceAbstractE@Base 4:15.08.0
 _ZN9PimCommon28StorageServiceProgressWidget11qt_metacallEN11QMetaObject4CallEiPPv@Base 4:15.08.0
 _ZN9PimCommon28StorageServiceProgressWidget11qt_metacastEPKc@Base 4:15.08.0
 _ZN9PimCommon28StorageServiceProgressWidget14slotCancelTaskEv@Base 4:15.08.0
 _ZN9PimCommon28StorageServiceProgressWidget16setBusyIndicatorEb@Base 4:15.08.0
 _ZN9PimCommon28StorageServiceProgressWidget16setProgressValueExx@Base 4:15.08.0
 _ZN9PimCommon28StorageServiceProgressWidget16staticMetaObjectE@Base 4:15.08.0
 _ZN9PimCommon28StorageServiceProgressWidget18setProgressBarTypeENS0_15ProgressBarTypeE@Base 4:15.08.0
 _ZN9PimCommon28StorageServiceProgressWidget5resetEv@Base 4:15.08.0
 _ZN9PimCommon28StorageServiceProgressWidget9hideEventEP10QHideEvent@Base 4:15.08.0
 _ZN9PimCommon28StorageServiceProgressWidgetC1EPNS_22StorageServiceAbstractEP7QWidget@Base 4:15.08.0
 _ZN9PimCommon28StorageServiceProgressWidgetC2EPNS_22StorageServiceAbstractEP7QWidget@Base 4:15.08.0
 _ZN9PimCommon28StorageServiceProgressWidgetD0Ev@Base 4:15.08.0
 _ZN9PimCommon28StorageServiceProgressWidgetD1Ev@Base 4:15.08.0
 _ZN9PimCommon28StorageServiceProgressWidgetD2Ev@Base 4:15.08.0
 _ZN9PimCommon28StorageServiceSettingsWidget10createItemERK7QStringS3_NS_21StorageServiceManager11ServiceTypeERK5QIcon@Base 4:15.08.0
 _ZN9PimCommon28StorageServiceSettingsWidget11qt_metacallEN11QMetaObject4CallEiPPv@Base 4:15.08.0
 _ZN9PimCommon28StorageServiceSettingsWidget11qt_metacastEPKc@Base 4:15.08.0
 _ZN9PimCommon28StorageServiceSettingsWidget13updateButtonsEv@Base 4:15.08.0
 _ZN9PimCommon28StorageServiceSettingsWidget14serviceRemovedERK7QString@Base 4:15.08.0
 _ZN9PimCommon28StorageServiceSettingsWidget14setListServiceERK4QMapI7QStringPNS_22StorageServiceAbstractEERK5QListINS3_10CapabilityEE@Base 4:15.08.0
 _ZN9PimCommon28StorageServiceSettingsWidget14slotAddServiceEv@Base 4:15.08.0
 _ZN9PimCommon28StorageServiceSettingsWidget15setDefaultLabelEv@Base 4:15.08.0
 _ZN9PimCommon28StorageServiceSettingsWidget16slotAuthenticateEv@Base 4:15.08.0
 _ZN9PimCommon28StorageServiceSettingsWidget16staticMetaObjectE@Base 4:15.08.0
 _ZN9PimCommon28StorageServiceSettingsWidget17defaultConnectionEPNS_22StorageServiceAbstractE@Base 4:15.08.0
 _ZN9PimCommon28StorageServiceSettingsWidget17slotModifyServiceEv@Base 4:15.08.0
 _ZN9PimCommon28StorageServiceSettingsWidget17slotRemoveServiceEv@Base 4:15.08.0
 _ZN9PimCommon28StorageServiceSettingsWidget19slotServiceSelectedEv@Base 4:15.08.0
 _ZN9PimCommon28StorageServiceSettingsWidget21slotUpdateAccountInfoERK7QStringRKNS_11AccountInfoE@Base 4:15.08.0
 _ZN9PimCommon28StorageServiceSettingsWidget22slotAuthenticationDoneERK7QString@Base 4:15.08.0
 _ZN9PimCommon28StorageServiceSettingsWidget24slotAuthenticationFailedERK7QStringS3_@Base 4:15.08.0
 _ZN9PimCommon28StorageServiceSettingsWidget27slotUpdateAccountInfoFailedERK7QStringS3_@Base 4:15.08.0
 _ZN9PimCommon28StorageServiceSettingsWidget7changedEv@Base 4:15.08.0
 _ZN9PimCommon28StorageServiceSettingsWidgetC1EP7QWidget@Base 4:15.08.0
 _ZN9PimCommon28StorageServiceSettingsWidgetC2EP7QWidget@Base 4:15.08.0
 _ZN9PimCommon28StorageServiceSettingsWidgetD0Ev@Base 4:15.08.0
 _ZN9PimCommon28StorageServiceSettingsWidgetD1Ev@Base 4:15.08.0
 _ZN9PimCommon28StorageServiceSettingsWidgetD2Ev@Base 4:15.08.0
 _ZN9PimCommon28StorageServiceTreeWidgetItem12setStoreInfoERK4QMapI7QString8QVariantE@Base 4:15.08.0
 _ZN9PimCommon28StorageServiceTreeWidgetItem14setDateCreatedERK9QDateTime@Base 4:15.08.0
 _ZN9PimCommon28StorageServiceTreeWidgetItem19setLastModificationERK9QDateTime@Base 4:15.08.0
 _ZN9PimCommon28StorageServiceTreeWidgetItem7setSizeEy@Base 4:15.08.0
 _ZN9PimCommon28StorageServiceTreeWidgetItemC1EPNS_24StorageServiceTreeWidgetE@Base 4:15.08.0
 _ZN9PimCommon28StorageServiceTreeWidgetItemC2EPNS_24StorageServiceTreeWidgetE@Base 4:15.08.0
 _ZN9PimCommon29AbstractTextToSpeechInterface11qt_metacallEN11QMetaObject4CallEiPPv@Base 4:15.08.0
 _ZN9PimCommon29AbstractTextToSpeechInterface11qt_metacastEPKc@Base 4:15.08.0
 _ZN9PimCommon29AbstractTextToSpeechInterface14reloadSettingsEv@Base 4:15.08.0
 _ZN9PimCommon29AbstractTextToSpeechInterface16staticMetaObjectE@Base 4:15.08.0
 _ZN9PimCommon29AbstractTextToSpeechInterface3sayERK7QString@Base 4:15.08.0
 _ZN9PimCommon29AbstractTextToSpeechInterface9setVolumeEi@Base 4:15.08.0
 _ZN9PimCommon29AbstractTextToSpeechInterfaceC1EP7QObject@Base 4:15.08.0
 _ZN9PimCommon29AbstractTextToSpeechInterfaceC2EP7QObject@Base 4:15.08.0
 _ZN9PimCommon29AbstractTextToSpeechInterfaceD0Ev@Base 4:15.08.0
 _ZN9PimCommon29AbstractTextToSpeechInterfaceD1Ev@Base 4:15.08.0
 _ZN9PimCommon29AbstractTextToSpeechInterfaceD2Ev@Base 4:15.08.0
 _ZN9PimCommon29ConfigureImmutableWidgetUtils10loadWidgetEP13KUrlRequesterPKN19KCoreConfigSkeleton10ItemStringE@Base 4:15.08.0
 _ZN9PimCommon29ConfigureImmutableWidgetUtils10loadWidgetEP8QSpinBoxPKN19KCoreConfigSkeleton7ItemIntE@Base 4:15.08.0
 _ZN9PimCommon29ConfigureImmutableWidgetUtils10loadWidgetEP8QSpinBoxPKN19KCoreConfigSkeleton8ItemUIntE@Base 4:15.08.0
 _ZN9PimCommon29ConfigureImmutableWidgetUtils10loadWidgetEP9QCheckBoxPKN19KCoreConfigSkeleton8ItemBoolE@Base 4:15.08.0
 _ZN9PimCommon29ConfigureImmutableWidgetUtils10loadWidgetEP9QComboBoxPKN19KCoreConfigSkeleton8ItemEnumE@Base 4:15.08.0
 _ZN9PimCommon29ConfigureImmutableWidgetUtils10loadWidgetEP9QGroupBoxP12QButtonGroupPKN19KCoreConfigSkeleton8ItemEnumE@Base 4:15.08.0
 _ZN9PimCommon29ConfigureImmutableWidgetUtils10loadWidgetEP9QGroupBoxPKN19KCoreConfigSkeleton8ItemBoolE@Base 4:15.08.0
 _ZN9PimCommon29ConfigureImmutableWidgetUtils10loadWidgetEP9QLineEditPKN19KCoreConfigSkeleton10ItemStringE@Base 4:15.08.0
 _ZN9PimCommon29ConfigureImmutableWidgetUtils10loadWidgetEPNS_22SimpleStringListEditorEPKN19KCoreConfigSkeleton14ItemStringListE@Base 4:15.08.0
 _ZN9PimCommon29ConfigureImmutableWidgetUtils11saveSpinBoxEP8QSpinBoxPN19KCoreConfigSkeleton7ItemIntE@Base 4:15.08.0
 _ZN9PimCommon29ConfigureImmutableWidgetUtils11saveSpinBoxEP8QSpinBoxPN19KCoreConfigSkeleton8ItemUIntE@Base 4:15.08.0
 _ZN9PimCommon29ConfigureImmutableWidgetUtils12saveCheckBoxEP9QCheckBoxPN19KCoreConfigSkeleton8ItemBoolE@Base 4:15.08.0
 _ZN9PimCommon29ConfigureImmutableWidgetUtils12saveComboBoxEP9QComboBoxPN19KCoreConfigSkeleton8ItemEnumE@Base 4:15.08.0
 _ZN9PimCommon29ConfigureImmutableWidgetUtils12saveGroupBoxEP9QGroupBoxPN19KCoreConfigSkeleton8ItemBoolE@Base 4:15.08.0
 _ZN9PimCommon29ConfigureImmutableWidgetUtils12saveLineEditEP9QLineEditPN19KCoreConfigSkeleton10ItemStringE@Base 4:15.08.0
 _ZN9PimCommon29ConfigureImmutableWidgetUtils13checkLockDownEP7QWidgetPK19KConfigSkeletonItem@Base 4:15.08.0
 _ZN9PimCommon29ConfigureImmutableWidgetUtils15saveButtonGroupEP12QButtonGroupPN19KCoreConfigSkeleton8ItemEnumE@Base 4:15.08.0
 _ZN9PimCommon29ConfigureImmutableWidgetUtils16populateCheckBoxEP9QCheckBoxPKN19KCoreConfigSkeleton8ItemBoolE@Base 4:15.08.0
 _ZN9PimCommon29ConfigureImmutableWidgetUtils16saveUrlRequesterEP13KUrlRequesterPN19KCoreConfigSkeleton10ItemStringE@Base 4:15.08.0
 _ZN9PimCommon29ConfigureImmutableWidgetUtils19populateButtonGroupEP9QGroupBoxP12QButtonGroupiPKN19KCoreConfigSkeleton8ItemEnumE@Base 4:15.08.0
 _ZN9PimCommon29ConfigureImmutableWidgetUtils26saveSimpleStringListEditorEPNS_22SimpleStringListEditorEPN19KCoreConfigSkeleton14ItemStringListE@Base 4:15.08.0
 _ZN9PimCommon29StorageServiceCheckNameDialog10setOldNameERK7QString@Base 4:15.08.0
 _ZN9PimCommon29StorageServiceCheckNameDialog11qt_metacallEN11QMetaObject4CallEiPPv@Base 4:15.08.0
 _ZN9PimCommon29StorageServiceCheckNameDialog11qt_metacastEPKc@Base 4:15.08.0
 _ZN9PimCommon29StorageServiceCheckNameDialog15slotNameChangedERK7QString@Base 4:15.08.0
 _ZN9PimCommon29StorageServiceCheckNameDialog16staticMetaObjectE@Base 4:15.08.0
 _ZN9PimCommon29StorageServiceCheckNameDialog20setDisallowedSymbolsERK7QRegExp@Base 4:15.08.0
 _ZN9PimCommon29StorageServiceCheckNameDialog23setDisallowedSymbolsStrERK7QString@Base 4:15.08.0
 _ZN9PimCommon29StorageServiceCheckNameDialogC1EP7QWidget@Base 4:15.08.0
 _ZN9PimCommon29StorageServiceCheckNameDialogC2EP7QWidget@Base 4:15.08.0
 _ZN9PimCommon29StorageServiceCheckNameDialogD0Ev@Base 4:15.08.0
 _ZN9PimCommon29StorageServiceCheckNameDialogD1Ev@Base 4:15.08.0
 _ZN9PimCommon29StorageServiceCheckNameDialogD2Ev@Base 4:15.08.0
 _ZN9PimCommon29StorageServiceConfigureDialog10readConfigEv@Base 4:15.08.0
 _ZN9PimCommon29StorageServiceConfigureDialog11qt_metacallEN11QMetaObject4CallEiPPv@Base 4:15.08.0
 _ZN9PimCommon29StorageServiceConfigureDialog11qt_metacastEPKc@Base 4:15.08.0
 _ZN9PimCommon29StorageServiceConfigureDialog11writeConfigEv@Base 4:15.08.0
 _ZN9PimCommon29StorageServiceConfigureDialog12loadSettingsEv@Base 4:15.08.0
 _ZN9PimCommon29StorageServiceConfigureDialog13writeSettingsEv@Base 4:15.08.0
 _ZN9PimCommon29StorageServiceConfigureDialog14addExtraWidgetEP7QWidget@Base 4:15.08.0
 _ZN9PimCommon29StorageServiceConfigureDialog14serviceRemovedERK7QString@Base 4:15.08.0
 _ZN9PimCommon29StorageServiceConfigureDialog14setListServiceERK4QMapI7QStringPNS_22StorageServiceAbstractEE@Base 4:15.08.0
 _ZN9PimCommon29StorageServiceConfigureDialog16staticMetaObjectE@Base 4:15.08.0
 _ZN9PimCommon29StorageServiceConfigureDialogC1EP7QWidget@Base 4:15.08.0
 _ZN9PimCommon29StorageServiceConfigureDialogC2EP7QWidget@Base 4:15.08.0
 _ZN9PimCommon29StorageServiceConfigureDialogD0Ev@Base 4:15.08.0
 _ZN9PimCommon29StorageServiceConfigureDialogD1Ev@Base 4:15.08.0
 _ZN9PimCommon29StorageServiceConfigureDialogD2Ev@Base 4:15.08.0
 _ZN9PimCommon29StorageServiceConfigureWidget11qt_metacallEN11QMetaObject4CallEiPPv@Base 4:15.08.0
 _ZN9PimCommon29StorageServiceConfigureWidget11qt_metacastEPKc@Base 4:15.08.0
 _ZN9PimCommon29StorageServiceConfigureWidget12loadSettingsEv@Base 4:15.08.0
 _ZN9PimCommon29StorageServiceConfigureWidget13writeSettingsEv@Base 4:15.08.0
 _ZN9PimCommon29StorageServiceConfigureWidget14serviceRemovedERK7QString@Base 4:15.08.0
 _ZN9PimCommon29StorageServiceConfigureWidget16staticMetaObjectE@Base 4:15.08.0
 _ZN9PimCommon29StorageServiceConfigureWidget7changedEv@Base 4:15.08.0
 _ZN9PimCommon29StorageServiceConfigureWidgetC1EP7QWidget@Base 4:15.08.0
 _ZN9PimCommon29StorageServiceConfigureWidgetC2EP7QWidget@Base 4:15.08.0
 _ZN9PimCommon29StorageServiceConfigureWidgetD0Ev@Base 4:15.08.0
 _ZN9PimCommon29StorageServiceConfigureWidgetD1Ev@Base 4:15.08.0
 _ZN9PimCommon29StorageServiceConfigureWidgetD2Ev@Base 4:15.08.0
 _ZN9PimCommon29StorageServiceProgressManager11addProgressEPNS_22StorageServiceAbstractENS0_12ProgressTypeE@Base 4:15.08.0
 _ZN9PimCommon29StorageServiceProgressManager11qt_metacallEN11QMetaObject4CallEiPPv@Base 4:15.08.0
 _ZN9PimCommon29StorageServiceProgressManager11qt_metacastEPKc@Base 4:15.08.0
 _ZN9PimCommon29StorageServiceProgressManager16slotActionFailedERK7QStringS3_@Base 4:15.08.0
 _ZN9PimCommon29StorageServiceProgressManager16staticMetaObjectE@Base 4:15.08.0
 _ZN9PimCommon29StorageServiceProgressManager17progressTypeValueEv@Base 4:15.08.0
 _ZN9PimCommon29StorageServiceProgressManager18slotUploadFileDoneERK7QStringS3_@Base 4:15.08.0
 _ZN9PimCommon29StorageServiceProgressManager20slotDownloadFileDoneERK7QStringS3_@Base 4:15.08.0
 _ZN9PimCommon29StorageServiceProgressManager20slotUploadFileFailedERK7QStringS3_@Base 4:15.08.0
 _ZN9PimCommon29StorageServiceProgressManager22slotDownloadFileFailedERK7QStringS3_@Base 4:15.08.0
 _ZN9PimCommon29StorageServiceProgressManager24slotDownloadFileProgressERK7QStringxx@Base 4:15.08.0
 _ZN9PimCommon29StorageServiceProgressManager24slotProgressItemCanceledEPN4KPIM12ProgressItemE@Base 4:15.08.0
 _ZN9PimCommon29StorageServiceProgressManager4selfEv@Base 4:15.08.0
 _ZN9PimCommon29StorageServiceProgressManagerC1EP7QObject@Base 4:15.08.0
 _ZN9PimCommon29StorageServiceProgressManagerC2EP7QObject@Base 4:15.08.0
 _ZN9PimCommon29StorageServiceProgressManagerD0Ev@Base 4:15.08.0
 _ZN9PimCommon29StorageServiceProgressManagerD1Ev@Base 4:15.08.0
 _ZN9PimCommon29StorageServiceProgressManagerD2Ev@Base 4:15.08.0
 _ZN9PimCommon30RichTextEditWithAutoCorrection11qt_metacallEN11QMetaObject4CallEiPPv@Base 4:15.08.0
 _ZN9PimCommon30RichTextEditWithAutoCorrection11qt_metacastEPKc@Base 4:15.08.0
 _ZN9PimCommon30RichTextEditWithAutoCorrection13keyPressEventEP9QKeyEvent@Base 4:15.08.0
 _ZN9PimCommon30RichTextEditWithAutoCorrection16staticMetaObjectE@Base 4:15.08.0
 _ZN9PimCommon30RichTextEditWithAutoCorrection17setAutocorrectionEPNS_14AutoCorrectionE@Base 4:15.08.0
 _ZN9PimCommon30RichTextEditWithAutoCorrection25setAutocorrectionLanguageERK7QString@Base 4:15.08.0
 _ZN9PimCommon30RichTextEditWithAutoCorrectionC1EP7QWidget@Base 4:15.08.0
 _ZN9PimCommon30RichTextEditWithAutoCorrectionC2EP7QWidget@Base 4:15.08.0
 _ZN9PimCommon30RichTextEditWithAutoCorrectionD0Ev@Base 4:15.08.0
 _ZN9PimCommon30RichTextEditWithAutoCorrectionD1Ev@Base 4:15.08.0
 _ZN9PimCommon30RichTextEditWithAutoCorrectionD2Ev@Base 4:15.08.0
 _ZN9PimCommon31ImapResourceCapabilitiesManager11qt_metacallEN11QMetaObject4CallEiPPv@Base 4:15.08.0
 _ZN9PimCommon31ImapResourceCapabilitiesManager11qt_metacastEPKc@Base 4:15.08.0
 _ZN9PimCommon31ImapResourceCapabilitiesManager16slotCapabilitiesEP23QDBusPendingCallWatcher@Base 4:15.08.0
 _ZN9PimCommon31ImapResourceCapabilitiesManager16staticMetaObjectE@Base 4:15.08.0
 _ZN9PimCommon31ImapResourceCapabilitiesManager17slotInstanceAddedERKN7Akonadi13AgentInstanceE@Base 4:15.08.0
 _ZN9PimCommon31ImapResourceCapabilitiesManager18searchCapabilitiesERK7QString@Base 4:15.08.0
 _ZN9PimCommon31ImapResourceCapabilitiesManager19slotInstanceRemovedERKN7Akonadi13AgentInstanceE@Base 4:15.08.0
 _ZN9PimCommon31ImapResourceCapabilitiesManager4initEv@Base 4:15.08.0
 _ZN9PimCommon31ImapResourceCapabilitiesManagerC1EP7QObject@Base 4:15.08.0
 _ZN9PimCommon31ImapResourceCapabilitiesManagerC2EP7QObject@Base 4:15.08.0
 _ZN9PimCommon31ImapResourceCapabilitiesManagerD0Ev@Base 4:15.08.0
 _ZN9PimCommon31ImapResourceCapabilitiesManagerD1Ev@Base 4:15.08.0
 _ZN9PimCommon31ImapResourceCapabilitiesManagerD2Ev@Base 4:15.08.0
 _ZN9PimCommon31ManageServerSideSubscriptionJob11qt_metacallEN11QMetaObject4CallEiPPv@Base 4:15.08.0
 _ZN9PimCommon31ManageServerSideSubscriptionJob11qt_metacastEPKc@Base 4:15.08.0
 _ZN9PimCommon31ManageServerSideSubscriptionJob15setParentWidgetEP7QWidget@Base 4:15.08.0
 _ZN9PimCommon31ManageServerSideSubscriptionJob16staticMetaObjectE@Base 4:15.08.0
 _ZN9PimCommon31ManageServerSideSubscriptionJob20setCurrentCollectionERKN7Akonadi10CollectionE@Base 4:15.08.0
 _ZN9PimCommon31ManageServerSideSubscriptionJob33slotConfigureSubscriptionFinishedEP23QDBusPendingCallWatcher@Base 4:15.08.0
 _ZN9PimCommon31ManageServerSideSubscriptionJob5startEv@Base 4:15.08.0
 _ZN9PimCommon31ManageServerSideSubscriptionJobC1EP7QObject@Base 4:15.08.0
 _ZN9PimCommon31ManageServerSideSubscriptionJobC2EP7QObject@Base 4:15.08.0
 _ZN9PimCommon31ManageServerSideSubscriptionJobD0Ev@Base 4:15.08.0
 _ZN9PimCommon31ManageServerSideSubscriptionJobD1Ev@Base 4:15.08.0
 _ZN9PimCommon31ManageServerSideSubscriptionJobD2Ev@Base 4:15.08.0
 _ZN9PimCommon31StorageServiceProgressIndicator11qt_metacallEN11QMetaObject4CallEiPPv@Base 4:15.08.0
 _ZN9PimCommon31StorageServiceProgressIndicator11qt_metacastEPKc@Base 4:15.08.0
 _ZN9PimCommon31StorageServiceProgressIndicator12updatePixmapERK7QPixmap@Base 4:15.08.0
 _ZN9PimCommon31StorageServiceProgressIndicator13slotTimerDoneEv@Base 4:15.08.0
 _ZN9PimCommon31StorageServiceProgressIndicator13stopAnimationEv@Base 4:15.08.0
 _ZN9PimCommon31StorageServiceProgressIndicator14startAnimationEv@Base 4:15.08.0
 _ZN9PimCommon31StorageServiceProgressIndicator16staticMetaObjectE@Base 4:15.08.0
 _ZN9PimCommon31StorageServiceProgressIndicatorC1EP7QObject@Base 4:15.08.0
 _ZN9PimCommon31StorageServiceProgressIndicatorC2EP7QObject@Base 4:15.08.0
 _ZN9PimCommon31StorageServiceProgressIndicatorD0Ev@Base 4:15.08.0
 _ZN9PimCommon31StorageServiceProgressIndicatorD1Ev@Base 4:15.08.0
 _ZN9PimCommon31StorageServiceProgressIndicatorD2Ev@Base 4:15.08.0
 _ZN9PimCommon35AbstractTextToSpeechConfigInterface11qt_metacallEN11QMetaObject4CallEiPPv@Base 4:15.08.0
 _ZN9PimCommon35AbstractTextToSpeechConfigInterface11qt_metacastEPKc@Base 4:15.08.0
 _ZN9PimCommon35AbstractTextToSpeechConfigInterface16staticMetaObjectE@Base 4:15.08.0
 _ZN9PimCommon35AbstractTextToSpeechConfigInterface9setLocaleERK7QLocale@Base 4:15.08.0
 _ZN9PimCommon35AbstractTextToSpeechConfigInterfaceC1EP7QObject@Base 4:15.08.0
 _ZN9PimCommon35AbstractTextToSpeechConfigInterfaceC2EP7QObject@Base 4:15.08.0
 _ZN9PimCommon35AbstractTextToSpeechConfigInterfaceD0Ev@Base 4:15.08.0
 _ZN9PimCommon35AbstractTextToSpeechConfigInterfaceD1Ev@Base 4:15.08.0
 _ZN9PimCommon35AbstractTextToSpeechConfigInterfaceD2Ev@Base 4:15.08.0
 _ZN9PimCommon39PlainTextSyntaxSpellCheckingHighlighter13setMisspelledEii@Base 4:15.08.0
 _ZN9PimCommon39PlainTextSyntaxSpellCheckingHighlighter14highlightBlockERK7QString@Base 4:15.08.0
 _ZN9PimCommon39PlainTextSyntaxSpellCheckingHighlighter15spellCheckBlockERK7QString@Base 4:15.08.0
 _ZN9PimCommon39PlainTextSyntaxSpellCheckingHighlighter15unsetMisspelledEii@Base 4:15.08.0
 _ZN9PimCommon39PlainTextSyntaxSpellCheckingHighlighter23toggleSpellHighlightingEb@Base 4:15.08.0
 _ZN9PimCommon39PlainTextSyntaxSpellCheckingHighlighter25setSyntaxHighlighterRulesERK7QVectorIN12KPIMTextEdit4RuleEE@Base 4:15.08.0
 _ZN9PimCommon39PlainTextSyntaxSpellCheckingHighlighterC1EPNS_15PlainTextEditorERK6QColor@Base 4:15.08.0
 _ZN9PimCommon39PlainTextSyntaxSpellCheckingHighlighterC2EPNS_15PlainTextEditorERK6QColor@Base 4:15.08.0
 _ZN9PimCommon39PlainTextSyntaxSpellCheckingHighlighterD0Ev@Base 4:15.08.0
 _ZN9PimCommon39PlainTextSyntaxSpellCheckingHighlighterD1Ev@Base 4:15.08.0
 _ZN9PimCommon39PlainTextSyntaxSpellCheckingHighlighterD2Ev@Base 4:15.08.0
 _ZN9PimCommon4Util10loadToFileERK7QStringP7QWidgetRK4QUrlS3_@Base 4:15.08.0
 _ZN9PimCommon4Util10saveTextAsERK7QStringS3_P7QWidgetRK4QUrlS3_@Base 4:15.08.0
 _ZN9PimCommon4Util10saveToFileERK7QStringS3_@Base 4:15.08.0
 _ZN9PimCommon4Util12isImapFolderERKN7Akonadi10CollectionERb@Base 4:15.08.0
 _ZN9PimCommon4Util14isImapResourceERK7QString@Base 4:15.08.0
 _ZN9PimCommon4Util27createImapSettingsInterfaceERK7QString@Base 4:15.08.0
 _ZN9PimCommon9VCardUtil10adaptVcardER10QByteArray@Base 4:15.08.0
 _ZN9PimCommon9VCardUtilC1Ev@Base 4:15.08.0
 _ZN9PimCommon9VCardUtilC2Ev@Base 4:15.08.0
 (optional=templinst)_ZNK12KConfigGroup9readEntryI10QByteArrayEET_PKcRKS2_@Base 4:15.08.0
 (optional=templinst)_ZNK12KConfigGroup9readEntryI5QSizeEET_PKcRKS2_@Base 4:15.08.0
 (optional=templinst)_ZNK12KConfigGroup9readEntryIbEET_PKcRKS1_@Base 4:15.08.0
 (optional=templinst)_ZNK12KConfigGroup9readEntryIiEE5QListIT_EPKcRKS3_@Base 4:15.08.0
 (optional=templinst)_ZNK12KConfigGroup9readEntryIiEET_PKcRKS1_@Base 4:15.08.0
 _ZNK9PimCommon10AclManager10collectionEv@Base 4:15.08.0
 _ZNK9PimCommon10AclManager10editActionEv@Base 4:15.08.0
 _ZNK9PimCommon10AclManager10metaObjectEv@Base 4:15.08.0
 _ZNK9PimCommon10AclManager12deleteActionEv@Base 4:15.08.0
 _ZNK9PimCommon10AclManager14selectionModelEv@Base 4:15.08.0
 _ZNK9PimCommon10AclManager5modelEv@Base 4:15.08.0
 _ZNK9PimCommon10AclManager9addActionEv@Base 4:15.08.0
 _ZNK9PimCommon11AclListView10metaObjectEv@Base 4:15.08.0
 _ZNK9PimCommon11NetworkUtil12lowBandwidthEv@Base 4:15.08.0
 _ZNK9PimCommon12TextToSpeech10metaObjectEv@Base 4:15.08.0
 _ZNK9PimCommon12TextToSpeech16availableLocalesEv@Base 4:15.08.0
 _ZNK9PimCommon12TextToSpeech6localeEv@Base 4:15.08.0
 _ZNK9PimCommon12TextToSpeech6volumeEv@Base 4:15.08.0
 _ZNK9PimCommon12TextToSpeech7isReadyEv@Base 4:15.08.0
 _ZNK9PimCommon12TextToSpeech9setLocaleERK7QLocale@Base 4:15.08.0
 _ZNK9PimCommon13GravatarCache10metaObjectEv@Base 4:15.08.0
 _ZNK9PimCommon13GravatarCache11maximumSizeEv@Base 4:15.08.0
 _ZNK9PimCommon14AutoCorrection13autoDetectURLERK7QString@Base 4:15.08.0
 _ZNK9PimCommon14AutoCorrection13isSuperScriptEv@Base 4:15.08.0
 _ZNK9PimCommon14AutoCorrection14isSingleSpacesEv@Base 4:15.08.0
 _ZNK9PimCommon14AutoCorrection15isAutoFormatUrlEv@Base 4:15.08.0
 _ZNK9PimCommon14AutoCorrection15isAutoFractionsEv@Base 4:15.08.0
 _ZNK9PimCommon14AutoCorrection16isFrenchLanguageEv@Base 4:15.08.0
 _ZNK9PimCommon14AutoCorrection18autocorrectEntriesEv@Base 4:15.08.0
 _ZNK9PimCommon14AutoCorrection18excludeToUppercaseERK7QString@Base 4:15.08.0
 _ZNK9PimCommon14AutoCorrection19isAutoBoldUnderlineEv@Base 4:15.08.0
 _ZNK9PimCommon14AutoCorrection19upperCaseExceptionsEv@Base 4:15.08.0
 _ZNK9PimCommon14AutoCorrection20isCapitalizeWeekDaysEv@Base 4:15.08.0
 _ZNK9PimCommon14AutoCorrection21isAddNonBreakingSpaceEv@Base 4:15.08.0
 _ZNK9PimCommon14AutoCorrection21isAdvancedAutocorrectEv@Base 4:15.08.0
 _ZNK9PimCommon14AutoCorrection21isReplaceDoubleQuotesEv@Base 4:15.08.0
 _ZNK9PimCommon14AutoCorrection21isReplaceSingleQuotesEv@Base 4:15.08.0
 _ZNK9PimCommon14AutoCorrection22isFixTwoUppercaseCharsEv@Base 4:15.08.0
 _ZNK9PimCommon14AutoCorrection23isEnabledAutoCorrectionEv@Base 4:15.08.0
 _ZNK9PimCommon14AutoCorrection23typographicDoubleQuotesEv@Base 4:15.08.0
 _ZNK9PimCommon14AutoCorrection23typographicSingleQuotesEv@Base 4:15.08.0
 _ZNK9PimCommon14AutoCorrection24twoUpperLetterExceptionsEv@Base 4:15.08.0
 _ZNK9PimCommon14AutoCorrection30isUppercaseFirstCharOfSentenceEv@Base 4:15.08.0
 _ZNK9PimCommon14AutoCorrection30typographicDefaultDoubleQuotesEv@Base 4:15.08.0
 _ZNK9PimCommon14AutoCorrection30typographicDefaultSingleQuotesEv@Base 4:15.08.0
 _ZNK9PimCommon14AutoCorrection8languageEv@Base 4:15.08.0
 _ZNK9PimCommon14CreateResource10metaObjectEv@Base 4:15.08.0
 _ZNK9PimCommon14CustomTextEdit10configNameEv@Base 4:15.08.0
 _ZNK9PimCommon14CustomTextEdit10metaObjectEv@Base 4:15.08.0
 _ZNK9PimCommon14CustomTreeView10metaObjectEv@Base 4:15.08.0
 _ZNK9PimCommon14CustomTreeView15showDefaultTextEv@Base 4:15.08.0
 _ZNK9PimCommon14RichTextEditor10metaObjectEv@Base 4:15.08.0
 _ZNK9PimCommon14RichTextEditor11highlighterEv@Base 4:15.08.0
 _ZNK9PimCommon14RichTextEditor13searchSupportEv@Base 4:15.08.0
 _ZNK9PimCommon14RichTextEditor15allowTabSupportEv@Base 4:15.08.0
 _ZNK9PimCommon14RichTextEditor18webShortcutSupportEv@Base 4:15.08.0
 _ZNK9PimCommon14RichTextEditor19textToSpeechSupportEv@Base 4:15.08.0
 _ZNK9PimCommon14RichTextEditor20activateLanguageMenuEv@Base 4:15.08.0
 _ZNK9PimCommon14RichTextEditor20checkSpellingEnabledEv@Base 4:15.08.0
 _ZNK9PimCommon14RichTextEditor20spellCheckingSupportEv@Base 4:15.08.0
 _ZNK9PimCommon14RichTextEditor21showAutoCorrectButtonEv@Base 4:15.08.0
 _ZNK9PimCommon14RichTextEditor21spellCheckingLanguageEv@Base 4:15.08.0
 _ZNK9PimCommon14RichTextEditor27spellCheckingConfigFileNameEv@Base 4:15.08.0
 _ZNK9PimCommon14ShortUrlWidget10metaObjectEv@Base 4:15.08.0
 _ZNK9PimCommon14SlideContainer10metaObjectEv@Base 4:15.08.0
 _ZNK9PimCommon14SlideContainer11slideHeightEv@Base 4:15.08.0
 _ZNK9PimCommon14SlideContainer15minimumSizeHintEv@Base 4:15.08.0
 _ZNK9PimCommon14SlideContainer7contentEv@Base 4:15.08.0
 _ZNK9PimCommon14SlideContainer8sizeHintEv@Base 4:15.08.0
 _ZNK9PimCommon15MigrateFileInfo12filePatternsEv@Base 4:15.08.0
 _ZNK9PimCommon15MigrateFileInfo4pathEv@Base 4:15.08.0
 _ZNK9PimCommon15MigrateFileInfo4typeEv@Base 4:15.08.0
 _ZNK9PimCommon15MigrateFileInfo6folderEv@Base 4:15.08.0
 _ZNK9PimCommon15MigrateFileInfo7isValidEv@Base 4:15.08.0
 _ZNK9PimCommon15MigrateFileInfo7versionEv@Base 4:15.08.0
 _ZNK9PimCommon15MinimumComboBox10metaObjectEv@Base 4:15.08.0
 _ZNK9PimCommon15MinimumComboBox15minimumSizeHintEv@Base 4:15.08.0
 _ZNK9PimCommon15PlainTextEditor10metaObjectEv@Base 4:15.08.0
 _ZNK9PimCommon15PlainTextEditor11highlighterEv@Base 4:15.08.0
 _ZNK9PimCommon15PlainTextEditor13searchSupportEv@Base 4:15.08.0
 _ZNK9PimCommon15PlainTextEditor18webShortcutSupportEv@Base 4:15.08.0
 _ZNK9PimCommon15PlainTextEditor19textToSpeechSupportEv@Base 4:15.08.0
 _ZNK9PimCommon15PlainTextEditor20activateLanguageMenuEv@Base 4:15.08.0
 _ZNK9PimCommon15PlainTextEditor20checkSpellingEnabledEv@Base 4:15.08.0
 _ZNK9PimCommon15PlainTextEditor20spellCheckingSupportEv@Base 4:15.08.0
 _ZNK9PimCommon15PlainTextEditor21spellCheckingLanguageEv@Base 4:15.08.0
 _ZNK9PimCommon15PlainTextEditor27spellCheckingConfigFileNameEv@Base 4:15.08.0
 _ZNK9PimCommon15TemplateManager10metaObjectEv@Base 4:15.08.0
 _ZNK9PimCommon15TestSettingsJob10hubicScopeEv@Base 4:15.08.0
 _ZNK9PimCommon15TestSettingsJob11boxClientIdEv@Base 4:15.08.0
 _ZNK9PimCommon15TestSettingsJob13hubicClientIdEv@Base 4:15.08.0
 _ZNK9PimCommon15TestSettingsJob14gdriveClientIdEv@Base 4:15.08.0
 _ZNK9PimCommon15TestSettingsJob15boxClientSecretEv@Base 4:15.08.0
 _ZNK9PimCommon15TestSettingsJob15dropboxRootPathEv@Base 4:15.08.0
 _ZNK9PimCommon15TestSettingsJob15youSendItApiKeyEv@Base 4:15.08.0
 _ZNK9PimCommon15TestSettingsJob17hubicClientSecretEv@Base 4:15.08.0
 _ZNK9PimCommon15TestSettingsJob17oauth2RedirectUrlEv@Base 4:15.08.0
 _ZNK9PimCommon15TestSettingsJob18gdriveClientSecretEv@Base 4:15.08.0
 _ZNK9PimCommon15TestSettingsJob18ubuntuOneTokenNameEv@Base 4:15.08.0
 _ZNK9PimCommon15TestSettingsJob19defaultUploadFolderEv@Base 4:15.08.0
 _ZNK9PimCommon15TestSettingsJob21dropboxOauthSignatureEv@Base 4:15.08.0
 _ZNK9PimCommon15TestSettingsJob23dropboxOauthConsumerKeyEv@Base 4:15.08.0
 _ZNK9PimCommon15TestSettingsJob25ubuntuOneAttachmentVolumeEv@Base 4:15.08.0
 _ZNK9PimCommon16AbstractShortUrl10metaObjectEv@Base 4:15.08.0
 _ZNK9PimCommon16BalooDebugDialog10metaObjectEv@Base 4:15.08.0
 _ZNK9PimCommon16BalooDebugWidget10metaObjectEv@Base 4:15.08.0
 _ZNK9PimCommon16BalooDebugWidget9plainTextEv@Base 4:15.08.0
 _ZNK9PimCommon16ImapAclAttribute10serializedEv@Base 4:15.08.0
 _ZNK9PimCommon16ImapAclAttribute4typeEv@Base 4:15.08.0
 _ZNK9PimCommon16ImapAclAttribute5cloneEv@Base 4:15.08.0
 _ZNK9PimCommon16ImapAclAttribute6rightsEv@Base 4:15.08.0
 _ZNK9PimCommon16ImapAclAttribute8myRightsEv@Base 4:15.08.0
 _ZNK9PimCommon16ImapAclAttribute9oldRightsEv@Base 4:15.08.0
 _ZNK9PimCommon16ImapAclAttributeeqERKS0_@Base 4:15.08.0
 _ZNK9PimCommon16RenameFileDialog10metaObjectEv@Base 4:15.08.0
 _ZNK9PimCommon16RenameFileDialog7newNameEv@Base 4:15.08.0
 _ZNK9PimCommon16TranslatorWidget10metaObjectEv@Base 4:15.08.0
 _ZNK9PimCommon17BoxStorageService10metaObjectEv@Base 4:15.08.0
 _ZNK9PimCommon17BoxStorageService12capabilitiesEv@Base 4:15.08.0
 _ZNK9PimCommon17BoxStorageService16hasValidSettingsEv@Base 4:15.08.0
 _ZNK9PimCommon17BoxStorageService17disallowedSymbolsEv@Base 4:15.08.0
 _ZNK9PimCommon17BoxStorageService18storageServiceNameEv@Base 4:15.08.0
 _ZNK9PimCommon17BoxStorageService20disallowedSymbolsStrEv@Base 4:15.08.0
 _ZNK9PimCommon17BoxStorageService4iconEv@Base 4:15.08.0
 _ZNK9PimCommon17CollectionAclPage10metaObjectEv@Base 4:15.08.0
 _ZNK9PimCommon17CollectionAclPage9canHandleERKN7Akonadi10CollectionE@Base 4:15.08.0
 _ZNK9PimCommon17CustomToolsWidget10metaObjectEv@Base 4:15.08.0
 _ZNK9PimCommon17CustomToolsWidget14shortUrlWidgetEv@Base 4:15.08.0
 _ZNK9PimCommon17CustomToolsWidget16translatorWidgetEv@Base 4:15.08.0
 _ZNK9PimCommon17CustomToolsWidget8toolTypeEv@Base 4:15.08.0
 _ZNK9PimCommon17PimCommonSettings10metaObjectEv@Base 4:15.08.0
 _ZNK9PimCommon18SpellCheckLineEdit10metaObjectEv@Base 4:15.08.0
 _ZNK9PimCommon18SpellCheckLineEdit15minimumSizeHintEv@Base 4:15.08.0
 _ZNK9PimCommon18SpellCheckLineEdit8sizeHintEv@Base 4:15.08.0
 _ZNK9PimCommon18TemplateListWidget10metaObjectEv@Base 4:15.08.0
 _ZNK9PimCommon18TemplateListWidget8mimeDataE5QListIP15QListWidgetItemE@Base 4:15.08.0
 _ZNK9PimCommon18TemplateListWidget9mimeTypesEv@Base 4:15.08.0
 _ZNK9PimCommon18TextGoToLineWidget10metaObjectEv@Base 4:15.08.0
 _ZNK9PimCommon18TextToSpeechWidget10metaObjectEv@Base 4:15.08.0
 _ZNK9PimCommon18TextToSpeechWidget5stateEv@Base 4:15.08.0
 _ZNK9PimCommon18TextToSpeechWidget7isReadyEv@Base 4:15.08.0
 _ZNK9PimCommon18TranslatorTextEdit10metaObjectEv@Base 4:15.08.0
 _ZNK9PimCommon19HubicStorageService10metaObjectEv@Base 4:15.08.0
 _ZNK9PimCommon19HubicStorageService12capabilitiesEv@Base 4:15.08.0
 _ZNK9PimCommon19HubicStorageService16hasValidSettingsEv@Base 4:15.08.0
 _ZNK9PimCommon19HubicStorageService18storageServiceNameEv@Base 4:15.08.0
 _ZNK9PimCommon19HubicStorageService4iconEv@Base 4:15.08.0
 _ZNK9PimCommon19ManageAccountWidget10metaObjectEv@Base 4:15.08.0
 _ZNK9PimCommon19ManageAccountWidget14mimeTypeFilterEv@Base 4:15.08.0
 _ZNK9PimCommon19ManageAccountWidget16capabilityFilterEv@Base 4:15.08.0
 _ZNK9PimCommon19ManageAccountWidget19excludeCapabilitiesEv@Base 4:15.08.0
 _ZNK9PimCommon19ManageAccountWidget4viewEv@Base 4:15.08.0
 _ZNK9PimCommon19RichTextEditFindBar10metaObjectEv@Base 4:15.08.0
 _ZNK9PimCommon19RichTextEditFindBar14viewIsReadOnlyEv@Base 4:15.08.0
 _ZNK9PimCommon19RichTextEditFindBar15documentIsEmptyEv@Base 4:15.08.0
 _ZNK9PimCommon19TextEditFindBarBase10metaObjectEv@Base 4:15.08.0
 _ZNK9PimCommon19TextEditFindBarBase4textEv@Base 4:15.08.0
 _ZNK9PimCommon19TextToSpeechActions10metaObjectEv@Base 4:15.08.0
 _ZNK9PimCommon19TextToSpeechActions10stopActionEv@Base 4:15.08.0
 _ZNK9PimCommon19TextToSpeechActions15playPauseActionEv@Base 4:15.08.0
 _ZNK9PimCommon19TextToSpeechActions5stateEv@Base 4:15.08.0
 _ZNK9PimCommon20AnnotationEditDialog10metaObjectEv@Base 4:15.08.0
 _ZNK9PimCommon20AutoCorrectionWidget10metaObjectEv@Base 4:15.08.0
 _ZNK9PimCommon20GDriveStorageService10metaObjectEv@Base 4:15.08.0
 _ZNK9PimCommon20GDriveStorageService12capabilitiesEv@Base 4:15.08.0
 _ZNK9PimCommon20GDriveStorageService16hasCancelSupportEv@Base 4:15.08.0
 _ZNK9PimCommon20GDriveStorageService16hasValidSettingsEv@Base 4:15.08.0
 _ZNK9PimCommon20GDriveStorageService18needToRefreshTokenEv@Base 4:15.08.0
 _ZNK9PimCommon20GDriveStorageService18storageServiceNameEv@Base 4:15.08.0
 _ZNK9PimCommon20GDriveStorageService4iconEv@Base 4:15.08.0
 _ZNK9PimCommon20GravatarResolvUrlJob10metaObjectEv@Base 4:15.08.0
 _ZNK9PimCommon20GravatarResolvUrlJob11hasGravatarEv@Base 4:15.08.0
 _ZNK9PimCommon20GravatarResolvUrlJob13useLibravatarEv@Base 4:15.08.0
 _ZNK9PimCommon20GravatarResolvUrlJob14calculatedHashEv@Base 4:15.08.0
 _ZNK9PimCommon20GravatarResolvUrlJob16fallbackGravatarEv@Base 4:15.08.0
 _ZNK9PimCommon20GravatarResolvUrlJob16useDefaultPixmapEv@Base 4:15.08.0
 _ZNK9PimCommon20GravatarResolvUrlJob4sizeEv@Base 4:15.08.0
 _ZNK9PimCommon20GravatarResolvUrlJob5emailEv@Base 4:15.08.0
 _ZNK9PimCommon20GravatarResolvUrlJob6pixmapEv@Base 4:15.08.0
 _ZNK9PimCommon20GravatarResolvUrlJob8canStartEv@Base 4:15.08.0
 _ZNK9PimCommon20GravatarResolvUrlJob8useCacheEv@Base 4:15.08.0
 _ZNK9PimCommon20GravatarResolvUrlJob8useHttpsEv@Base 4:15.08.0
 _ZNK9PimCommon20PlainTextEditFindBar10metaObjectEv@Base 4:15.08.0
 _ZNK9PimCommon20PlainTextEditFindBar14viewIsReadOnlyEv@Base 4:15.08.0
 _ZNK9PimCommon20PlainTextEditFindBar15documentIsEmptyEv@Base 4:15.08.0
 _ZNK9PimCommon20RichTextEditorWidget10isReadOnlyEv@Base 4:15.08.0
 _ZNK9PimCommon20RichTextEditorWidget10metaObjectEv@Base 4:15.08.0
 _ZNK9PimCommon20RichTextEditorWidget11toPlainTextEv@Base 4:15.08.0
 _ZNK9PimCommon20RichTextEditorWidget14acceptRichTextEv@Base 4:15.08.0
 _ZNK9PimCommon20RichTextEditorWidget6editorEv@Base 4:15.08.0
 _ZNK9PimCommon20RichTextEditorWidget6toHtmlEv@Base 4:15.08.0
 _ZNK9PimCommon20TextMessageIndicator15computeTextRectERK7QStringi@Base 4:15.08.0
 _ZNK9PimCommon20WebDavStorageService10metaObjectEv@Base 4:15.08.0
 _ZNK9PimCommon20WebDavStorageService12capabilitiesEv@Base 4:15.08.0
 _ZNK9PimCommon20WebDavStorageService16hasValidSettingsEv@Base 4:15.08.0
 _ZNK9PimCommon20WebDavStorageService18storageServiceNameEv@Base 4:15.08.0
 _ZNK9PimCommon20WebDavStorageService4iconEv@Base 4:15.08.0
 _ZNK9PimCommon21DropBoxStorageService10metaObjectEv@Base 4:15.08.0
 _ZNK9PimCommon21DropBoxStorageService12capabilitiesEv@Base 4:15.08.0
 _ZNK9PimCommon21DropBoxStorageService16hasValidSettingsEv@Base 4:15.08.0
 _ZNK9PimCommon21DropBoxStorageService17disallowedSymbolsEv@Base 4:15.08.0
 _ZNK9PimCommon21DropBoxStorageService18storageServiceNameEv@Base 4:15.08.0
 _ZNK9PimCommon21DropBoxStorageService20disallowedSymbolsStrEv@Base 4:15.08.0
 _ZNK9PimCommon21DropBoxStorageService21maximumUploadFileSizeEv@Base 4:15.08.0
 _ZNK9PimCommon21DropBoxStorageService4iconEv@Base 4:15.08.0
 _ZNK9PimCommon21EmailAddressRequester10metaObjectEv@Base 4:15.08.0
 _ZNK9PimCommon21EmailAddressRequester4textEv@Base 4:15.08.0
 _ZNK9PimCommon21EmailAddressRequester8lineEditEv@Base 4:15.08.0
 _ZNK9PimCommon21KActionMenuChangeCase10metaObjectEv@Base 4:15.08.0
 _ZNK9PimCommon21KActionMenuChangeCase15lowerCaseActionEv@Base 4:15.08.0
 _ZNK9PimCommon21KActionMenuChangeCase15upperCaseActionEv@Base 4:15.08.0
 _ZNK9PimCommon21KActionMenuChangeCase17reverseCaseActionEv@Base 4:15.08.0
 _ZNK9PimCommon21KActionMenuChangeCase18sentenceCaseActionEv@Base 4:15.08.0
 _ZNK9PimCommon21LineEditWithCompleter10metaObjectEv@Base 4:15.08.0
 _ZNK9PimCommon21PlainTextEditorWidget10isReadOnlyEv@Base 4:15.08.0
 _ZNK9PimCommon21PlainTextEditorWidget10metaObjectEv@Base 4:15.08.0
 _ZNK9PimCommon21PlainTextEditorWidget11toPlainTextEv@Base 4:15.08.0
 _ZNK9PimCommon21PlainTextEditorWidget6editorEv@Base 4:15.08.0
 _ZNK9PimCommon21StorageServiceManager10metaObjectEv@Base 4:15.08.0
 _ZNK9PimCommon21StorageServiceManager11listServiceEv@Base 4:15.08.0
 _ZNK9PimCommon21StorageServiceManager13ourIdentifierEv@Base 4:15.08.0
 _ZNK9PimCommon21StorageServiceManager18menuUploadServicesEP7QWidget@Base 4:15.08.0
 _ZNK9PimCommon21StorageServiceManager18menuWithCapabilityENS_22StorageServiceAbstract10CapabilityERK5QListIS2_EP7QWidget@Base 4:15.08.0
 _ZNK9PimCommon21StorageServiceManager19defaultUploadFolderEv@Base 4:15.08.0
 _ZNK9PimCommon21StorageServiceManager20menuDownloadServicesEP7QWidget@Base 4:15.08.0
 _ZNK9PimCommon21StorageServiceManager21menuShareLinkServicesEP7QWidget@Base 4:15.08.0
 _ZNK9PimCommon21TextToSpeechInterface10metaObjectEv@Base 4:15.08.0
 _ZNK9PimCommon21TextToSpeechInterface6volumeEv@Base 4:15.08.0
 _ZNK9PimCommon21TextToSpeechInterface7isReadyEv@Base 4:15.08.0
 _ZNK9PimCommon22AutoCorrectionLanguage8languageEv@Base 4:15.08.0
 _ZNK9PimCommon22ShareServiceUrlManager10metaObjectEv@Base 4:15.08.0
 _ZNK9PimCommon22ShareServiceUrlManager4menuEv@Base 4:15.08.0
 _ZNK9PimCommon22SieveSyntaxHighlighter10metaObjectEv@Base 4:15.08.0
 _ZNK9PimCommon22SimpleStringListEditor10metaObjectEv@Base 4:15.08.0
 _ZNK9PimCommon22SimpleStringListEditor10stringListEv@Base 4:15.08.0
 _ZNK9PimCommon22SimpleStringListEditor13selectedItemsEv@Base 4:15.08.0
 _ZNK9PimCommon22SimpleStringListEditor8sizeHintEv@Base 4:15.08.0
 _ZNK9PimCommon22StorageServiceAbstract10metaObjectEv@Base 4:15.08.0
 _ZNK9PimCommon22StorageServiceAbstract12isInProgressEv@Base 4:15.08.0
 _ZNK9PimCommon22StorageServiceAbstract16hasCancelSupportEv@Base 4:15.08.0
 _ZNK9PimCommon22StorageServiceAbstract17disallowedSymbolsEv@Base 4:15.08.0
 _ZNK9PimCommon22StorageServiceAbstract20disallowedSymbolsStrEv@Base 4:15.08.0
 _ZNK9PimCommon22StorageServiceAbstract21maximumUploadFileSizeEv@Base 4:15.08.0
 _ZNK9PimCommon22StorageServiceAbstract29hasUploadOrDownloadInProgressEv@Base 4:15.08.0
 _ZNK9PimCommon22StorageServiceSettings10metaObjectEv@Base 4:15.08.0
 _ZNK9PimCommon22WebShortcutMenuManager10metaObjectEv@Base 4:15.08.0
 _ZNK9PimCommon22WebShortcutMenuManager12selectedTextEv@Base 4:15.08.0
 _ZNK9PimCommon23CheckedCollectionWidget10metaObjectEv@Base 4:15.08.0
 _ZNK9PimCommon23CheckedCollectionWidget14checkableProxyEv@Base 4:15.08.0
 _ZNK9PimCommon23CheckedCollectionWidget14folderTreeViewEv@Base 4:15.08.0
 _ZNK9PimCommon23CheckedCollectionWidget14selectionModelEv@Base 4:15.08.0
 _ZNK9PimCommon23CheckedCollectionWidget15entityTreeModelEv@Base 4:15.08.0
 _ZNK9PimCommon23MigrateApplicationFiles10metaObjectEv@Base 4:15.08.0
 _ZNK9PimCommon23MigrateApplicationFiles14configFileNameEv@Base 4:15.08.0
 _ZNK9PimCommon23MigrateApplicationFiles15applicationNameEv@Base 4:15.08.0
 _ZNK9PimCommon23MigrateApplicationFiles20currentConfigVersionEv@Base 4:15.08.0
 _ZNK9PimCommon23MigrateApplicationFiles7versionEv@Base 4:15.08.0
 _ZNK9PimCommon23ShortUrlConfigureDialog10metaObjectEv@Base 4:15.08.0
 _ZNK9PimCommon23ShortUrlConfigureWidget10metaObjectEv@Base 4:15.08.0
 _ZNK9PimCommon23StorageServiceJobConfig10hubicScopeEv@Base 4:15.08.0
 _ZNK9PimCommon23StorageServiceJobConfig10metaObjectEv@Base 4:15.08.0
 _ZNK9PimCommon23StorageServiceJobConfig11boxClientIdEv@Base 4:15.08.0
 _ZNK9PimCommon23StorageServiceJobConfig13hubicClientIdEv@Base 4:15.08.0
 _ZNK9PimCommon23StorageServiceJobConfig14gdriveClientIdEv@Base 4:15.08.0
 _ZNK9PimCommon23StorageServiceJobConfig15boxClientSecretEv@Base 4:15.08.0
 _ZNK9PimCommon23StorageServiceJobConfig15dropboxRootPathEv@Base 4:15.08.0
 _ZNK9PimCommon23StorageServiceJobConfig15youSendItApiKeyEv@Base 4:15.08.0
 _ZNK9PimCommon23StorageServiceJobConfig17hubicClientSecretEv@Base 4:15.08.0
 _ZNK9PimCommon23StorageServiceJobConfig17oauth2RedirectUrlEv@Base 4:15.08.0
 _ZNK9PimCommon23StorageServiceJobConfig18gdriveClientSecretEv@Base 4:15.08.0
 _ZNK9PimCommon23StorageServiceJobConfig19defaultUploadFolderEv@Base 4:15.08.0
 _ZNK9PimCommon23StorageServiceJobConfig21dropboxOauthSignatureEv@Base 4:15.08.0
 _ZNK9PimCommon23StorageServiceJobConfig23dropboxOauthConsumerKeyEv@Base 4:15.08.0
 _ZNK9PimCommon23YouSendItStorageService10metaObjectEv@Base 4:15.08.0
 _ZNK9PimCommon23YouSendItStorageService12capabilitiesEv@Base 4:15.08.0
 _ZNK9PimCommon23YouSendItStorageService16hasValidSettingsEv@Base 4:15.08.0
 _ZNK9PimCommon23YouSendItStorageService18storageServiceNameEv@Base 4:15.08.0
 _ZNK9PimCommon23YouSendItStorageService4iconEv@Base 4:15.08.0
 _ZNK9PimCommon24StorageServiceTreeWidget10metaObjectEv@Base 4:15.08.0
 _ZNK9PimCommon24StorageServiceTreeWidget12parentFolderEv@Base 4:15.08.0
 _ZNK9PimCommon24StorageServiceTreeWidget13currentFolderEv@Base 4:15.08.0
 _ZNK9PimCommon24StorageServiceTreeWidget14itemIdentifierEP15QTreeWidgetItem@Base 4:15.08.0
 _ZNK9PimCommon24StorageServiceTreeWidget16itemTypeSelectedEv@Base 4:15.08.0
 _ZNK9PimCommon24StorageServiceTreeWidget22itemIdentifierSelectedEv@Base 4:15.08.0
 _ZNK9PimCommon24StorageServiceTreeWidget23itemInformationSelectedEv@Base 4:15.08.0
 _ZNK9PimCommon24StorageServiceTreeWidget4typeEP15QTreeWidgetItem@Base 4:15.08.0
 _ZNK9PimCommon24TextToSpeechConfigDialog10metaObjectEv@Base 4:15.08.0
 _ZNK9PimCommon24TextToSpeechConfigWidget10metaObjectEv@Base 4:15.08.0
 _ZNK9PimCommon26LineEditWithAutoCorrection10metaObjectEv@Base 4:15.08.0
 _ZNK9PimCommon26LineEditWithAutoCorrection14autocorrectionEv@Base 4:15.08.0
 _ZNK9PimCommon26StorageServiceDeleteDialog10metaObjectEv@Base 4:15.08.0
 _ZNK9PimCommon27SelectMultiCollectionDialog10metaObjectEv@Base 4:15.08.0
 _ZNK9PimCommon27SelectMultiCollectionDialog18selectedCollectionEv@Base 4:15.08.0
 _ZNK9PimCommon27SieveSyntaxHighlighterRules5rulesEv@Base 4:15.08.0
 _ZNK9PimCommon27TextToSpeechConfigInterface10metaObjectEv@Base 4:15.08.0
 _ZNK9PimCommon27TextToSpeechConfigInterface16availableLocalesEv@Base 4:15.08.0
 _ZNK9PimCommon27TextToSpeechConfigInterface6localeEv@Base 4:15.08.0
 _ZNK9PimCommon28AttachmentTemporaryFilesDirs10metaObjectEv@Base 4:15.08.0
 _ZNK9PimCommon28AttachmentTemporaryFilesDirs13temporaryDirsEv@Base 4:15.08.0
 _ZNK9PimCommon28AttachmentTemporaryFilesDirs14temporaryFilesEv@Base 4:15.08.0
 _ZNK9PimCommon28BalooDebugSearchPathComboBox10metaObjectEv@Base 4:15.08.0
 _ZNK9PimCommon28BalooDebugSearchPathComboBox10searchPathEv@Base 4:15.08.0
 _ZNK9PimCommon28BalooDebugSearchPathComboBox12pathFromEnumENS0_10SearchTypeE@Base 4:15.08.0
 _ZNK9PimCommon28GravatarDownloadPixmapWidget10metaObjectEv@Base 4:15.08.0
 _ZNK9PimCommon28GravatarDownloadPixmapWidget14gravatarPixmapEv@Base 4:15.08.0
 _ZNK9PimCommon28StorageServiceDownloadDialog10metaObjectEv@Base 4:15.08.0
 _ZNK9PimCommon28StorageServiceProgressWidget10metaObjectEv@Base 4:15.08.0
 _ZNK9PimCommon28StorageServiceSettingsWidget10metaObjectEv@Base 4:15.08.0
 _ZNK9PimCommon28StorageServiceSettingsWidget11listServiceEv@Base 4:15.08.0
 _ZNK9PimCommon28StorageServiceTreeWidgetItem10createDateEv@Base 4:15.08.0
 _ZNK9PimCommon28StorageServiceTreeWidgetItem20lastModificationDateEv@Base 4:15.08.0
 _ZNK9PimCommon28StorageServiceTreeWidgetItem4sizeEv@Base 4:15.08.0
 _ZNK9PimCommon28StorageServiceTreeWidgetItem9storeInfoEv@Base 4:15.08.0
 _ZNK9PimCommon28StorageServiceTreeWidgetItemltERK15QTreeWidgetItem@Base 4:15.08.0
 _ZNK9PimCommon29AbstractTextToSpeechInterface10metaObjectEv@Base 4:15.08.0
 _ZNK9PimCommon29AbstractTextToSpeechInterface6volumeEv@Base 4:15.08.0
 _ZNK9PimCommon29AbstractTextToSpeechInterface7isReadyEv@Base 4:15.08.0
 _ZNK9PimCommon29StorageServiceCheckNameDialog10metaObjectEv@Base 4:15.08.0
 _ZNK9PimCommon29StorageServiceCheckNameDialog7newNameEv@Base 4:15.08.0
 _ZNK9PimCommon29StorageServiceConfigureDialog10metaObjectEv@Base 4:15.08.0
 _ZNK9PimCommon29StorageServiceConfigureDialog11listServiceEv@Base 4:15.08.0
 _ZNK9PimCommon29StorageServiceConfigureWidget10metaObjectEv@Base 4:15.08.0
 _ZNK9PimCommon29StorageServiceConfigureWidget14downloadFolderEv@Base 4:15.08.0
 _ZNK9PimCommon29StorageServiceConfigureWidget28storageServiceSettingsWidgetEv@Base 4:15.08.0
 _ZNK9PimCommon29StorageServiceProgressManager10metaObjectEv@Base 4:15.08.0
 _ZNK9PimCommon30RichTextEditWithAutoCorrection10metaObjectEv@Base 4:15.08.0
 _ZNK9PimCommon30RichTextEditWithAutoCorrection14autocorrectionEv@Base 4:15.08.0
 _ZNK9PimCommon31ImapResourceCapabilitiesManager10metaObjectEv@Base 4:15.08.0
 _ZNK9PimCommon31ImapResourceCapabilitiesManager20hasAnnotationSupportERK7QString@Base 4:15.08.0
 _ZNK9PimCommon31ManageServerSideSubscriptionJob10metaObjectEv@Base 4:15.08.0
 _ZNK9PimCommon31StorageServiceProgressIndicator10metaObjectEv@Base 4:15.08.0
 _ZNK9PimCommon35AbstractTextToSpeechConfigInterface10metaObjectEv@Base 4:15.08.0
 _ZNK9PimCommon35AbstractTextToSpeechConfigInterface16availableLocalesEv@Base 4:15.08.0
 _ZNK9PimCommon35AbstractTextToSpeechConfigInterface6localeEv@Base 4:15.08.0
 _ZTIN9PimCommon10AclManagerE@Base 4:15.08.0
 _ZTIN9PimCommon11AclListViewE@Base 4:15.08.0
 _ZTIN9PimCommon12TextToSpeechE@Base 4:15.08.0
 _ZTIN9PimCommon13GravatarCacheE@Base 4:15.08.0
 _ZTIN9PimCommon14CreateResourceE@Base 4:15.08.0
 _ZTIN9PimCommon14CustomTextEditE@Base 4:15.08.0
 _ZTIN9PimCommon14CustomTreeViewE@Base 4:15.08.0
 _ZTIN9PimCommon14RichTextEditorE@Base 4:15.08.0
 _ZTIN9PimCommon14ShortUrlWidgetE@Base 4:15.08.0
 _ZTIN9PimCommon14SlideContainerE@Base 4:15.08.0
 _ZTIN9PimCommon15MinimumComboBoxE@Base 4:15.08.0
 _ZTIN9PimCommon15PlainTextEditorE@Base 4:15.08.0
 _ZTIN9PimCommon15TemplateManagerE@Base 4:15.08.0
 _ZTIN9PimCommon15TestSettingsJobE@Base 4:15.08.0
 _ZTIN9PimCommon16AbstractShortUrlE@Base 4:15.08.0
 _ZTIN9PimCommon16BalooDebugDialogE@Base 4:15.08.0
 _ZTIN9PimCommon16BalooDebugWidgetE@Base 4:15.08.0
 _ZTIN9PimCommon16ImapAclAttributeE@Base 4:15.08.0
 _ZTIN9PimCommon16RenameFileDialogE@Base 4:15.08.0
 _ZTIN9PimCommon16TranslatorWidgetE@Base 4:15.08.0
 _ZTIN9PimCommon17BoxStorageServiceE@Base 4:15.08.0
 _ZTIN9PimCommon17CollectionAclPageE@Base 4:15.08.0
 _ZTIN9PimCommon17CustomToolsWidgetE@Base 4:15.08.0
 _ZTIN9PimCommon17PimCommonSettingsE@Base 4:15.08.0
 _ZTIN9PimCommon18SpellCheckLineEditE@Base 4:15.08.0
 _ZTIN9PimCommon18TemplateListWidgetE@Base 4:15.08.0
 _ZTIN9PimCommon18TextGoToLineWidgetE@Base 4:15.08.0
 _ZTIN9PimCommon18TextToSpeechWidgetE@Base 4:15.08.0
 _ZTIN9PimCommon18TranslatorTextEditE@Base 4:15.08.0
 _ZTIN9PimCommon19HubicStorageServiceE@Base 4:15.08.0
 _ZTIN9PimCommon19ManageAccountWidgetE@Base 4:15.08.0
 _ZTIN9PimCommon19RichTextEditFindBarE@Base 4:15.08.0
 _ZTIN9PimCommon19TextEditFindBarBaseE@Base 4:15.08.0
 _ZTIN9PimCommon19TextToSpeechActionsE@Base 4:15.08.0
 _ZTIN9PimCommon20AnnotationEditDialogE@Base 4:15.08.0
 _ZTIN9PimCommon20AutoCorrectionWidgetE@Base 4:15.08.0
 _ZTIN9PimCommon20GDriveStorageServiceE@Base 4:15.08.0
 _ZTIN9PimCommon20GravatarResolvUrlJobE@Base 4:15.08.0
 _ZTIN9PimCommon20PlainTextEditFindBarE@Base 4:15.08.0
 _ZTIN9PimCommon20RichTextEditorWidgetE@Base 4:15.08.0
 _ZTIN9PimCommon20TextMessageIndicatorE@Base 4:15.08.0
 _ZTIN9PimCommon20WebDavStorageServiceE@Base 4:15.08.0
 _ZTIN9PimCommon21DropBoxStorageServiceE@Base 4:15.08.0
 _ZTIN9PimCommon21EmailAddressRequesterE@Base 4:15.08.0
 _ZTIN9PimCommon21KActionMenuChangeCaseE@Base 4:15.08.0
 _ZTIN9PimCommon21LineEditWithCompleterE@Base 4:15.08.0
 _ZTIN9PimCommon21PimCommonSettingsBaseE@Base 4:15.08.0
 _ZTIN9PimCommon21PlainTextEditorWidgetE@Base 4:15.08.0
 _ZTIN9PimCommon21StorageServiceManagerE@Base 4:15.08.0
 _ZTIN9PimCommon21TextToSpeechInterfaceE@Base 4:15.08.0
 _ZTIN9PimCommon22AutoCorrectionLanguageE@Base 4:15.08.0
 _ZTIN9PimCommon22ShareServiceUrlManagerE@Base 4:15.08.0
 _ZTIN9PimCommon22SieveSyntaxHighlighterE@Base 4:15.08.0
 _ZTIN9PimCommon22SimpleStringListEditorE@Base 4:15.08.0
 _ZTIN9PimCommon22StorageServiceAbstractE@Base 4:15.08.0
 _ZTIN9PimCommon22StorageServiceSettingsE@Base 4:15.08.0
 _ZTIN9PimCommon22WebShortcutMenuManagerE@Base 4:15.08.0
 _ZTIN9PimCommon23CheckedCollectionWidgetE@Base 4:15.08.0
 _ZTIN9PimCommon23MigrateApplicationFilesE@Base 4:15.08.0
 _ZTIN9PimCommon23ShortUrlConfigureDialogE@Base 4:15.08.0
 _ZTIN9PimCommon23ShortUrlConfigureWidgetE@Base 4:15.08.0
 _ZTIN9PimCommon23StorageServiceJobConfigE@Base 4:15.08.0
 _ZTIN9PimCommon23YouSendItStorageServiceE@Base 4:15.08.0
 _ZTIN9PimCommon24StorageServiceTreeWidgetE@Base 4:15.08.0
 _ZTIN9PimCommon24TextToSpeechConfigDialogE@Base 4:15.08.0
 _ZTIN9PimCommon24TextToSpeechConfigWidgetE@Base 4:15.08.0
 _ZTIN9PimCommon26LineEditWithAutoCorrectionE@Base 4:15.08.0
 _ZTIN9PimCommon26StorageServiceDeleteDialogE@Base 4:15.08.0
 _ZTIN9PimCommon27SelectMultiCollectionDialogE@Base 4:15.08.0
 _ZTIN9PimCommon27TextToSpeechConfigInterfaceE@Base 4:15.08.0
 _ZTIN9PimCommon28AttachmentTemporaryFilesDirsE@Base 4:15.08.0
 _ZTIN9PimCommon28BalooDebugSearchPathComboBoxE@Base 4:15.08.0
 _ZTIN9PimCommon28GravatarDownloadPixmapWidgetE@Base 4:15.08.0
 _ZTIN9PimCommon28StorageServiceDownloadDialogE@Base 4:15.08.0
 _ZTIN9PimCommon28StorageServiceProgressWidgetE@Base 4:15.08.0
 _ZTIN9PimCommon28StorageServiceSettingsWidgetE@Base 4:15.08.0
 _ZTIN9PimCommon28StorageServiceTreeWidgetItemE@Base 4:15.08.0
 _ZTIN9PimCommon29AbstractTextToSpeechInterfaceE@Base 4:15.08.0
 _ZTIN9PimCommon29StorageServiceCheckNameDialogE@Base 4:15.08.0
 _ZTIN9PimCommon29StorageServiceConfigureDialogE@Base 4:15.08.0
 _ZTIN9PimCommon29StorageServiceConfigureWidgetE@Base 4:15.08.0
 _ZTIN9PimCommon29StorageServiceProgressManagerE@Base 4:15.08.0
 _ZTIN9PimCommon30RichTextEditWithAutoCorrectionE@Base 4:15.08.0
 _ZTIN9PimCommon31ImapResourceCapabilitiesManagerE@Base 4:15.08.0
 _ZTIN9PimCommon31ManageServerSideSubscriptionJobE@Base 4:15.08.0
 _ZTIN9PimCommon31StorageServiceProgressIndicatorE@Base 4:15.08.0
 _ZTIN9PimCommon35AbstractTextToSpeechConfigInterfaceE@Base 4:15.08.0
 _ZTIN9PimCommon39PlainTextSyntaxSpellCheckingHighlighterE@Base 4:15.08.0
 _ZTSN9PimCommon10AclManagerE@Base 4:15.08.0
 _ZTSN9PimCommon11AclListViewE@Base 4:15.08.0
 _ZTSN9PimCommon12TextToSpeechE@Base 4:15.08.0
 _ZTSN9PimCommon13GravatarCacheE@Base 4:15.08.0
 _ZTSN9PimCommon14CreateResourceE@Base 4:15.08.0
 _ZTSN9PimCommon14CustomTextEditE@Base 4:15.08.0
 _ZTSN9PimCommon14CustomTreeViewE@Base 4:15.08.0
 _ZTSN9PimCommon14RichTextEditorE@Base 4:15.08.0
 _ZTSN9PimCommon14ShortUrlWidgetE@Base 4:15.08.0
 _ZTSN9PimCommon14SlideContainerE@Base 4:15.08.0
 _ZTSN9PimCommon15MinimumComboBoxE@Base 4:15.08.0
 _ZTSN9PimCommon15PlainTextEditorE@Base 4:15.08.0
 _ZTSN9PimCommon15TemplateManagerE@Base 4:15.08.0
 _ZTSN9PimCommon15TestSettingsJobE@Base 4:15.08.0
 _ZTSN9PimCommon16AbstractShortUrlE@Base 4:15.08.0
 _ZTSN9PimCommon16BalooDebugDialogE@Base 4:15.08.0
 _ZTSN9PimCommon16BalooDebugWidgetE@Base 4:15.08.0
 _ZTSN9PimCommon16ImapAclAttributeE@Base 4:15.08.0
 _ZTSN9PimCommon16RenameFileDialogE@Base 4:15.08.0
 _ZTSN9PimCommon16TranslatorWidgetE@Base 4:15.08.0
 _ZTSN9PimCommon17BoxStorageServiceE@Base 4:15.08.0
 _ZTSN9PimCommon17CollectionAclPageE@Base 4:15.08.0
 _ZTSN9PimCommon17CustomToolsWidgetE@Base 4:15.08.0
 _ZTSN9PimCommon17PimCommonSettingsE@Base 4:15.08.0
 _ZTSN9PimCommon18SpellCheckLineEditE@Base 4:15.08.0
 _ZTSN9PimCommon18TemplateListWidgetE@Base 4:15.08.0
 _ZTSN9PimCommon18TextGoToLineWidgetE@Base 4:15.08.0
 _ZTSN9PimCommon18TextToSpeechWidgetE@Base 4:15.08.0
 _ZTSN9PimCommon18TranslatorTextEditE@Base 4:15.08.0
 _ZTSN9PimCommon19HubicStorageServiceE@Base 4:15.08.0
 _ZTSN9PimCommon19ManageAccountWidgetE@Base 4:15.08.0
 _ZTSN9PimCommon19RichTextEditFindBarE@Base 4:15.08.0
 _ZTSN9PimCommon19TextEditFindBarBaseE@Base 4:15.08.0
 _ZTSN9PimCommon19TextToSpeechActionsE@Base 4:15.08.0
 _ZTSN9PimCommon20AnnotationEditDialogE@Base 4:15.08.0
 _ZTSN9PimCommon20AutoCorrectionWidgetE@Base 4:15.08.0
 _ZTSN9PimCommon20GDriveStorageServiceE@Base 4:15.08.0
 _ZTSN9PimCommon20GravatarResolvUrlJobE@Base 4:15.08.0
 _ZTSN9PimCommon20PlainTextEditFindBarE@Base 4:15.08.0
 _ZTSN9PimCommon20RichTextEditorWidgetE@Base 4:15.08.0
 _ZTSN9PimCommon20TextMessageIndicatorE@Base 4:15.08.0
 _ZTSN9PimCommon20WebDavStorageServiceE@Base 4:15.08.0
 _ZTSN9PimCommon21DropBoxStorageServiceE@Base 4:15.08.0
 _ZTSN9PimCommon21EmailAddressRequesterE@Base 4:15.08.0
 _ZTSN9PimCommon21KActionMenuChangeCaseE@Base 4:15.08.0
 _ZTSN9PimCommon21LineEditWithCompleterE@Base 4:15.08.0
 _ZTSN9PimCommon21PimCommonSettingsBaseE@Base 4:15.08.0
 _ZTSN9PimCommon21PlainTextEditorWidgetE@Base 4:15.08.0
 _ZTSN9PimCommon21StorageServiceManagerE@Base 4:15.08.0
 _ZTSN9PimCommon21TextToSpeechInterfaceE@Base 4:15.08.0
 _ZTSN9PimCommon22AutoCorrectionLanguageE@Base 4:15.08.0
 _ZTSN9PimCommon22ShareServiceUrlManagerE@Base 4:15.08.0
 _ZTSN9PimCommon22SieveSyntaxHighlighterE@Base 4:15.08.0
 _ZTSN9PimCommon22SimpleStringListEditorE@Base 4:15.08.0
 _ZTSN9PimCommon22StorageServiceAbstractE@Base 4:15.08.0
 _ZTSN9PimCommon22StorageServiceSettingsE@Base 4:15.08.0
 _ZTSN9PimCommon22WebShortcutMenuManagerE@Base 4:15.08.0
 _ZTSN9PimCommon23CheckedCollectionWidgetE@Base 4:15.08.0
 _ZTSN9PimCommon23MigrateApplicationFilesE@Base 4:15.08.0
 _ZTSN9PimCommon23ShortUrlConfigureDialogE@Base 4:15.08.0
 _ZTSN9PimCommon23ShortUrlConfigureWidgetE@Base 4:15.08.0
 _ZTSN9PimCommon23StorageServiceJobConfigE@Base 4:15.08.0
 _ZTSN9PimCommon23YouSendItStorageServiceE@Base 4:15.08.0
 _ZTSN9PimCommon24StorageServiceTreeWidgetE@Base 4:15.08.0
 _ZTSN9PimCommon24TextToSpeechConfigDialogE@Base 4:15.08.0
 _ZTSN9PimCommon24TextToSpeechConfigWidgetE@Base 4:15.08.0
 _ZTSN9PimCommon26LineEditWithAutoCorrectionE@Base 4:15.08.0
 _ZTSN9PimCommon26StorageServiceDeleteDialogE@Base 4:15.08.0
 _ZTSN9PimCommon27SelectMultiCollectionDialogE@Base 4:15.08.0
 _ZTSN9PimCommon27TextToSpeechConfigInterfaceE@Base 4:15.08.0
 _ZTSN9PimCommon28AttachmentTemporaryFilesDirsE@Base 4:15.08.0
 _ZTSN9PimCommon28BalooDebugSearchPathComboBoxE@Base 4:15.08.0
 _ZTSN9PimCommon28GravatarDownloadPixmapWidgetE@Base 4:15.08.0
 _ZTSN9PimCommon28StorageServiceDownloadDialogE@Base 4:15.08.0
 _ZTSN9PimCommon28StorageServiceProgressWidgetE@Base 4:15.08.0
 _ZTSN9PimCommon28StorageServiceSettingsWidgetE@Base 4:15.08.0
 _ZTSN9PimCommon28StorageServiceTreeWidgetItemE@Base 4:15.08.0
 _ZTSN9PimCommon29AbstractTextToSpeechInterfaceE@Base 4:15.08.0
 _ZTSN9PimCommon29StorageServiceCheckNameDialogE@Base 4:15.08.0
 _ZTSN9PimCommon29StorageServiceConfigureDialogE@Base 4:15.08.0
 _ZTSN9PimCommon29StorageServiceConfigureWidgetE@Base 4:15.08.0
 _ZTSN9PimCommon29StorageServiceProgressManagerE@Base 4:15.08.0
 _ZTSN9PimCommon30RichTextEditWithAutoCorrectionE@Base 4:15.08.0
 _ZTSN9PimCommon31ImapResourceCapabilitiesManagerE@Base 4:15.08.0
 _ZTSN9PimCommon31ManageServerSideSubscriptionJobE@Base 4:15.08.0
 _ZTSN9PimCommon31StorageServiceProgressIndicatorE@Base 4:15.08.0
 _ZTSN9PimCommon35AbstractTextToSpeechConfigInterfaceE@Base 4:15.08.0
 _ZTSN9PimCommon39PlainTextSyntaxSpellCheckingHighlighterE@Base 4:15.08.0
 _ZTVN9PimCommon10AclManagerE@Base 4:15.08.0
 _ZTVN9PimCommon11AclListViewE@Base 4:15.08.0
 _ZTVN9PimCommon12TextToSpeechE@Base 4:15.08.0
 _ZTVN9PimCommon13GravatarCacheE@Base 4:15.08.0
 _ZTVN9PimCommon14CreateResourceE@Base 4:15.08.0
 _ZTVN9PimCommon14CustomTextEditE@Base 4:15.08.0
 _ZTVN9PimCommon14CustomTreeViewE@Base 4:15.08.0
 _ZTVN9PimCommon14RichTextEditorE@Base 4:15.08.0
 _ZTVN9PimCommon14ShortUrlWidgetE@Base 4:15.08.0
 _ZTVN9PimCommon14SlideContainerE@Base 4:15.08.0
 _ZTVN9PimCommon15MinimumComboBoxE@Base 4:15.08.0
 _ZTVN9PimCommon15PlainTextEditorE@Base 4:15.08.0
 _ZTVN9PimCommon15TemplateManagerE@Base 4:15.08.0
 _ZTVN9PimCommon15TestSettingsJobE@Base 4:15.08.0
 _ZTVN9PimCommon16AbstractShortUrlE@Base 4:15.08.0
 _ZTVN9PimCommon16BalooDebugDialogE@Base 4:15.08.0
 _ZTVN9PimCommon16BalooDebugWidgetE@Base 4:15.08.0
 _ZTVN9PimCommon16ImapAclAttributeE@Base 4:15.08.0
 _ZTVN9PimCommon16RenameFileDialogE@Base 4:15.08.0
 _ZTVN9PimCommon16TranslatorWidgetE@Base 4:15.08.0
 _ZTVN9PimCommon17BoxStorageServiceE@Base 4:15.08.0
 _ZTVN9PimCommon17CollectionAclPageE@Base 4:15.08.0
 _ZTVN9PimCommon17CustomToolsWidgetE@Base 4:15.08.0
 _ZTVN9PimCommon17PimCommonSettingsE@Base 4:15.08.0
 _ZTVN9PimCommon18SpellCheckLineEditE@Base 4:15.08.0
 _ZTVN9PimCommon18TemplateListWidgetE@Base 4:15.08.0
 _ZTVN9PimCommon18TextGoToLineWidgetE@Base 4:15.08.0
 _ZTVN9PimCommon18TextToSpeechWidgetE@Base 4:15.08.0
 _ZTVN9PimCommon18TranslatorTextEditE@Base 4:15.08.0
 _ZTVN9PimCommon19HubicStorageServiceE@Base 4:15.08.0
 _ZTVN9PimCommon19ManageAccountWidgetE@Base 4:15.08.0
 _ZTVN9PimCommon19RichTextEditFindBarE@Base 4:15.08.0
 _ZTVN9PimCommon19TextEditFindBarBaseE@Base 4:15.08.0
 _ZTVN9PimCommon19TextToSpeechActionsE@Base 4:15.08.0
 _ZTVN9PimCommon20AnnotationEditDialogE@Base 4:15.08.0
 _ZTVN9PimCommon20AutoCorrectionWidgetE@Base 4:15.08.0
 _ZTVN9PimCommon20GDriveStorageServiceE@Base 4:15.08.0
 _ZTVN9PimCommon20GravatarResolvUrlJobE@Base 4:15.08.0
 _ZTVN9PimCommon20PlainTextEditFindBarE@Base 4:15.08.0
 _ZTVN9PimCommon20RichTextEditorWidgetE@Base 4:15.08.0
 _ZTVN9PimCommon20TextMessageIndicatorE@Base 4:15.08.0
 _ZTVN9PimCommon20WebDavStorageServiceE@Base 4:15.08.0
 _ZTVN9PimCommon21DropBoxStorageServiceE@Base 4:15.08.0
 _ZTVN9PimCommon21EmailAddressRequesterE@Base 4:15.08.0
 _ZTVN9PimCommon21KActionMenuChangeCaseE@Base 4:15.08.0
 _ZTVN9PimCommon21LineEditWithCompleterE@Base 4:15.08.0
 _ZTVN9PimCommon21PimCommonSettingsBaseE@Base 4:15.08.0
 _ZTVN9PimCommon21PlainTextEditorWidgetE@Base 4:15.08.0
 _ZTVN9PimCommon21StorageServiceManagerE@Base 4:15.08.0
 _ZTVN9PimCommon21TextToSpeechInterfaceE@Base 4:15.08.0
 _ZTVN9PimCommon22AutoCorrectionLanguageE@Base 4:15.08.0
 _ZTVN9PimCommon22ShareServiceUrlManagerE@Base 4:15.08.0
 _ZTVN9PimCommon22SieveSyntaxHighlighterE@Base 4:15.08.0
 _ZTVN9PimCommon22SimpleStringListEditorE@Base 4:15.08.0
 _ZTVN9PimCommon22StorageServiceAbstractE@Base 4:15.08.0
 _ZTVN9PimCommon22StorageServiceSettingsE@Base 4:15.08.0
 _ZTVN9PimCommon22WebShortcutMenuManagerE@Base 4:15.08.0
 _ZTVN9PimCommon23CheckedCollectionWidgetE@Base 4:15.08.0
 _ZTVN9PimCommon23MigrateApplicationFilesE@Base 4:15.08.0
 _ZTVN9PimCommon23ShortUrlConfigureDialogE@Base 4:15.08.0
 _ZTVN9PimCommon23ShortUrlConfigureWidgetE@Base 4:15.08.0
 _ZTVN9PimCommon23StorageServiceJobConfigE@Base 4:15.08.0
 _ZTVN9PimCommon23YouSendItStorageServiceE@Base 4:15.08.0
 _ZTVN9PimCommon24StorageServiceTreeWidgetE@Base 4:15.08.0
 _ZTVN9PimCommon24TextToSpeechConfigDialogE@Base 4:15.08.0
 _ZTVN9PimCommon24TextToSpeechConfigWidgetE@Base 4:15.08.0
 _ZTVN9PimCommon26LineEditWithAutoCorrectionE@Base 4:15.08.0
 _ZTVN9PimCommon26StorageServiceDeleteDialogE@Base 4:15.08.0
 _ZTVN9PimCommon27SelectMultiCollectionDialogE@Base 4:15.08.0
 _ZTVN9PimCommon27TextToSpeechConfigInterfaceE@Base 4:15.08.0
 _ZTVN9PimCommon28AttachmentTemporaryFilesDirsE@Base 4:15.08.0
 _ZTVN9PimCommon28BalooDebugSearchPathComboBoxE@Base 4:15.08.0
 _ZTVN9PimCommon28GravatarDownloadPixmapWidgetE@Base 4:15.08.0
 _ZTVN9PimCommon28StorageServiceDownloadDialogE@Base 4:15.08.0
 _ZTVN9PimCommon28StorageServiceProgressWidgetE@Base 4:15.08.0
 _ZTVN9PimCommon28StorageServiceSettingsWidgetE@Base 4:15.08.0
 _ZTVN9PimCommon28StorageServiceTreeWidgetItemE@Base 4:15.08.0
 _ZTVN9PimCommon29AbstractTextToSpeechInterfaceE@Base 4:15.08.0
 _ZTVN9PimCommon29StorageServiceCheckNameDialogE@Base 4:15.08.0
 _ZTVN9PimCommon29StorageServiceConfigureDialogE@Base 4:15.08.0
 _ZTVN9PimCommon29StorageServiceConfigureWidgetE@Base 4:15.08.0
 _ZTVN9PimCommon29StorageServiceProgressManagerE@Base 4:15.08.0
 _ZTVN9PimCommon30RichTextEditWithAutoCorrectionE@Base 4:15.08.0
 _ZTVN9PimCommon31ImapResourceCapabilitiesManagerE@Base 4:15.08.0
 _ZTVN9PimCommon31ManageServerSideSubscriptionJobE@Base 4:15.08.0
 _ZTVN9PimCommon31StorageServiceProgressIndicatorE@Base 4:15.08.0
 _ZTVN9PimCommon35AbstractTextToSpeechConfigInterfaceE@Base 4:15.08.0
 _ZTVN9PimCommon39PlainTextSyntaxSpellCheckingHighlighterE@Base 4:15.08.0
 _ZZZN9PimCommon10AclManager7Private13guessUserNameERK7QStringS4_ENKUlvE0_clEvE15qstring_literal@Base 4:15.08.0
 _ZZZN9PimCommon10AclManager7Private13guessUserNameERK7QStringS4_ENKUlvE1_clEvE15qstring_literal@Base 4:15.08.0
 _ZZZN9PimCommon10AclManager7Private13guessUserNameERK7QStringS4_ENKUlvE_clEvE15qstring_literal@Base 4:15.08.0
 _ZZZN9PimCommon10AclManager7Private13setCollectionERKN7Akonadi10CollectionEENKUlvE0_clEvE15qstring_literal@Base 4:15.08.0
 _ZZZN9PimCommon10AclManager7Private13setCollectionERKN7Akonadi10CollectionEENKUlvE1_clEvE15qstring_literal@Base 4:15.08.0
 _ZZZN9PimCommon10AclManager7Private13setCollectionERKN7Akonadi10CollectionEENKUlvE2_clEvE15qstring_literal@Base 4:15.08.0
 _ZZZN9PimCommon10AclManager7Private13setCollectionERKN7Akonadi10CollectionEENKUlvE_clEvE15qstring_literal@Base 4:15.08.0
 _ZZZN9PimCommon14RichTextEditor21RichTextEditorPrivateC4EPS0_ENKUlvE_clEvE15qstring_literal@Base 4:15.08.0
 _ZZZN9PimCommon15PlainTextEditor22PlainTextEditorPrivateC4EPS0_ENKUlvE_clEvE15qstring_literal@Base 4:15.08.0
 _ZZZN9PimCommon21PimCommonSettingsBase10setEnabledEbENKUlvE_clEvE15qstring_literal@Base 4:15.08.1
 _ZZZN9PimCommon21PimCommonSettingsBase13setLocaleNameERK7QStringENKUlvE_clEvE15qstring_literal@Base 4:15.08.1
 _ZZZN9PimCommon21PimCommonSettingsBase14setSuperScriptEbENKUlvE_clEvE15qstring_literal@Base 4:15.08.1
 _ZZZN9PimCommon21PimCommonSettingsBase15setSingleSpacesEbENKUlvE_clEvE15qstring_literal@Base 4:15.08.1
 _ZZZN9PimCommon21PimCommonSettingsBase16setAutoFormatUrlEbENKUlvE_clEvE15qstring_literal@Base 4:15.08.1
 _ZZZN9PimCommon21PimCommonSettingsBase16setAutoFractionsEbENKUlvE_clEvE15qstring_literal@Base 4:15.08.1
 _ZZZN9PimCommon21PimCommonSettingsBase20setAutoBoldUnderlineEbENKUlvE_clEvE15qstring_literal@Base 4:15.08.1
 _ZZZN9PimCommon21PimCommonSettingsBase21setCapitalizeWeekDaysEbENKUlvE_clEvE15qstring_literal@Base 4:15.08.1
 _ZZZN9PimCommon21PimCommonSettingsBase22setAdvancedAutocorrectEbENKUlvE_clEvE15qstring_literal@Base 4:15.08.1
 _ZZZN9PimCommon21PimCommonSettingsBase22setReplaceDoubleQuotesEbENKUlvE_clEvE15qstring_literal@Base 4:15.08.1
 _ZZZN9PimCommon21PimCommonSettingsBase22setReplaceSingleQuotesEbENKUlvE_clEvE15qstring_literal@Base 4:15.08.1
 _ZZZN9PimCommon21PimCommonSettingsBase23setFixTwoUppercaseCharsEbENKUlvE_clEvE15qstring_literal@Base 4:15.08.1
 _ZZZN9PimCommon21PimCommonSettingsBase30setAddNonBreakingSpaceInFrenchEbENKUlvE_clEvE15qstring_literal@Base 4:15.08.1
 _ZZZN9PimCommon21PimCommonSettingsBase31setUppercaseFirstCharOfSentenceEbENKUlvE_clEvE15qstring_literal@Base 4:15.08.1
 _ZZZN9PimCommon21PimCommonSettingsBase7setRateEiENKUlvE_clEvE15qstring_literal@Base 4:15.08.1
 _ZZZN9PimCommon21PimCommonSettingsBase8setPitchEiENKUlvE_clEvE15qstring_literal@Base 4:15.08.1
 _ZZZN9PimCommon21PimCommonSettingsBase9setVolumeEiENKUlvE_clEvE15qstring_literal@Base 4:15.08.1
 (c++)"non-virtual thunk to PimCommon::AclListView::~AclListView()@Base" 4:15.08.0
 (c++)"non-virtual thunk to PimCommon::AnnotationEditDialog::~AnnotationEditDialog()@Base" 4:15.08.0
 (c++)"non-virtual thunk to PimCommon::AutoCorrectionLanguage::~AutoCorrectionLanguage()@Base" 4:15.08.0
 (c++)"non-virtual thunk to PimCommon::AutoCorrectionWidget::~AutoCorrectionWidget()@Base" 4:15.08.0
 (c++)"non-virtual thunk to PimCommon::BalooDebugDialog::~BalooDebugDialog()@Base" 4:15.08.0
 (c++)"non-virtual thunk to PimCommon::BalooDebugSearchPathComboBox::~BalooDebugSearchPathComboBox()@Base" 4:15.08.0
 (c++)"non-virtual thunk to PimCommon::BalooDebugWidget::~BalooDebugWidget()@Base" 4:15.08.0
 (c++)"non-virtual thunk to PimCommon::CheckedCollectionWidget::~CheckedCollectionWidget()@Base" 4:15.08.0
 (c++)"non-virtual thunk to PimCommon::CustomTextEdit::~CustomTextEdit()@Base" 4:15.08.0
 (c++)"non-virtual thunk to PimCommon::CustomToolsWidget::~CustomToolsWidget()@Base" 4:15.08.0
 (c++)"non-virtual thunk to PimCommon::CustomTreeView::~CustomTreeView()@Base" 4:15.08.0
 (c++)"non-virtual thunk to PimCommon::EmailAddressRequester::~EmailAddressRequester()@Base" 4:15.08.0
 (c++)"non-virtual thunk to PimCommon::GravatarDownloadPixmapWidget::~GravatarDownloadPixmapWidget()@Base" 4:15.08.0
 (c++)"non-virtual thunk to PimCommon::LineEditWithAutoCorrection::~LineEditWithAutoCorrection()@Base" 4:15.08.0
 (c++)"non-virtual thunk to PimCommon::LineEditWithCompleter::~LineEditWithCompleter()@Base" 4:15.08.0
 (c++)"non-virtual thunk to PimCommon::ManageAccountWidget::~ManageAccountWidget()@Base" 4:15.08.0
 (c++)"non-virtual thunk to PimCommon::PlainTextEditFindBar::~PlainTextEditFindBar()@Base" 4:15.08.0
 (c++)"non-virtual thunk to PimCommon::PlainTextEditor::~PlainTextEditor()@Base" 4:15.08.0
 (c++)"non-virtual thunk to PimCommon::PlainTextEditorWidget::~PlainTextEditorWidget()@Base" 4:15.08.0
 (c++)"non-virtual thunk to PimCommon::RenameFileDialog::~RenameFileDialog()@Base" 4:15.08.0
 (c++)"non-virtual thunk to PimCommon::RichTextEditFindBar::~RichTextEditFindBar()@Base" 4:15.08.0
 (c++)"non-virtual thunk to PimCommon::RichTextEditWithAutoCorrection::~RichTextEditWithAutoCorrection()@Base" 4:15.08.0
 (c++)"non-virtual thunk to PimCommon::RichTextEditor::~RichTextEditor()@Base" 4:15.08.0
 (c++)"non-virtual thunk to PimCommon::RichTextEditorWidget::~RichTextEditorWidget()@Base" 4:15.08.0
 (c++)"non-virtual thunk to PimCommon::SelectMultiCollectionDialog::~SelectMultiCollectionDialog()@Base" 4:15.08.0
 (c++)"non-virtual thunk to PimCommon::ShortUrlConfigureDialog::~ShortUrlConfigureDialog()@Base" 4:15.08.0
 (c++)"non-virtual thunk to PimCommon::ShortUrlConfigureWidget::~ShortUrlConfigureWidget()@Base" 4:15.08.0
 (c++)"non-virtual thunk to PimCommon::ShortUrlWidget::~ShortUrlWidget()@Base" 4:15.08.0
 (c++)"non-virtual thunk to PimCommon::SpellCheckLineEdit::~SpellCheckLineEdit()@Base" 4:15.08.0
 (c++)"non-virtual thunk to PimCommon::StorageServiceCheckNameDialog::~StorageServiceCheckNameDialog()@Base" 4:15.08.0
 (c++)"non-virtual thunk to PimCommon::StorageServiceConfigureDialog::~StorageServiceConfigureDialog()@Base" 4:15.08.0
 (c++)"non-virtual thunk to PimCommon::StorageServiceConfigureWidget::~StorageServiceConfigureWidget()@Base" 4:15.08.0
 (c++)"non-virtual thunk to PimCommon::StorageServiceDeleteDialog::~StorageServiceDeleteDialog()@Base" 4:15.08.0
 (c++)"non-virtual thunk to PimCommon::StorageServiceDownloadDialog::~StorageServiceDownloadDialog()@Base" 4:15.08.0
 (c++)"non-virtual thunk to PimCommon::StorageServiceProgressWidget::~StorageServiceProgressWidget()@Base" 4:15.08.0
 (c++)"non-virtual thunk to PimCommon::StorageServiceSettingsWidget::~StorageServiceSettingsWidget()@Base" 4:15.08.0
 (c++)"non-virtual thunk to PimCommon::StorageServiceTreeWidget::~StorageServiceTreeWidget()@Base" 4:15.08.0
 (c++)"non-virtual thunk to PimCommon::TemplateListWidget::~TemplateListWidget()@Base" 4:15.08.0
 (c++)"non-virtual thunk to PimCommon::TextEditFindBarBase::~TextEditFindBarBase()@Base" 4:15.08.0
 (c++)"non-virtual thunk to PimCommon::TextGoToLineWidget::~TextGoToLineWidget()@Base" 4:15.08.0
 (c++)"non-virtual thunk to PimCommon::TextToSpeechConfigDialog::~TextToSpeechConfigDialog()@Base" 4:15.08.0
 (c++)"non-virtual thunk to PimCommon::TextToSpeechConfigWidget::~TextToSpeechConfigWidget()@Base" 4:15.08.0
 (c++)"non-virtual thunk to PimCommon::TextToSpeechWidget::~TextToSpeechWidget()@Base" 4:15.08.0
 (c++)"non-virtual thunk to PimCommon::TranslatorWidget::~TranslatorWidget()@Base" 4:15.08.0
