# SymbolsHelper-Confirmed: 4:15.08.0 amd64
libsendlater.so.5 libsendlater5 #MINVER#
 (optional=templinst)_ZN12KConfigGroup10writeEntryIiEEvPKcRKT_6QFlagsIN11KConfigBase15WriteConfigFlagEE@Base 4:15.08.0
 _ZN22SendLaterAgentSettings4selfEv@Base 4:15.08.0
 _ZN22SendLaterAgentSettingsC1Ev@Base 4:15.08.0
 _ZN22SendLaterAgentSettingsC2Ev@Base 4:15.08.0
 _ZN22SendLaterAgentSettingsD0Ev@Base 4:15.08.0
 _ZN22SendLaterAgentSettingsD1Ev@Base 4:15.08.0
 _ZN22SendLaterAgentSettingsD2Ev@Base 4:15.08.0
 _ZN9SendLater13SendLaterInfo10readConfigERK12KConfigGroup@Base 4:15.08.0
 _ZN9SendLater13SendLaterInfo10setSubjectERK7QString@Base 4:15.08.0
 _ZN9SendLater13SendLaterInfo11setDateTimeERK9QDateTime@Base 4:15.08.0
 _ZN9SendLater13SendLaterInfo11writeConfigER12KConfigGroup@Base 4:15.08.0
 _ZN9SendLater13SendLaterInfo13setRecurrenceEb@Base 4:15.08.0
 _ZN9SendLater13SendLaterInfo17setRecurrenceUnitENS0_14RecurrenceUnitE@Base 4:15.08.0
 _ZN9SendLater13SendLaterInfo19setLastDateTimeSendERK9QDateTime@Base 4:15.08.0
 _ZN9SendLater13SendLaterInfo22setRecurrenceEachValueEi@Base 4:15.08.0
 _ZN9SendLater13SendLaterInfo5setToERK7QString@Base 4:15.08.0
 _ZN9SendLater13SendLaterInfo9setItemIdEx@Base 4:15.08.0
 _ZN9SendLater13SendLaterInfoC1ERK12KConfigGroup@Base 4:15.08.0
 _ZN9SendLater13SendLaterInfoC1ERKS0_@Base 4:15.08.0
 _ZN9SendLater13SendLaterInfoC1Ev@Base 4:15.08.0
 _ZN9SendLater13SendLaterInfoC2ERK12KConfigGroup@Base 4:15.08.0
 _ZN9SendLater13SendLaterInfoC2ERKS0_@Base 4:15.08.0
 _ZN9SendLater13SendLaterInfoC2Ev@Base 4:15.08.0
 _ZN9SendLater13SendLaterInfoD1Ev@Base 4:15.08.0
 _ZN9SendLater13SendLaterInfoD2Ev@Base 4:15.08.0
 _ZN9SendLater13SendLaterUtil13defaultConfigEv@Base 4:15.08.0
 _ZN9SendLater13SendLaterUtil18writeSendLaterInfoE28QExplicitlySharedDataPointerI13KSharedConfigEPNS_13SendLaterInfoEb@Base 4:15.08.0
 _ZN9SendLater13SendLaterUtil19changeRecurrentDateEPNS_13SendLaterInfoE@Base 4:15.08.0
 _ZN9SendLater13SendLaterUtil20compareSendLaterInfoEPNS_13SendLaterInfoES2_@Base 4:15.08.0
 _ZN9SendLater13SendLaterUtil21sentLaterAgentEnabledEv@Base 4:15.08.0
 _ZN9SendLater13SendLaterUtil25forceReparseConfigurationEv@Base 4:15.08.0
 _ZN9SendLater13SendLaterUtil27sentLaterAgentWasRegisteredEv@Base 4:15.08.0
 _ZN9SendLater13SendLaterUtil6reloadEv@Base 4:15.08.0
 _ZN9SendLater15SendLaterDialog11qt_metacallEN11QMetaObject4CallEiPPv@Base 4:15.08.0
 _ZN9SendLater15SendLaterDialog11qt_metacastEPKc@Base 4:15.08.0
 _ZN9SendLater15SendLaterDialog13slotOkClickedEv@Base 4:15.08.0
 _ZN9SendLater15SendLaterDialog15slotDateChangedERK7QString@Base 4:15.08.0
 _ZN9SendLater15SendLaterDialog16staticMetaObjectE@Base 4:15.08.0
 _ZN9SendLater15SendLaterDialog21slotRecurrenceClickedEb@Base 4:15.08.0
 _ZN9SendLater15SendLaterDialog4infoEv@Base 4:15.08.0
 _ZN9SendLater15SendLaterDialog4loadEPNS_13SendLaterInfoE@Base 4:15.08.0
 _ZN9SendLater15SendLaterDialog9slotDelayEb@Base 4:15.08.0
 _ZN9SendLater15SendLaterDialogC1EPNS_13SendLaterInfoEP7QWidget@Base 4:15.08.0
 _ZN9SendLater15SendLaterDialogC2EPNS_13SendLaterInfoEP7QWidget@Base 4:15.08.0
 _ZN9SendLater15SendLaterDialogD0Ev@Base 4:15.08.0
 _ZN9SendLater15SendLaterDialogD1Ev@Base 4:15.08.0
 _ZN9SendLater15SendLaterDialogD2Ev@Base 4:15.08.0
 (optional=templinst)_ZNK12KConfigGroup9readEntryI9QDateTimeEET_PKcRKS2_@Base 4:15.08.0
 (optional=templinst)_ZNK12KConfigGroup9readEntryIbEET_PKcRKS1_@Base 4:15.08.0
 (optional=templinst)_ZNK12KConfigGroup9readEntryIiEET_PKcRKS1_@Base 4:15.08.0
 _ZNK9SendLater13SendLaterInfo12isRecurrenceEv@Base 4:15.08.0
 _ZNK9SendLater13SendLaterInfo14recurrenceUnitEv@Base 4:15.08.0
 _ZNK9SendLater13SendLaterInfo16lastDateTimeSendEv@Base 4:15.08.0
 _ZNK9SendLater13SendLaterInfo19recurrenceEachValueEv@Base 4:15.08.0
 _ZNK9SendLater13SendLaterInfo2toEv@Base 4:15.08.0
 _ZNK9SendLater13SendLaterInfo6itemIdEv@Base 4:15.08.0
 _ZNK9SendLater13SendLaterInfo7isValidEv@Base 4:15.08.0
 _ZNK9SendLater13SendLaterInfo7subjectEv@Base 4:15.08.0
 _ZNK9SendLater13SendLaterInfo8dateTimeEv@Base 4:15.08.0
 _ZNK9SendLater13SendLaterInfoeqERKS0_@Base 4:15.08.0
 _ZNK9SendLater15SendLaterDialog10metaObjectEv@Base 4:15.08.0
 _ZNK9SendLater15SendLaterDialog6actionEv@Base 4:15.08.0
 _ZTI22SendLaterAgentSettings@Base 4:15.08.0
 _ZTIN9SendLater15SendLaterDialogE@Base 4:15.08.0
 _ZTS22SendLaterAgentSettings@Base 4:15.08.0
 _ZTSN9SendLater15SendLaterDialogE@Base 4:15.08.0
 _ZTV22SendLaterAgentSettings@Base 4:15.08.0
 _ZTVN9SendLater15SendLaterDialogE@Base 4:15.08.0
 (c++)"non-virtual thunk to SendLater::SendLaterDialog::~SendLaterDialog()@Base" 4:15.08.0
