# SymbolsHelper-Confirmed: 4:15.08.1 amd64
libtemplateparser.so.5 libtemplateparser5 #MINVER#
 _ZN14TemplateParser10CTemplatesC1ERK7QString@Base 4:15.08.0
 _ZN14TemplateParser10CTemplatesC2ERK7QString@Base 4:15.08.0
 _ZN14TemplateParser10CTemplatesD0Ev@Base 4:15.08.0
 _ZN14TemplateParser10CTemplatesD1Ev@Base 4:15.08.0
 _ZN14TemplateParser10CTemplatesD2Ev@Base 4:15.08.0
 _ZN14TemplateParser14GlobalSettings4selfEv@Base 4:15.08.0
 _ZN14TemplateParser14GlobalSettingsC1Ev@Base 4:15.08.0
 _ZN14TemplateParser14GlobalSettingsC2Ev@Base 4:15.08.0
 _ZN14TemplateParser14GlobalSettingsD0Ev@Base 4:15.08.0
 _ZN14TemplateParser14GlobalSettingsD1Ev@Base 4:15.08.0
 _ZN14TemplateParser14GlobalSettingsD2Ev@Base 4:15.08.0
 _ZN14TemplateParser14TemplateParser11getLastNameERK7QString@Base 4:15.08.0
 _ZN14TemplateParser14TemplateParser11qt_metacallEN11QMetaObject4CallEiPPv@Base 4:15.08.0
 _ZN14TemplateParser14TemplateParser11qt_metacastEPKc@Base 4:15.08.0
 _ZN14TemplateParser14TemplateParser11setCharsetsERK11QStringList@Base 4:15.08.0
 _ZN14TemplateParser14TemplateParser11setWordWrapEbi@Base 4:15.08.0
 _ZN14TemplateParser14TemplateParser12findTemplateEv@Base 4:15.08.0
 _ZN14TemplateParser14TemplateParser12getFirstNameERK7QString@Base 4:15.08.0
 _ZN14TemplateParser14TemplateParser12setSelectionERK7QString@Base 4:15.08.0
 _ZN14TemplateParser14TemplateParser13makeValidHtmlER7QString@Base 4:15.08.0
 _ZN14TemplateParser14TemplateParser15htmlMessageTextEbNS0_14AllowSelectionE@Base 4:15.08.0
 _ZN14TemplateParser14TemplateParser16staticMetaObjectE@Base 4:15.08.0
 _ZN14TemplateParser14TemplateParser18findCustomTemplateERK7QString@Base 4:15.08.0
 _ZN14TemplateParser14TemplateParser18setAllowDecryptionEb@Base 4:15.08.0
 _ZN14TemplateParser14TemplateParser18setIdentityManagerEPN19KIdentityManagement15IdentityManagerE@Base 4:15.08.0
 _ZN14TemplateParser14TemplateParser19processWithIdentityEjRKN5boost10shared_ptrIN5KMime7MessageEEERKN7Akonadi10CollectionE@Base 4:15.08.0
 _ZN14TemplateParser14TemplateParser19processWithTemplateERK7QString@Base 4:15.08.0
 _ZN14TemplateParser14TemplateParser4pipeERK7QStringS3_@Base 4:15.08.0
 _ZN14TemplateParser14TemplateParser7processERK7QStringRKN5boost10shared_ptrIN5KMime7MessageEEERKN7Akonadi10CollectionE@Base 4:15.08.0
 _ZN14TemplateParser14TemplateParser7processERKN5boost10shared_ptrIN5KMime7MessageEEERKN7Akonadi10CollectionE@Base 4:15.08.0
 _ZN14TemplateParser14TemplateParserC1ERKN5boost10shared_ptrIN5KMime7MessageEEENS0_4ModeE@Base 4:15.08.0
 _ZN14TemplateParser14TemplateParserC2ERKN5boost10shared_ptrIN5KMime7MessageEEENS0_4ModeE@Base 4:15.08.0
 _ZN14TemplateParser14TemplateParserD0Ev@Base 4:15.08.0
 _ZN14TemplateParser14TemplateParserD1Ev@Base 4:15.08.0
 _ZN14TemplateParser14TemplateParserD2Ev@Base 4:15.08.0
 _ZN14TemplateParser15CustomTemplates11indexToTypeEi@Base 4:15.08.0
 _ZN14TemplateParser15CustomTemplates11qt_metacallEN11QMetaObject4CallEiPPv@Base 4:15.08.0
 _ZN14TemplateParser15CustomTemplates11qt_metacastEPKc@Base 4:15.08.0
 _ZN14TemplateParser15CustomTemplates12iconFromTypeENS0_4TypeEPNS_18CustomTemplateItemE@Base 4:15.08.0
 _ZN14TemplateParser15CustomTemplates14slotAddClickedEv@Base 4:15.08.0
 _ZN14TemplateParser15CustomTemplates15slotItemChangedEP15QTreeWidgetItemi@Base 4:15.08.0
 _ZN14TemplateParser15CustomTemplates15slotNameChangedERK7QString@Base 4:15.08.0
 _ZN14TemplateParser15CustomTemplates15slotTextChangedEv@Base 4:15.08.0
 _ZN14TemplateParser15CustomTemplates16staticMetaObjectE@Base 4:15.08.0
 _ZN14TemplateParser15CustomTemplates16templatesUpdatedEv@Base 4:15.08.0
 _ZN14TemplateParser15CustomTemplates17nameAlreadyExistsERK7QStringP15QTreeWidgetItem@Base 4:15.08.0
 _ZN14TemplateParser15CustomTemplates17slotInsertCommandERK7QStringi@Base 4:15.08.0
 _ZN14TemplateParser15CustomTemplates17slotRemoveClickedEv@Base 4:15.08.0
 _ZN14TemplateParser15CustomTemplates17slotTypeActivatedEi@Base 4:15.08.0
 _ZN14TemplateParser15CustomTemplates19slotHelpLinkClickedERK7QString@Base 4:15.08.0
 _ZN14TemplateParser15CustomTemplates19slotShortcutChangedERK12QKeySequence@Base 4:15.08.0
 _ZN14TemplateParser15CustomTemplates20slotDuplicateClickedEv@Base 4:15.08.0
 _ZN14TemplateParser15CustomTemplates24slotListSelectionChangedEv@Base 4:15.08.0
 _ZN14TemplateParser15CustomTemplates4loadEv@Base 4:15.08.0
 _ZN14TemplateParser15CustomTemplates4saveEv@Base 4:15.08.0
 _ZN14TemplateParser15CustomTemplates7changedEv@Base 4:15.08.0
 _ZN14TemplateParser15CustomTemplatesC1ERK5QListIP17KActionCollectionEP7QWidget@Base 4:15.08.0
 _ZN14TemplateParser15CustomTemplatesC2ERK5QListIP17KActionCollectionEP7QWidget@Base 4:15.08.0
 _ZN14TemplateParser15CustomTemplatesD0Ev@Base 4:15.08.0
 _ZN14TemplateParser15CustomTemplatesD1Ev@Base 4:15.08.0
 _ZN14TemplateParser15CustomTemplatesD2Ev@Base 4:15.08.0
 _ZN14TemplateParser16DefaultTemplates12defaultReplyEv@Base 4:15.08.0
 _ZN14TemplateParser16DefaultTemplates14defaultForwardEv@Base 4:15.08.0
 _ZN14TemplateParser16DefaultTemplates15defaultReplyAllEv@Base 4:15.08.0
 _ZN14TemplateParser16DefaultTemplates17defaultNewMessageEv@Base 4:15.08.0
 _ZN14TemplateParser16DefaultTemplates18defaultQuoteStringEv@Base 4:15.08.0
 _ZN14TemplateParser17TemplatesTextEdit11qt_metacallEN11QMetaObject4CallEiPPv@Base 4:15.08.0
 _ZN14TemplateParser17TemplatesTextEdit11qt_metacastEPKc@Base 4:15.08.0
 _ZN14TemplateParser17TemplatesTextEdit16staticMetaObjectE@Base 4:15.08.0
 _ZN14TemplateParser17TemplatesTextEditC1EP7QWidget@Base 4:15.08.0
 _ZN14TemplateParser17TemplatesTextEditC2EP7QWidget@Base 4:15.08.0
 _ZN14TemplateParser17TemplatesTextEditD0Ev@Base 4:15.08.0
 _ZN14TemplateParser17TemplatesTextEditD1Ev@Base 4:15.08.0
 _ZN14TemplateParser17TemplatesTextEditD2Ev@Base 4:15.08.0
 _ZN14TemplateParser19CustomTemplatesMenu11qt_metacallEN11QMetaObject4CallEiPPv@Base 4:15.08.0
 _ZN14TemplateParser19CustomTemplatesMenu11qt_metacastEPKc@Base 4:15.08.0
 _ZN14TemplateParser19CustomTemplatesMenu16staticMetaObjectE@Base 4:15.08.0
 _ZN14TemplateParser19CustomTemplatesMenu17slotReplySelectedEi@Base 4:15.08.0
 _ZN14TemplateParser19CustomTemplatesMenu19slotForwardSelectedEi@Base 4:15.08.0
 _ZN14TemplateParser19CustomTemplatesMenu20slotReplyAllSelectedEi@Base 4:15.08.0
 _ZN14TemplateParser19CustomTemplatesMenu21replyTemplateSelectedERK7QString@Base 4:15.08.0
 _ZN14TemplateParser19CustomTemplatesMenu23forwardTemplateSelectedERK7QString@Base 4:15.08.0
 _ZN14TemplateParser19CustomTemplatesMenu24replyAllTemplateSelectedERK7QString@Base 4:15.08.0
 _ZN14TemplateParser19CustomTemplatesMenu5clearEv@Base 4:15.08.0
 _ZN14TemplateParser19CustomTemplatesMenu6updateEv@Base 4:15.08.0
 _ZN14TemplateParser19CustomTemplatesMenuC1EP7QWidgetP17KActionCollection@Base 4:15.08.0
 _ZN14TemplateParser19CustomTemplatesMenuC2EP7QWidgetP17KActionCollection@Base 4:15.08.0
 _ZN14TemplateParser19CustomTemplatesMenuD0Ev@Base 4:15.08.0
 _ZN14TemplateParser19CustomTemplatesMenuD1Ev@Base 4:15.08.0
 _ZN14TemplateParser19CustomTemplatesMenuD2Ev@Base 4:15.08.0
 _ZN14TemplateParser22TemplatesConfiguration10strOrBlankERK7QString@Base 4:15.08.0
 _ZN14TemplateParser22TemplatesConfiguration11qt_metacallEN11QMetaObject4CallEiPPv@Base 4:15.08.0
 _ZN14TemplateParser22TemplatesConfiguration11qt_metacastEPKc@Base 4:15.08.0
 _ZN14TemplateParser22TemplatesConfiguration12saveToFolderERK7QString@Base 4:15.08.0
 _ZN14TemplateParser22TemplatesConfiguration12saveToGlobalEv@Base 4:15.08.0
 _ZN14TemplateParser22TemplatesConfiguration14configIdStringEj@Base 4:15.08.0
 _ZN14TemplateParser22TemplatesConfiguration14loadFromFolderERK7QStringj@Base 4:15.08.0
 _ZN14TemplateParser22TemplatesConfiguration14loadFromGlobalEv@Base 4:15.08.0
 _ZN14TemplateParser22TemplatesConfiguration14resetToDefaultEv@Base 4:15.08.0
 _ZN14TemplateParser22TemplatesConfiguration14saveToIdentityEj@Base 4:15.08.0
 _ZN14TemplateParser22TemplatesConfiguration15slotTextChangedEv@Base 4:15.08.0
 _ZN14TemplateParser22TemplatesConfiguration16loadFromIdentityEj@Base 4:15.08.0
 _ZN14TemplateParser22TemplatesConfiguration16staticMetaObjectE@Base 4:15.08.0
 _ZN14TemplateParser22TemplatesConfiguration17slotInsertCommandERK7QStringi@Base 4:15.08.0
 _ZN14TemplateParser22TemplatesConfiguration19slotHelpLinkClickedERK7QString@Base 4:15.08.0
 _ZN14TemplateParser22TemplatesConfiguration7changedEv@Base 4:15.08.0
 _ZN14TemplateParser22TemplatesConfigurationC1EP7QWidgetRK7QString@Base 4:15.08.0
 _ZN14TemplateParser22TemplatesConfigurationC2EP7QWidgetRK7QString@Base 4:15.08.0
 _ZN14TemplateParser4Util14deleteTemplateERK7QString@Base 4:15.08.0
 _ZN14TemplateParser4Util16keywordsWithArgsEv@Base 4:15.08.0
 _ZN14TemplateParser4Util28keywordsWithArgsForCompleterEv@Base 4:15.08.0
 _ZN14TemplateParser4Util8keywordsEv@Base 4:15.08.0
 _ZN14TemplateParser9TemplatesC1ERK7QString@Base 4:15.08.0
 _ZN14TemplateParser9TemplatesC2ERK7QString@Base 4:15.08.0
 _ZN14TemplateParser9TemplatesD0Ev@Base 4:15.08.0
 _ZN14TemplateParser9TemplatesD1Ev@Base 4:15.08.0
 _ZN14TemplateParser9TemplatesD2Ev@Base 4:15.08.0
 _ZNK14TemplateParser14TemplateParser10metaObjectEv@Base 4:15.08.0
 _ZNK14TemplateParser14TemplateParser11parseQuotesERK7QStringS3_RS1_@Base 4:15.08.0
 _ZNK14TemplateParser14TemplateParser11plainToHtmlERK7QString@Base 4:15.08.0
 _ZNK14TemplateParser14TemplateParser12identityUoidERKN5boost10shared_ptrIN5KMime7MessageEEE@Base 4:15.08.0
 _ZNK14TemplateParser14TemplateParser14quotedHtmlTextERK7QString@Base 4:15.08.0
 _ZNK14TemplateParser14TemplateParser15isHtmlSignatureEv@Base 4:15.08.0
 _ZNK14TemplateParser14TemplateParser15quotedPlainTextERK7QString@Base 4:15.08.0
 _ZNK14TemplateParser14TemplateParser16getHtmlSignatureEv@Base 4:15.08.0
 _ZNK14TemplateParser14TemplateParser16plainMessageTextEbNS0_14AllowSelectionE@Base 4:15.08.0
 _ZNK14TemplateParser14TemplateParser17getPlainSignatureEv@Base 4:15.08.0
 _ZNK14TemplateParser14TemplateParser20createMultipartMixedERKN11MessageCore19AttachmentCollectorEPN5KMime7ContentE@Base 4:15.08.0
 _ZNK14TemplateParser14TemplateParser20cursorPositionWasSetEv@Base 4:15.08.0
 _ZNK14TemplateParser14TemplateParser20shouldStripSignatureEv@Base 4:15.08.0
 _ZNK14TemplateParser14TemplateParser22createMultipartRelatedERKN11MessageCore14ImageCollectorEPN5KMime7ContentE@Base 4:15.08.0
 _ZNK14TemplateParser14TemplateParser22createPlainPartContentERK7QString@Base 4:15.08.0
 _ZNK14TemplateParser14TemplateParser25addProcessedBodyToMessageERK7QStringS3_@Base 4:15.08.0
 _ZNK14TemplateParser14TemplateParser33createMultipartAlternativeContentERK7QStringS3_@Base 4:15.08.0
 _ZNK14TemplateParser15CustomTemplates10metaObjectEv@Base 4:15.08.0
 _ZNK14TemplateParser15CustomTemplates16createUniqueNameERK7QString@Base 4:15.08.0
 _ZNK14TemplateParser17TemplatesTextEdit10metaObjectEv@Base 4:15.08.0
 _ZNK14TemplateParser19CustomTemplatesMenu10metaObjectEv@Base 4:15.08.0
 _ZNK14TemplateParser22TemplatesConfiguration10metaObjectEv@Base 4:15.08.0
 _ZNK14TemplateParser22TemplatesConfiguration15currentTextEditEv@Base 4:15.08.0
 _ZNK14TemplateParser22TemplatesConfiguration9helpLabelEv@Base 4:15.08.0
 _ZTIN14TemplateParser10CTemplatesE@Base 4:15.08.0
 _ZTIN14TemplateParser14GlobalSettingsE@Base 4:15.08.0
 _ZTIN14TemplateParser14TemplateParserE@Base 4:15.08.0
 _ZTIN14TemplateParser15CustomTemplatesE@Base 4:15.08.0
 _ZTIN14TemplateParser17TemplatesTextEditE@Base 4:15.08.0
 _ZTIN14TemplateParser19CustomTemplatesMenuE@Base 4:15.08.0
 _ZTIN14TemplateParser22TemplatesConfigurationE@Base 4:15.08.0
 _ZTIN14TemplateParser9TemplatesE@Base 4:15.08.0
 _ZTSN14TemplateParser10CTemplatesE@Base 4:15.08.0
 _ZTSN14TemplateParser14GlobalSettingsE@Base 4:15.08.0
 _ZTSN14TemplateParser14TemplateParserE@Base 4:15.08.0
 _ZTSN14TemplateParser15CustomTemplatesE@Base 4:15.08.0
 _ZTSN14TemplateParser17TemplatesTextEditE@Base 4:15.08.0
 _ZTSN14TemplateParser19CustomTemplatesMenuE@Base 4:15.08.0
 _ZTSN14TemplateParser22TemplatesConfigurationE@Base 4:15.08.0
 _ZTSN14TemplateParser9TemplatesE@Base 4:15.08.0
 _ZTVN14TemplateParser10CTemplatesE@Base 4:15.08.0
 _ZTVN14TemplateParser14GlobalSettingsE@Base 4:15.08.0
 _ZTVN14TemplateParser14TemplateParserE@Base 4:15.08.0
 _ZTVN14TemplateParser15CustomTemplatesE@Base 4:15.08.0
 _ZTVN14TemplateParser17TemplatesTextEditE@Base 4:15.08.0
 _ZTVN14TemplateParser19CustomTemplatesMenuE@Base 4:15.08.0
 _ZTVN14TemplateParser22TemplatesConfigurationE@Base 4:15.08.0
 _ZTVN14TemplateParser9TemplatesE@Base 4:15.08.0
 _ZZZN14TemplateParser10CTemplates10setContentERK7QStringENKUlvE_clEvE15qstring_literal@Base 4:15.08.1
 _ZZZN14TemplateParser10CTemplates11setShortcutERK7QStringENKUlvE_clEvE15qstring_literal@Base 4:15.08.1
 _ZZZN14TemplateParser10CTemplates5setCCERK7QStringENKUlvE_clEvE15qstring_literal@Base 4:15.08.1
 _ZZZN14TemplateParser10CTemplates5setToERK7QStringENKUlvE_clEvE15qstring_literal@Base 4:15.08.1
 _ZZZN14TemplateParser10CTemplates7setTypeEiENKUlvE_clEvE15qstring_literal@Base 4:15.08.1
 _ZZZN14TemplateParser14GlobalSettings14setQuoteStringERK7QStringENKUlvE_clEvE15qstring_literal@Base 4:15.08.1
 _ZZZN14TemplateParser14GlobalSettings16setTemplateReplyERK7QStringENKUlvE_clEvE15qstring_literal@Base 4:15.08.1
 _ZZZN14TemplateParser14GlobalSettings18setCustomTemplatesERK11QStringListENKUlvE_clEvE15qstring_literal@Base 4:15.08.1
 _ZZZN14TemplateParser14GlobalSettings18setTemplateForwardERK7QStringENKUlvE_clEvE15qstring_literal@Base 4:15.08.1
 _ZZZN14TemplateParser14GlobalSettings19setTemplateReplyAllERK7QStringENKUlvE_clEvE15qstring_literal@Base 4:15.08.1
 _ZZZN14TemplateParser14GlobalSettings21setTemplateNewMessageERK7QStringENKUlvE_clEvE15qstring_literal@Base 4:15.08.1
 _ZZZN14TemplateParser9Templates14setQuoteStringERK7QStringENKUlvE_clEvE15qstring_literal@Base 4:15.08.1
 _ZZZN14TemplateParser9Templates16setTemplateReplyERK7QStringENKUlvE_clEvE15qstring_literal@Base 4:15.08.1
 _ZZZN14TemplateParser9Templates18setTemplateForwardERK7QStringENKUlvE_clEvE15qstring_literal@Base 4:15.08.1
 _ZZZN14TemplateParser9Templates19setTemplateReplyAllERK7QStringENKUlvE_clEvE15qstring_literal@Base 4:15.08.1
 _ZZZN14TemplateParser9Templates21setTemplateNewMessageERK7QStringENKUlvE_clEvE15qstring_literal@Base 4:15.08.1
 (c++)"non-virtual thunk to TemplateParser::CustomTemplates::~CustomTemplates()@Base" 4:15.08.0
 (c++)"non-virtual thunk to TemplateParser::TemplatesTextEdit::~TemplatesTextEdit()@Base" 4:15.08.0
